
JAM_TEST.elf:     file format elf32-littlearm

Sections:
Idx Name          Size      VMA       LMA       File off  Algn
  0 .interrupts   000000f8  00000000  00000000  000000d4  2**2
                  CONTENTS, ALLOC, LOAD, READONLY, DATA
  1 .text         00011da0  00000800  00000800  000001d0  2**3
                  CONTENTS, ALLOC, LOAD, READONLY, CODE
  2 .data         0000002c  1fffe000  000125a0  00011f70  2**2
                  CONTENTS, ALLOC, LOAD, DATA
  3 .bss          00000150  1fffe030  000125d0  00011fc0  2**3
                  ALLOC
  4 ._user_heap_stack 00000800  1fffe180  00012720  00011fc0  2**0
                  ALLOC
  5 .romp         00000024  20000000  000125cc  00011f9c  2**0
                  CONTENTS, ALLOC, LOAD, DATA
  6 .ARM.attributes 00000033  00000000  00000000  00011fc0  2**0
                  CONTENTS, READONLY
  7 .debug_info   0000951e  00000000  00000000  00011ff3  2**0
                  CONTENTS, READONLY, DEBUGGING
  8 .debug_abbrev 000029f9  00000000  00000000  0001b511  2**0
                  CONTENTS, READONLY, DEBUGGING
  9 .debug_loc    00006253  00000000  00000000  0001df0a  2**0
                  CONTENTS, READONLY, DEBUGGING
 10 .debug_aranges 00000978  00000000  00000000  0002415d  2**0
                  CONTENTS, READONLY, DEBUGGING
 11 .debug_macinfo 00243b66  00000000  00000000  00024ad5  2**0
                  CONTENTS, READONLY, DEBUGGING
 12 .debug_line   000056b3  00000000  00000000  0026863b  2**0
                  CONTENTS, READONLY, DEBUGGING
 13 .debug_str    00002277  00000000  00000000  0026dcee  2**0
                  CONTENTS, READONLY, DEBUGGING
 14 .comment      00000079  00000000  00000000  0026ff65  2**0
                  CONTENTS, READONLY
 15 .debug_frame  00001494  00000000  00000000  0026ffe0  2**2
                  CONTENTS, READONLY, DEBUGGING

Disassembly of section .text:

00000800 <__aeabi_drsub>:
     800:	f081 4100 	eor.w	r1, r1, #2147483648	; 0x80000000
     804:	e002      	b.n	80c <__adddf3>
     806:	bf00      	nop

00000808 <__aeabi_dsub>:
     808:	f083 4300 	eor.w	r3, r3, #2147483648	; 0x80000000

0000080c <__adddf3>:
     80c:	b530      	push	{r4, r5, lr}
     80e:	ea4f 0441 	mov.w	r4, r1, lsl #1
     812:	ea4f 0543 	mov.w	r5, r3, lsl #1
     816:	ea94 0f05 	teq	r4, r5
     81a:	bf08      	it	eq
     81c:	ea90 0f02 	teqeq	r0, r2
     820:	bf1f      	itttt	ne
     822:	ea54 0c00 	orrsne.w	ip, r4, r0
     826:	ea55 0c02 	orrsne.w	ip, r5, r2
     82a:	ea7f 5c64 	mvnsne.w	ip, r4, asr #21
     82e:	ea7f 5c65 	mvnsne.w	ip, r5, asr #21
     832:	f000 80e2 	beq.w	9fa <__adddf3+0x1ee>
     836:	ea4f 5454 	mov.w	r4, r4, lsr #21
     83a:	ebd4 5555 	rsbs	r5, r4, r5, lsr #21
     83e:	bfb8      	it	lt
     840:	426d      	neglt	r5, r5
     842:	dd0c      	ble.n	85e <__adddf3+0x52>
     844:	442c      	add	r4, r5
     846:	ea80 0202 	eor.w	r2, r0, r2
     84a:	ea81 0303 	eor.w	r3, r1, r3
     84e:	ea82 0000 	eor.w	r0, r2, r0
     852:	ea83 0101 	eor.w	r1, r3, r1
     856:	ea80 0202 	eor.w	r2, r0, r2
     85a:	ea81 0303 	eor.w	r3, r1, r3
     85e:	2d36      	cmp	r5, #54	; 0x36
     860:	bf88      	it	hi
     862:	bd30      	pophi	{r4, r5, pc}
     864:	f011 4f00 	tst.w	r1, #2147483648	; 0x80000000
     868:	ea4f 3101 	mov.w	r1, r1, lsl #12
     86c:	f44f 1c80 	mov.w	ip, #1048576	; 0x100000
     870:	ea4c 3111 	orr.w	r1, ip, r1, lsr #12
     874:	d002      	beq.n	87c <__adddf3+0x70>
     876:	4240      	negs	r0, r0
     878:	eb61 0141 	sbc.w	r1, r1, r1, lsl #1
     87c:	f013 4f00 	tst.w	r3, #2147483648	; 0x80000000
     880:	ea4f 3303 	mov.w	r3, r3, lsl #12
     884:	ea4c 3313 	orr.w	r3, ip, r3, lsr #12
     888:	d002      	beq.n	890 <__adddf3+0x84>
     88a:	4252      	negs	r2, r2
     88c:	eb63 0343 	sbc.w	r3, r3, r3, lsl #1
     890:	ea94 0f05 	teq	r4, r5
     894:	f000 80a7 	beq.w	9e6 <__adddf3+0x1da>
     898:	f1a4 0401 	sub.w	r4, r4, #1
     89c:	f1d5 0e20 	rsbs	lr, r5, #32
     8a0:	db0d      	blt.n	8be <__adddf3+0xb2>
     8a2:	fa02 fc0e 	lsl.w	ip, r2, lr
     8a6:	fa22 f205 	lsr.w	r2, r2, r5
     8aa:	1880      	adds	r0, r0, r2
     8ac:	f141 0100 	adc.w	r1, r1, #0
     8b0:	fa03 f20e 	lsl.w	r2, r3, lr
     8b4:	1880      	adds	r0, r0, r2
     8b6:	fa43 f305 	asr.w	r3, r3, r5
     8ba:	4159      	adcs	r1, r3
     8bc:	e00e      	b.n	8dc <__adddf3+0xd0>
     8be:	f1a5 0520 	sub.w	r5, r5, #32
     8c2:	f10e 0e20 	add.w	lr, lr, #32
     8c6:	2a01      	cmp	r2, #1
     8c8:	fa03 fc0e 	lsl.w	ip, r3, lr
     8cc:	bf28      	it	cs
     8ce:	f04c 0c02 	orrcs.w	ip, ip, #2
     8d2:	fa43 f305 	asr.w	r3, r3, r5
     8d6:	18c0      	adds	r0, r0, r3
     8d8:	eb51 71e3 	adcs.w	r1, r1, r3, asr #31
     8dc:	f001 4500 	and.w	r5, r1, #2147483648	; 0x80000000
     8e0:	d507      	bpl.n	8f2 <__adddf3+0xe6>
     8e2:	f04f 0e00 	mov.w	lr, #0
     8e6:	f1dc 0c00 	rsbs	ip, ip, #0
     8ea:	eb7e 0000 	sbcs.w	r0, lr, r0
     8ee:	eb6e 0101 	sbc.w	r1, lr, r1
     8f2:	f5b1 1f80 	cmp.w	r1, #1048576	; 0x100000
     8f6:	d31b      	bcc.n	930 <__adddf3+0x124>
     8f8:	f5b1 1f00 	cmp.w	r1, #2097152	; 0x200000
     8fc:	d30c      	bcc.n	918 <__adddf3+0x10c>
     8fe:	0849      	lsrs	r1, r1, #1
     900:	ea5f 0030 	movs.w	r0, r0, rrx
     904:	ea4f 0c3c 	mov.w	ip, ip, rrx
     908:	f104 0401 	add.w	r4, r4, #1
     90c:	ea4f 5244 	mov.w	r2, r4, lsl #21
     910:	f512 0f80 	cmn.w	r2, #4194304	; 0x400000
     914:	f080 809a 	bcs.w	a4c <__adddf3+0x240>
     918:	f1bc 4f00 	cmp.w	ip, #2147483648	; 0x80000000
     91c:	bf08      	it	eq
     91e:	ea5f 0c50 	movseq.w	ip, r0, lsr #1
     922:	f150 0000 	adcs.w	r0, r0, #0
     926:	eb41 5104 	adc.w	r1, r1, r4, lsl #20
     92a:	ea41 0105 	orr.w	r1, r1, r5
     92e:	bd30      	pop	{r4, r5, pc}
     930:	ea5f 0c4c 	movs.w	ip, ip, lsl #1
     934:	4140      	adcs	r0, r0
     936:	eb41 0101 	adc.w	r1, r1, r1
     93a:	f411 1f80 	tst.w	r1, #1048576	; 0x100000
     93e:	f1a4 0401 	sub.w	r4, r4, #1
     942:	d1e9      	bne.n	918 <__adddf3+0x10c>
     944:	f091 0f00 	teq	r1, #0
     948:	bf04      	itt	eq
     94a:	4601      	moveq	r1, r0
     94c:	2000      	moveq	r0, #0
     94e:	fab1 f381 	clz	r3, r1
     952:	bf08      	it	eq
     954:	3320      	addeq	r3, #32
     956:	f1a3 030b 	sub.w	r3, r3, #11
     95a:	f1b3 0220 	subs.w	r2, r3, #32
     95e:	da0c      	bge.n	97a <__adddf3+0x16e>
     960:	320c      	adds	r2, #12
     962:	dd08      	ble.n	976 <__adddf3+0x16a>
     964:	f102 0c14 	add.w	ip, r2, #20
     968:	f1c2 020c 	rsb	r2, r2, #12
     96c:	fa01 f00c 	lsl.w	r0, r1, ip
     970:	fa21 f102 	lsr.w	r1, r1, r2
     974:	e00c      	b.n	990 <__adddf3+0x184>
     976:	f102 0214 	add.w	r2, r2, #20
     97a:	bfd8      	it	le
     97c:	f1c2 0c20 	rsble	ip, r2, #32
     980:	fa01 f102 	lsl.w	r1, r1, r2
     984:	fa20 fc0c 	lsr.w	ip, r0, ip
     988:	bfdc      	itt	le
     98a:	ea41 010c 	orrle.w	r1, r1, ip
     98e:	4090      	lslle	r0, r2
     990:	1ae4      	subs	r4, r4, r3
     992:	bfa2      	ittt	ge
     994:	eb01 5104 	addge.w	r1, r1, r4, lsl #20
     998:	4329      	orrge	r1, r5
     99a:	bd30      	popge	{r4, r5, pc}
     99c:	ea6f 0404 	mvn.w	r4, r4
     9a0:	3c1f      	subs	r4, #31
     9a2:	da1c      	bge.n	9de <__adddf3+0x1d2>
     9a4:	340c      	adds	r4, #12
     9a6:	dc0e      	bgt.n	9c6 <__adddf3+0x1ba>
     9a8:	f104 0414 	add.w	r4, r4, #20
     9ac:	f1c4 0220 	rsb	r2, r4, #32
     9b0:	fa20 f004 	lsr.w	r0, r0, r4
     9b4:	fa01 f302 	lsl.w	r3, r1, r2
     9b8:	ea40 0003 	orr.w	r0, r0, r3
     9bc:	fa21 f304 	lsr.w	r3, r1, r4
     9c0:	ea45 0103 	orr.w	r1, r5, r3
     9c4:	bd30      	pop	{r4, r5, pc}
     9c6:	f1c4 040c 	rsb	r4, r4, #12
     9ca:	f1c4 0220 	rsb	r2, r4, #32
     9ce:	fa20 f002 	lsr.w	r0, r0, r2
     9d2:	fa01 f304 	lsl.w	r3, r1, r4
     9d6:	ea40 0003 	orr.w	r0, r0, r3
     9da:	4629      	mov	r1, r5
     9dc:	bd30      	pop	{r4, r5, pc}
     9de:	fa21 f004 	lsr.w	r0, r1, r4
     9e2:	4629      	mov	r1, r5
     9e4:	bd30      	pop	{r4, r5, pc}
     9e6:	f094 0f00 	teq	r4, #0
     9ea:	f483 1380 	eor.w	r3, r3, #1048576	; 0x100000
     9ee:	bf06      	itte	eq
     9f0:	f481 1180 	eoreq.w	r1, r1, #1048576	; 0x100000
     9f4:	3401      	addeq	r4, #1
     9f6:	3d01      	subne	r5, #1
     9f8:	e74e      	b.n	898 <__adddf3+0x8c>
     9fa:	ea7f 5c64 	mvns.w	ip, r4, asr #21
     9fe:	bf18      	it	ne
     a00:	ea7f 5c65 	mvnsne.w	ip, r5, asr #21
     a04:	d029      	beq.n	a5a <__adddf3+0x24e>
     a06:	ea94 0f05 	teq	r4, r5
     a0a:	bf08      	it	eq
     a0c:	ea90 0f02 	teqeq	r0, r2
     a10:	d005      	beq.n	a1e <__adddf3+0x212>
     a12:	ea54 0c00 	orrs.w	ip, r4, r0
     a16:	bf04      	itt	eq
     a18:	4619      	moveq	r1, r3
     a1a:	4610      	moveq	r0, r2
     a1c:	bd30      	pop	{r4, r5, pc}
     a1e:	ea91 0f03 	teq	r1, r3
     a22:	bf1e      	ittt	ne
     a24:	2100      	movne	r1, #0
     a26:	2000      	movne	r0, #0
     a28:	bd30      	popne	{r4, r5, pc}
     a2a:	ea5f 5c54 	movs.w	ip, r4, lsr #21
     a2e:	d105      	bne.n	a3c <__adddf3+0x230>
     a30:	0040      	lsls	r0, r0, #1
     a32:	4149      	adcs	r1, r1
     a34:	bf28      	it	cs
     a36:	f041 4100 	orrcs.w	r1, r1, #2147483648	; 0x80000000
     a3a:	bd30      	pop	{r4, r5, pc}
     a3c:	f514 0480 	adds.w	r4, r4, #4194304	; 0x400000
     a40:	bf3c      	itt	cc
     a42:	f501 1180 	addcc.w	r1, r1, #1048576	; 0x100000
     a46:	bd30      	popcc	{r4, r5, pc}
     a48:	f001 4500 	and.w	r5, r1, #2147483648	; 0x80000000
     a4c:	f045 41fe 	orr.w	r1, r5, #2130706432	; 0x7f000000
     a50:	f441 0170 	orr.w	r1, r1, #15728640	; 0xf00000
     a54:	f04f 0000 	mov.w	r0, #0
     a58:	bd30      	pop	{r4, r5, pc}
     a5a:	ea7f 5c64 	mvns.w	ip, r4, asr #21
     a5e:	bf1a      	itte	ne
     a60:	4619      	movne	r1, r3
     a62:	4610      	movne	r0, r2
     a64:	ea7f 5c65 	mvnseq.w	ip, r5, asr #21
     a68:	bf1c      	itt	ne
     a6a:	460b      	movne	r3, r1
     a6c:	4602      	movne	r2, r0
     a6e:	ea50 3401 	orrs.w	r4, r0, r1, lsl #12
     a72:	bf06      	itte	eq
     a74:	ea52 3503 	orrseq.w	r5, r2, r3, lsl #12
     a78:	ea91 0f03 	teqeq	r1, r3
     a7c:	f441 2100 	orrne.w	r1, r1, #524288	; 0x80000
     a80:	bd30      	pop	{r4, r5, pc}
     a82:	bf00      	nop

00000a84 <__aeabi_ui2d>:
     a84:	f090 0f00 	teq	r0, #0
     a88:	bf04      	itt	eq
     a8a:	2100      	moveq	r1, #0
     a8c:	4770      	bxeq	lr
     a8e:	b530      	push	{r4, r5, lr}
     a90:	f44f 6480 	mov.w	r4, #1024	; 0x400
     a94:	f104 0432 	add.w	r4, r4, #50	; 0x32
     a98:	f04f 0500 	mov.w	r5, #0
     a9c:	f04f 0100 	mov.w	r1, #0
     aa0:	e750      	b.n	944 <__adddf3+0x138>
     aa2:	bf00      	nop

00000aa4 <__aeabi_i2d>:
     aa4:	f090 0f00 	teq	r0, #0
     aa8:	bf04      	itt	eq
     aaa:	2100      	moveq	r1, #0
     aac:	4770      	bxeq	lr
     aae:	b530      	push	{r4, r5, lr}
     ab0:	f44f 6480 	mov.w	r4, #1024	; 0x400
     ab4:	f104 0432 	add.w	r4, r4, #50	; 0x32
     ab8:	f010 4500 	ands.w	r5, r0, #2147483648	; 0x80000000
     abc:	bf48      	it	mi
     abe:	4240      	negmi	r0, r0
     ac0:	f04f 0100 	mov.w	r1, #0
     ac4:	e73e      	b.n	944 <__adddf3+0x138>
     ac6:	bf00      	nop

00000ac8 <__aeabi_f2d>:
     ac8:	0042      	lsls	r2, r0, #1
     aca:	ea4f 01e2 	mov.w	r1, r2, asr #3
     ace:	ea4f 0131 	mov.w	r1, r1, rrx
     ad2:	ea4f 7002 	mov.w	r0, r2, lsl #28
     ad6:	bf1f      	itttt	ne
     ad8:	f012 437f 	andsne.w	r3, r2, #4278190080	; 0xff000000
     adc:	f093 4f7f 	teqne	r3, #4278190080	; 0xff000000
     ae0:	f081 5160 	eorne.w	r1, r1, #939524096	; 0x38000000
     ae4:	4770      	bxne	lr
     ae6:	f092 0f00 	teq	r2, #0
     aea:	bf14      	ite	ne
     aec:	f093 4f7f 	teqne	r3, #4278190080	; 0xff000000
     af0:	4770      	bxeq	lr
     af2:	b530      	push	{r4, r5, lr}
     af4:	f44f 7460 	mov.w	r4, #896	; 0x380
     af8:	f001 4500 	and.w	r5, r1, #2147483648	; 0x80000000
     afc:	f021 4100 	bic.w	r1, r1, #2147483648	; 0x80000000
     b00:	e720      	b.n	944 <__adddf3+0x138>
     b02:	bf00      	nop

00000b04 <__aeabi_ul2d>:
     b04:	ea50 0201 	orrs.w	r2, r0, r1
     b08:	bf08      	it	eq
     b0a:	4770      	bxeq	lr
     b0c:	b530      	push	{r4, r5, lr}
     b0e:	f04f 0500 	mov.w	r5, #0
     b12:	e00a      	b.n	b2a <__aeabi_l2d+0x16>

00000b14 <__aeabi_l2d>:
     b14:	ea50 0201 	orrs.w	r2, r0, r1
     b18:	bf08      	it	eq
     b1a:	4770      	bxeq	lr
     b1c:	b530      	push	{r4, r5, lr}
     b1e:	f011 4500 	ands.w	r5, r1, #2147483648	; 0x80000000
     b22:	d502      	bpl.n	b2a <__aeabi_l2d+0x16>
     b24:	4240      	negs	r0, r0
     b26:	eb61 0141 	sbc.w	r1, r1, r1, lsl #1
     b2a:	f44f 6480 	mov.w	r4, #1024	; 0x400
     b2e:	f104 0432 	add.w	r4, r4, #50	; 0x32
     b32:	ea5f 5c91 	movs.w	ip, r1, lsr #22
     b36:	f43f aedc 	beq.w	8f2 <__adddf3+0xe6>
     b3a:	f04f 0203 	mov.w	r2, #3
     b3e:	ea5f 0cdc 	movs.w	ip, ip, lsr #3
     b42:	bf18      	it	ne
     b44:	3203      	addne	r2, #3
     b46:	ea5f 0cdc 	movs.w	ip, ip, lsr #3
     b4a:	bf18      	it	ne
     b4c:	3203      	addne	r2, #3
     b4e:	eb02 02dc 	add.w	r2, r2, ip, lsr #3
     b52:	f1c2 0320 	rsb	r3, r2, #32
     b56:	fa00 fc03 	lsl.w	ip, r0, r3
     b5a:	fa20 f002 	lsr.w	r0, r0, r2
     b5e:	fa01 fe03 	lsl.w	lr, r1, r3
     b62:	ea40 000e 	orr.w	r0, r0, lr
     b66:	fa21 f102 	lsr.w	r1, r1, r2
     b6a:	4414      	add	r4, r2
     b6c:	e6c1      	b.n	8f2 <__adddf3+0xe6>
     b6e:	bf00      	nop

00000b70 <__aeabi_dmul>:
     b70:	b570      	push	{r4, r5, r6, lr}
     b72:	f04f 0cff 	mov.w	ip, #255	; 0xff
     b76:	f44c 6ce0 	orr.w	ip, ip, #1792	; 0x700
     b7a:	ea1c 5411 	ands.w	r4, ip, r1, lsr #20
     b7e:	bf1d      	ittte	ne
     b80:	ea1c 5513 	andsne.w	r5, ip, r3, lsr #20
     b84:	ea94 0f0c 	teqne	r4, ip
     b88:	ea95 0f0c 	teqne	r5, ip
     b8c:	f000 f8de 	bleq	d4c <__aeabi_dmul+0x1dc>
     b90:	442c      	add	r4, r5
     b92:	ea81 0603 	eor.w	r6, r1, r3
     b96:	ea21 514c 	bic.w	r1, r1, ip, lsl #21
     b9a:	ea23 534c 	bic.w	r3, r3, ip, lsl #21
     b9e:	ea50 3501 	orrs.w	r5, r0, r1, lsl #12
     ba2:	bf18      	it	ne
     ba4:	ea52 3503 	orrsne.w	r5, r2, r3, lsl #12
     ba8:	f441 1180 	orr.w	r1, r1, #1048576	; 0x100000
     bac:	f443 1380 	orr.w	r3, r3, #1048576	; 0x100000
     bb0:	d038      	beq.n	c24 <__aeabi_dmul+0xb4>
     bb2:	fba0 ce02 	umull	ip, lr, r0, r2
     bb6:	f04f 0500 	mov.w	r5, #0
     bba:	fbe1 e502 	umlal	lr, r5, r1, r2
     bbe:	f006 4200 	and.w	r2, r6, #2147483648	; 0x80000000
     bc2:	fbe0 e503 	umlal	lr, r5, r0, r3
     bc6:	f04f 0600 	mov.w	r6, #0
     bca:	fbe1 5603 	umlal	r5, r6, r1, r3
     bce:	f09c 0f00 	teq	ip, #0
     bd2:	bf18      	it	ne
     bd4:	f04e 0e01 	orrne.w	lr, lr, #1
     bd8:	f1a4 04ff 	sub.w	r4, r4, #255	; 0xff
     bdc:	f5b6 7f00 	cmp.w	r6, #512	; 0x200
     be0:	f564 7440 	sbc.w	r4, r4, #768	; 0x300
     be4:	d204      	bcs.n	bf0 <__aeabi_dmul+0x80>
     be6:	ea5f 0e4e 	movs.w	lr, lr, lsl #1
     bea:	416d      	adcs	r5, r5
     bec:	eb46 0606 	adc.w	r6, r6, r6
     bf0:	ea42 21c6 	orr.w	r1, r2, r6, lsl #11
     bf4:	ea41 5155 	orr.w	r1, r1, r5, lsr #21
     bf8:	ea4f 20c5 	mov.w	r0, r5, lsl #11
     bfc:	ea40 505e 	orr.w	r0, r0, lr, lsr #21
     c00:	ea4f 2ece 	mov.w	lr, lr, lsl #11
     c04:	f1b4 0cfd 	subs.w	ip, r4, #253	; 0xfd
     c08:	bf88      	it	hi
     c0a:	f5bc 6fe0 	cmphi.w	ip, #1792	; 0x700
     c0e:	d81e      	bhi.n	c4e <__aeabi_dmul+0xde>
     c10:	f1be 4f00 	cmp.w	lr, #2147483648	; 0x80000000
     c14:	bf08      	it	eq
     c16:	ea5f 0e50 	movseq.w	lr, r0, lsr #1
     c1a:	f150 0000 	adcs.w	r0, r0, #0
     c1e:	eb41 5104 	adc.w	r1, r1, r4, lsl #20
     c22:	bd70      	pop	{r4, r5, r6, pc}
     c24:	f006 4600 	and.w	r6, r6, #2147483648	; 0x80000000
     c28:	ea46 0101 	orr.w	r1, r6, r1
     c2c:	ea40 0002 	orr.w	r0, r0, r2
     c30:	ea81 0103 	eor.w	r1, r1, r3
     c34:	ebb4 045c 	subs.w	r4, r4, ip, lsr #1
     c38:	bfc2      	ittt	gt
     c3a:	ebd4 050c 	rsbsgt	r5, r4, ip
     c3e:	ea41 5104 	orrgt.w	r1, r1, r4, lsl #20
     c42:	bd70      	popgt	{r4, r5, r6, pc}
     c44:	f441 1180 	orr.w	r1, r1, #1048576	; 0x100000
     c48:	f04f 0e00 	mov.w	lr, #0
     c4c:	3c01      	subs	r4, #1
     c4e:	f300 80ab 	bgt.w	da8 <__aeabi_dmul+0x238>
     c52:	f114 0f36 	cmn.w	r4, #54	; 0x36
     c56:	bfde      	ittt	le
     c58:	2000      	movle	r0, #0
     c5a:	f001 4100 	andle.w	r1, r1, #2147483648	; 0x80000000
     c5e:	bd70      	pople	{r4, r5, r6, pc}
     c60:	f1c4 0400 	rsb	r4, r4, #0
     c64:	3c20      	subs	r4, #32
     c66:	da35      	bge.n	cd4 <__aeabi_dmul+0x164>
     c68:	340c      	adds	r4, #12
     c6a:	dc1b      	bgt.n	ca4 <__aeabi_dmul+0x134>
     c6c:	f104 0414 	add.w	r4, r4, #20
     c70:	f1c4 0520 	rsb	r5, r4, #32
     c74:	fa00 f305 	lsl.w	r3, r0, r5
     c78:	fa20 f004 	lsr.w	r0, r0, r4
     c7c:	fa01 f205 	lsl.w	r2, r1, r5
     c80:	ea40 0002 	orr.w	r0, r0, r2
     c84:	f001 4200 	and.w	r2, r1, #2147483648	; 0x80000000
     c88:	f021 4100 	bic.w	r1, r1, #2147483648	; 0x80000000
     c8c:	eb10 70d3 	adds.w	r0, r0, r3, lsr #31
     c90:	fa21 f604 	lsr.w	r6, r1, r4
     c94:	eb42 0106 	adc.w	r1, r2, r6
     c98:	ea5e 0e43 	orrs.w	lr, lr, r3, lsl #1
     c9c:	bf08      	it	eq
     c9e:	ea20 70d3 	biceq.w	r0, r0, r3, lsr #31
     ca2:	bd70      	pop	{r4, r5, r6, pc}
     ca4:	f1c4 040c 	rsb	r4, r4, #12
     ca8:	f1c4 0520 	rsb	r5, r4, #32
     cac:	fa00 f304 	lsl.w	r3, r0, r4
     cb0:	fa20 f005 	lsr.w	r0, r0, r5
     cb4:	fa01 f204 	lsl.w	r2, r1, r4
     cb8:	ea40 0002 	orr.w	r0, r0, r2
     cbc:	f001 4100 	and.w	r1, r1, #2147483648	; 0x80000000
     cc0:	eb10 70d3 	adds.w	r0, r0, r3, lsr #31
     cc4:	f141 0100 	adc.w	r1, r1, #0
     cc8:	ea5e 0e43 	orrs.w	lr, lr, r3, lsl #1
     ccc:	bf08      	it	eq
     cce:	ea20 70d3 	biceq.w	r0, r0, r3, lsr #31
     cd2:	bd70      	pop	{r4, r5, r6, pc}
     cd4:	f1c4 0520 	rsb	r5, r4, #32
     cd8:	fa00 f205 	lsl.w	r2, r0, r5
     cdc:	ea4e 0e02 	orr.w	lr, lr, r2
     ce0:	fa20 f304 	lsr.w	r3, r0, r4
     ce4:	fa01 f205 	lsl.w	r2, r1, r5
     ce8:	ea43 0302 	orr.w	r3, r3, r2
     cec:	fa21 f004 	lsr.w	r0, r1, r4
     cf0:	f001 4100 	and.w	r1, r1, #2147483648	; 0x80000000
     cf4:	fa21 f204 	lsr.w	r2, r1, r4
     cf8:	ea20 0002 	bic.w	r0, r0, r2
     cfc:	eb00 70d3 	add.w	r0, r0, r3, lsr #31
     d00:	ea5e 0e43 	orrs.w	lr, lr, r3, lsl #1
     d04:	bf08      	it	eq
     d06:	ea20 70d3 	biceq.w	r0, r0, r3, lsr #31
     d0a:	bd70      	pop	{r4, r5, r6, pc}
     d0c:	f094 0f00 	teq	r4, #0
     d10:	d10f      	bne.n	d32 <__aeabi_dmul+0x1c2>
     d12:	f001 4600 	and.w	r6, r1, #2147483648	; 0x80000000
     d16:	0040      	lsls	r0, r0, #1
     d18:	eb41 0101 	adc.w	r1, r1, r1
     d1c:	f411 1f80 	tst.w	r1, #1048576	; 0x100000
     d20:	bf08      	it	eq
     d22:	3c01      	subeq	r4, #1
     d24:	d0f7      	beq.n	d16 <__aeabi_dmul+0x1a6>
     d26:	ea41 0106 	orr.w	r1, r1, r6
     d2a:	f095 0f00 	teq	r5, #0
     d2e:	bf18      	it	ne
     d30:	4770      	bxne	lr
     d32:	f003 4600 	and.w	r6, r3, #2147483648	; 0x80000000
     d36:	0052      	lsls	r2, r2, #1
     d38:	eb43 0303 	adc.w	r3, r3, r3
     d3c:	f413 1f80 	tst.w	r3, #1048576	; 0x100000
     d40:	bf08      	it	eq
     d42:	3d01      	subeq	r5, #1
     d44:	d0f7      	beq.n	d36 <__aeabi_dmul+0x1c6>
     d46:	ea43 0306 	orr.w	r3, r3, r6
     d4a:	4770      	bx	lr
     d4c:	ea94 0f0c 	teq	r4, ip
     d50:	ea0c 5513 	and.w	r5, ip, r3, lsr #20
     d54:	bf18      	it	ne
     d56:	ea95 0f0c 	teqne	r5, ip
     d5a:	d00c      	beq.n	d76 <__aeabi_dmul+0x206>
     d5c:	ea50 0641 	orrs.w	r6, r0, r1, lsl #1
     d60:	bf18      	it	ne
     d62:	ea52 0643 	orrsne.w	r6, r2, r3, lsl #1
     d66:	d1d1      	bne.n	d0c <__aeabi_dmul+0x19c>
     d68:	ea81 0103 	eor.w	r1, r1, r3
     d6c:	f001 4100 	and.w	r1, r1, #2147483648	; 0x80000000
     d70:	f04f 0000 	mov.w	r0, #0
     d74:	bd70      	pop	{r4, r5, r6, pc}
     d76:	ea50 0641 	orrs.w	r6, r0, r1, lsl #1
     d7a:	bf06      	itte	eq
     d7c:	4610      	moveq	r0, r2
     d7e:	4619      	moveq	r1, r3
     d80:	ea52 0643 	orrsne.w	r6, r2, r3, lsl #1
     d84:	d019      	beq.n	dba <__aeabi_dmul+0x24a>
     d86:	ea94 0f0c 	teq	r4, ip
     d8a:	d102      	bne.n	d92 <__aeabi_dmul+0x222>
     d8c:	ea50 3601 	orrs.w	r6, r0, r1, lsl #12
     d90:	d113      	bne.n	dba <__aeabi_dmul+0x24a>
     d92:	ea95 0f0c 	teq	r5, ip
     d96:	d105      	bne.n	da4 <__aeabi_dmul+0x234>
     d98:	ea52 3603 	orrs.w	r6, r2, r3, lsl #12
     d9c:	bf1c      	itt	ne
     d9e:	4610      	movne	r0, r2
     da0:	4619      	movne	r1, r3
     da2:	d10a      	bne.n	dba <__aeabi_dmul+0x24a>
     da4:	ea81 0103 	eor.w	r1, r1, r3
     da8:	f001 4100 	and.w	r1, r1, #2147483648	; 0x80000000
     dac:	f041 41fe 	orr.w	r1, r1, #2130706432	; 0x7f000000
     db0:	f441 0170 	orr.w	r1, r1, #15728640	; 0xf00000
     db4:	f04f 0000 	mov.w	r0, #0
     db8:	bd70      	pop	{r4, r5, r6, pc}
     dba:	f041 41fe 	orr.w	r1, r1, #2130706432	; 0x7f000000
     dbe:	f441 0178 	orr.w	r1, r1, #16252928	; 0xf80000
     dc2:	bd70      	pop	{r4, r5, r6, pc}

00000dc4 <__aeabi_ddiv>:
     dc4:	b570      	push	{r4, r5, r6, lr}
     dc6:	f04f 0cff 	mov.w	ip, #255	; 0xff
     dca:	f44c 6ce0 	orr.w	ip, ip, #1792	; 0x700
     dce:	ea1c 5411 	ands.w	r4, ip, r1, lsr #20
     dd2:	bf1d      	ittte	ne
     dd4:	ea1c 5513 	andsne.w	r5, ip, r3, lsr #20
     dd8:	ea94 0f0c 	teqne	r4, ip
     ddc:	ea95 0f0c 	teqne	r5, ip
     de0:	f000 f8a7 	bleq	f32 <__aeabi_ddiv+0x16e>
     de4:	eba4 0405 	sub.w	r4, r4, r5
     de8:	ea81 0e03 	eor.w	lr, r1, r3
     dec:	ea52 3503 	orrs.w	r5, r2, r3, lsl #12
     df0:	ea4f 3101 	mov.w	r1, r1, lsl #12
     df4:	f000 8088 	beq.w	f08 <__aeabi_ddiv+0x144>
     df8:	ea4f 3303 	mov.w	r3, r3, lsl #12
     dfc:	f04f 5580 	mov.w	r5, #268435456	; 0x10000000
     e00:	ea45 1313 	orr.w	r3, r5, r3, lsr #4
     e04:	ea43 6312 	orr.w	r3, r3, r2, lsr #24
     e08:	ea4f 2202 	mov.w	r2, r2, lsl #8
     e0c:	ea45 1511 	orr.w	r5, r5, r1, lsr #4
     e10:	ea45 6510 	orr.w	r5, r5, r0, lsr #24
     e14:	ea4f 2600 	mov.w	r6, r0, lsl #8
     e18:	f00e 4100 	and.w	r1, lr, #2147483648	; 0x80000000
     e1c:	429d      	cmp	r5, r3
     e1e:	bf08      	it	eq
     e20:	4296      	cmpeq	r6, r2
     e22:	f144 04fd 	adc.w	r4, r4, #253	; 0xfd
     e26:	f504 7440 	add.w	r4, r4, #768	; 0x300
     e2a:	d202      	bcs.n	e32 <__aeabi_ddiv+0x6e>
     e2c:	085b      	lsrs	r3, r3, #1
     e2e:	ea4f 0232 	mov.w	r2, r2, rrx
     e32:	1ab6      	subs	r6, r6, r2
     e34:	eb65 0503 	sbc.w	r5, r5, r3
     e38:	085b      	lsrs	r3, r3, #1
     e3a:	ea4f 0232 	mov.w	r2, r2, rrx
     e3e:	f44f 1080 	mov.w	r0, #1048576	; 0x100000
     e42:	f44f 2c00 	mov.w	ip, #524288	; 0x80000
     e46:	ebb6 0e02 	subs.w	lr, r6, r2
     e4a:	eb75 0e03 	sbcs.w	lr, r5, r3
     e4e:	bf22      	ittt	cs
     e50:	1ab6      	subcs	r6, r6, r2
     e52:	4675      	movcs	r5, lr
     e54:	ea40 000c 	orrcs.w	r0, r0, ip
     e58:	085b      	lsrs	r3, r3, #1
     e5a:	ea4f 0232 	mov.w	r2, r2, rrx
     e5e:	ebb6 0e02 	subs.w	lr, r6, r2
     e62:	eb75 0e03 	sbcs.w	lr, r5, r3
     e66:	bf22      	ittt	cs
     e68:	1ab6      	subcs	r6, r6, r2
     e6a:	4675      	movcs	r5, lr
     e6c:	ea40 005c 	orrcs.w	r0, r0, ip, lsr #1
     e70:	085b      	lsrs	r3, r3, #1
     e72:	ea4f 0232 	mov.w	r2, r2, rrx
     e76:	ebb6 0e02 	subs.w	lr, r6, r2
     e7a:	eb75 0e03 	sbcs.w	lr, r5, r3
     e7e:	bf22      	ittt	cs
     e80:	1ab6      	subcs	r6, r6, r2
     e82:	4675      	movcs	r5, lr
     e84:	ea40 009c 	orrcs.w	r0, r0, ip, lsr #2
     e88:	085b      	lsrs	r3, r3, #1
     e8a:	ea4f 0232 	mov.w	r2, r2, rrx
     e8e:	ebb6 0e02 	subs.w	lr, r6, r2
     e92:	eb75 0e03 	sbcs.w	lr, r5, r3
     e96:	bf22      	ittt	cs
     e98:	1ab6      	subcs	r6, r6, r2
     e9a:	4675      	movcs	r5, lr
     e9c:	ea40 00dc 	orrcs.w	r0, r0, ip, lsr #3
     ea0:	ea55 0e06 	orrs.w	lr, r5, r6
     ea4:	d018      	beq.n	ed8 <__aeabi_ddiv+0x114>
     ea6:	ea4f 1505 	mov.w	r5, r5, lsl #4
     eaa:	ea45 7516 	orr.w	r5, r5, r6, lsr #28
     eae:	ea4f 1606 	mov.w	r6, r6, lsl #4
     eb2:	ea4f 03c3 	mov.w	r3, r3, lsl #3
     eb6:	ea43 7352 	orr.w	r3, r3, r2, lsr #29
     eba:	ea4f 02c2 	mov.w	r2, r2, lsl #3
     ebe:	ea5f 1c1c 	movs.w	ip, ip, lsr #4
     ec2:	d1c0      	bne.n	e46 <__aeabi_ddiv+0x82>
     ec4:	f411 1f80 	tst.w	r1, #1048576	; 0x100000
     ec8:	d10b      	bne.n	ee2 <__aeabi_ddiv+0x11e>
     eca:	ea41 0100 	orr.w	r1, r1, r0
     ece:	f04f 0000 	mov.w	r0, #0
     ed2:	f04f 4c00 	mov.w	ip, #2147483648	; 0x80000000
     ed6:	e7b6      	b.n	e46 <__aeabi_ddiv+0x82>
     ed8:	f411 1f80 	tst.w	r1, #1048576	; 0x100000
     edc:	bf04      	itt	eq
     ede:	4301      	orreq	r1, r0
     ee0:	2000      	moveq	r0, #0
     ee2:	f1b4 0cfd 	subs.w	ip, r4, #253	; 0xfd
     ee6:	bf88      	it	hi
     ee8:	f5bc 6fe0 	cmphi.w	ip, #1792	; 0x700
     eec:	f63f aeaf 	bhi.w	c4e <__aeabi_dmul+0xde>
     ef0:	ebb5 0c03 	subs.w	ip, r5, r3
     ef4:	bf04      	itt	eq
     ef6:	ebb6 0c02 	subseq.w	ip, r6, r2
     efa:	ea5f 0c50 	movseq.w	ip, r0, lsr #1
     efe:	f150 0000 	adcs.w	r0, r0, #0
     f02:	eb41 5104 	adc.w	r1, r1, r4, lsl #20
     f06:	bd70      	pop	{r4, r5, r6, pc}
     f08:	f00e 4e00 	and.w	lr, lr, #2147483648	; 0x80000000
     f0c:	ea4e 3111 	orr.w	r1, lr, r1, lsr #12
     f10:	eb14 045c 	adds.w	r4, r4, ip, lsr #1
     f14:	bfc2      	ittt	gt
     f16:	ebd4 050c 	rsbsgt	r5, r4, ip
     f1a:	ea41 5104 	orrgt.w	r1, r1, r4, lsl #20
     f1e:	bd70      	popgt	{r4, r5, r6, pc}
     f20:	f441 1180 	orr.w	r1, r1, #1048576	; 0x100000
     f24:	f04f 0e00 	mov.w	lr, #0
     f28:	3c01      	subs	r4, #1
     f2a:	e690      	b.n	c4e <__aeabi_dmul+0xde>
     f2c:	ea45 0e06 	orr.w	lr, r5, r6
     f30:	e68d      	b.n	c4e <__aeabi_dmul+0xde>
     f32:	ea0c 5513 	and.w	r5, ip, r3, lsr #20
     f36:	ea94 0f0c 	teq	r4, ip
     f3a:	bf08      	it	eq
     f3c:	ea95 0f0c 	teqeq	r5, ip
     f40:	f43f af3b 	beq.w	dba <__aeabi_dmul+0x24a>
     f44:	ea94 0f0c 	teq	r4, ip
     f48:	d10a      	bne.n	f60 <__aeabi_ddiv+0x19c>
     f4a:	ea50 3401 	orrs.w	r4, r0, r1, lsl #12
     f4e:	f47f af34 	bne.w	dba <__aeabi_dmul+0x24a>
     f52:	ea95 0f0c 	teq	r5, ip
     f56:	f47f af25 	bne.w	da4 <__aeabi_dmul+0x234>
     f5a:	4610      	mov	r0, r2
     f5c:	4619      	mov	r1, r3
     f5e:	e72c      	b.n	dba <__aeabi_dmul+0x24a>
     f60:	ea95 0f0c 	teq	r5, ip
     f64:	d106      	bne.n	f74 <__aeabi_ddiv+0x1b0>
     f66:	ea52 3503 	orrs.w	r5, r2, r3, lsl #12
     f6a:	f43f aefd 	beq.w	d68 <__aeabi_dmul+0x1f8>
     f6e:	4610      	mov	r0, r2
     f70:	4619      	mov	r1, r3
     f72:	e722      	b.n	dba <__aeabi_dmul+0x24a>
     f74:	ea50 0641 	orrs.w	r6, r0, r1, lsl #1
     f78:	bf18      	it	ne
     f7a:	ea52 0643 	orrsne.w	r6, r2, r3, lsl #1
     f7e:	f47f aec5 	bne.w	d0c <__aeabi_dmul+0x19c>
     f82:	ea50 0441 	orrs.w	r4, r0, r1, lsl #1
     f86:	f47f af0d 	bne.w	da4 <__aeabi_dmul+0x234>
     f8a:	ea52 0543 	orrs.w	r5, r2, r3, lsl #1
     f8e:	f47f aeeb 	bne.w	d68 <__aeabi_dmul+0x1f8>
     f92:	e712      	b.n	dba <__aeabi_dmul+0x24a>

00000f94 <__gedf2>:
     f94:	f04f 3cff 	mov.w	ip, #4294967295
     f98:	e006      	b.n	fa8 <__cmpdf2+0x4>
     f9a:	bf00      	nop

00000f9c <__ledf2>:
     f9c:	f04f 0c01 	mov.w	ip, #1
     fa0:	e002      	b.n	fa8 <__cmpdf2+0x4>
     fa2:	bf00      	nop

00000fa4 <__cmpdf2>:
     fa4:	f04f 0c01 	mov.w	ip, #1
     fa8:	f84d cd04 	str.w	ip, [sp, #-4]!
     fac:	ea4f 0c41 	mov.w	ip, r1, lsl #1
     fb0:	ea7f 5c6c 	mvns.w	ip, ip, asr #21
     fb4:	ea4f 0c43 	mov.w	ip, r3, lsl #1
     fb8:	bf18      	it	ne
     fba:	ea7f 5c6c 	mvnsne.w	ip, ip, asr #21
     fbe:	d01b      	beq.n	ff8 <__cmpdf2+0x54>
     fc0:	b001      	add	sp, #4
     fc2:	ea50 0c41 	orrs.w	ip, r0, r1, lsl #1
     fc6:	bf0c      	ite	eq
     fc8:	ea52 0c43 	orrseq.w	ip, r2, r3, lsl #1
     fcc:	ea91 0f03 	teqne	r1, r3
     fd0:	bf02      	ittt	eq
     fd2:	ea90 0f02 	teqeq	r0, r2
     fd6:	2000      	moveq	r0, #0
     fd8:	4770      	bxeq	lr
     fda:	f110 0f00 	cmn.w	r0, #0
     fde:	ea91 0f03 	teq	r1, r3
     fe2:	bf58      	it	pl
     fe4:	4299      	cmppl	r1, r3
     fe6:	bf08      	it	eq
     fe8:	4290      	cmpeq	r0, r2
     fea:	bf2c      	ite	cs
     fec:	17d8      	asrcs	r0, r3, #31
     fee:	ea6f 70e3 	mvncc.w	r0, r3, asr #31
     ff2:	f040 0001 	orr.w	r0, r0, #1
     ff6:	4770      	bx	lr
     ff8:	ea4f 0c41 	mov.w	ip, r1, lsl #1
     ffc:	ea7f 5c6c 	mvns.w	ip, ip, asr #21
    1000:	d102      	bne.n	1008 <__cmpdf2+0x64>
    1002:	ea50 3c01 	orrs.w	ip, r0, r1, lsl #12
    1006:	d107      	bne.n	1018 <__cmpdf2+0x74>
    1008:	ea4f 0c43 	mov.w	ip, r3, lsl #1
    100c:	ea7f 5c6c 	mvns.w	ip, ip, asr #21
    1010:	d1d6      	bne.n	fc0 <__cmpdf2+0x1c>
    1012:	ea52 3c03 	orrs.w	ip, r2, r3, lsl #12
    1016:	d0d3      	beq.n	fc0 <__cmpdf2+0x1c>
    1018:	f85d 0b04 	ldr.w	r0, [sp], #4
    101c:	4770      	bx	lr
    101e:	bf00      	nop

00001020 <__aeabi_cdrcmple>:
    1020:	4684      	mov	ip, r0
    1022:	4610      	mov	r0, r2
    1024:	4662      	mov	r2, ip
    1026:	468c      	mov	ip, r1
    1028:	4619      	mov	r1, r3
    102a:	4663      	mov	r3, ip
    102c:	e000      	b.n	1030 <__aeabi_cdcmpeq>
    102e:	bf00      	nop

00001030 <__aeabi_cdcmpeq>:
    1030:	b501      	push	{r0, lr}
    1032:	f7ff ffb7 	bl	fa4 <__cmpdf2>
    1036:	2800      	cmp	r0, #0
    1038:	bf48      	it	mi
    103a:	f110 0f00 	cmnmi.w	r0, #0
    103e:	bd01      	pop	{r0, pc}

00001040 <__aeabi_dcmpeq>:
    1040:	f84d ed08 	str.w	lr, [sp, #-8]!
    1044:	f7ff fff4 	bl	1030 <__aeabi_cdcmpeq>
    1048:	bf0c      	ite	eq
    104a:	2001      	moveq	r0, #1
    104c:	2000      	movne	r0, #0
    104e:	f85d fb08 	ldr.w	pc, [sp], #8
    1052:	bf00      	nop

00001054 <__aeabi_dcmplt>:
    1054:	f84d ed08 	str.w	lr, [sp, #-8]!
    1058:	f7ff ffea 	bl	1030 <__aeabi_cdcmpeq>
    105c:	bf34      	ite	cc
    105e:	2001      	movcc	r0, #1
    1060:	2000      	movcs	r0, #0
    1062:	f85d fb08 	ldr.w	pc, [sp], #8
    1066:	bf00      	nop

00001068 <__aeabi_dcmple>:
    1068:	f84d ed08 	str.w	lr, [sp, #-8]!
    106c:	f7ff ffe0 	bl	1030 <__aeabi_cdcmpeq>
    1070:	bf94      	ite	ls
    1072:	2001      	movls	r0, #1
    1074:	2000      	movhi	r0, #0
    1076:	f85d fb08 	ldr.w	pc, [sp], #8
    107a:	bf00      	nop

0000107c <__aeabi_dcmpge>:
    107c:	f84d ed08 	str.w	lr, [sp, #-8]!
    1080:	f7ff ffce 	bl	1020 <__aeabi_cdrcmple>
    1084:	bf94      	ite	ls
    1086:	2001      	movls	r0, #1
    1088:	2000      	movhi	r0, #0
    108a:	f85d fb08 	ldr.w	pc, [sp], #8
    108e:	bf00      	nop

00001090 <__aeabi_dcmpgt>:
    1090:	f84d ed08 	str.w	lr, [sp, #-8]!
    1094:	f7ff ffc4 	bl	1020 <__aeabi_cdrcmple>
    1098:	bf34      	ite	cc
    109a:	2001      	movcc	r0, #1
    109c:	2000      	movcs	r0, #0
    109e:	f85d fb08 	ldr.w	pc, [sp], #8
    10a2:	bf00      	nop

000010a4 <__aeabi_d2iz>:
    10a4:	ea4f 0241 	mov.w	r2, r1, lsl #1
    10a8:	f512 1200 	adds.w	r2, r2, #2097152	; 0x200000
    10ac:	d215      	bcs.n	10da <__aeabi_d2iz+0x36>
    10ae:	d511      	bpl.n	10d4 <__aeabi_d2iz+0x30>
    10b0:	f46f 7378 	mvn.w	r3, #992	; 0x3e0
    10b4:	ebb3 5262 	subs.w	r2, r3, r2, asr #21
    10b8:	d912      	bls.n	10e0 <__aeabi_d2iz+0x3c>
    10ba:	ea4f 23c1 	mov.w	r3, r1, lsl #11
    10be:	f043 4300 	orr.w	r3, r3, #2147483648	; 0x80000000
    10c2:	ea43 5350 	orr.w	r3, r3, r0, lsr #21
    10c6:	f011 4f00 	tst.w	r1, #2147483648	; 0x80000000
    10ca:	fa23 f002 	lsr.w	r0, r3, r2
    10ce:	bf18      	it	ne
    10d0:	4240      	negne	r0, r0
    10d2:	4770      	bx	lr
    10d4:	f04f 0000 	mov.w	r0, #0
    10d8:	4770      	bx	lr
    10da:	ea50 3001 	orrs.w	r0, r0, r1, lsl #12
    10de:	d105      	bne.n	10ec <__aeabi_d2iz+0x48>
    10e0:	f011 4000 	ands.w	r0, r1, #2147483648	; 0x80000000
    10e4:	bf08      	it	eq
    10e6:	f06f 4000 	mvneq.w	r0, #2147483648	; 0x80000000
    10ea:	4770      	bx	lr
    10ec:	f04f 0000 	mov.w	r0, #0
    10f0:	4770      	bx	lr
    10f2:	bf00      	nop

000010f4 <__aeabi_d2f>:
    10f4:	ea4f 0241 	mov.w	r2, r1, lsl #1
    10f8:	f1b2 43e0 	subs.w	r3, r2, #1879048192	; 0x70000000
    10fc:	bf24      	itt	cs
    10fe:	f5b3 1c00 	subscs.w	ip, r3, #2097152	; 0x200000
    1102:	f1dc 5cfe 	rsbscs	ip, ip, #532676608	; 0x1fc00000
    1106:	d90d      	bls.n	1124 <__aeabi_d2f+0x30>
    1108:	f001 4c00 	and.w	ip, r1, #2147483648	; 0x80000000
    110c:	ea4f 02c0 	mov.w	r2, r0, lsl #3
    1110:	ea4c 7050 	orr.w	r0, ip, r0, lsr #29
    1114:	f1b2 4f00 	cmp.w	r2, #2147483648	; 0x80000000
    1118:	eb40 0083 	adc.w	r0, r0, r3, lsl #2
    111c:	bf08      	it	eq
    111e:	f020 0001 	biceq.w	r0, r0, #1
    1122:	4770      	bx	lr
    1124:	f011 4f80 	tst.w	r1, #1073741824	; 0x40000000
    1128:	d121      	bne.n	116e <__aeabi_d2f+0x7a>
    112a:	f113 7238 	adds.w	r2, r3, #48234496	; 0x2e00000
    112e:	bfbc      	itt	lt
    1130:	f001 4000 	andlt.w	r0, r1, #2147483648	; 0x80000000
    1134:	4770      	bxlt	lr
    1136:	f441 1180 	orr.w	r1, r1, #1048576	; 0x100000
    113a:	ea4f 5252 	mov.w	r2, r2, lsr #21
    113e:	f1c2 0218 	rsb	r2, r2, #24
    1142:	f1c2 0c20 	rsb	ip, r2, #32
    1146:	fa10 f30c 	lsls.w	r3, r0, ip
    114a:	fa20 f002 	lsr.w	r0, r0, r2
    114e:	bf18      	it	ne
    1150:	f040 0001 	orrne.w	r0, r0, #1
    1154:	ea4f 23c1 	mov.w	r3, r1, lsl #11
    1158:	ea4f 23d3 	mov.w	r3, r3, lsr #11
    115c:	fa03 fc0c 	lsl.w	ip, r3, ip
    1160:	ea40 000c 	orr.w	r0, r0, ip
    1164:	fa23 f302 	lsr.w	r3, r3, r2
    1168:	ea4f 0343 	mov.w	r3, r3, lsl #1
    116c:	e7cc      	b.n	1108 <__aeabi_d2f+0x14>
    116e:	ea7f 5362 	mvns.w	r3, r2, asr #21
    1172:	d107      	bne.n	1184 <__aeabi_d2f+0x90>
    1174:	ea50 3301 	orrs.w	r3, r0, r1, lsl #12
    1178:	bf1e      	ittt	ne
    117a:	f04f 40fe 	movne.w	r0, #2130706432	; 0x7f000000
    117e:	f440 0040 	orrne.w	r0, r0, #12582912	; 0xc00000
    1182:	4770      	bxne	lr
    1184:	f001 4000 	and.w	r0, r1, #2147483648	; 0x80000000
    1188:	f040 40fe 	orr.w	r0, r0, #2130706432	; 0x7f000000
    118c:	f440 0000 	orr.w	r0, r0, #8388608	; 0x800000
    1190:	4770      	bx	lr
    1192:	bf00      	nop

00001194 <__aeabi_frsub>:
    1194:	f080 4000 	eor.w	r0, r0, #2147483648	; 0x80000000
    1198:	e002      	b.n	11a0 <__addsf3>
    119a:	bf00      	nop

0000119c <__aeabi_fsub>:
    119c:	f081 4100 	eor.w	r1, r1, #2147483648	; 0x80000000

000011a0 <__addsf3>:
    11a0:	0042      	lsls	r2, r0, #1
    11a2:	bf1f      	itttt	ne
    11a4:	ea5f 0341 	movsne.w	r3, r1, lsl #1
    11a8:	ea92 0f03 	teqne	r2, r3
    11ac:	ea7f 6c22 	mvnsne.w	ip, r2, asr #24
    11b0:	ea7f 6c23 	mvnsne.w	ip, r3, asr #24
    11b4:	d06a      	beq.n	128c <__addsf3+0xec>
    11b6:	ea4f 6212 	mov.w	r2, r2, lsr #24
    11ba:	ebd2 6313 	rsbs	r3, r2, r3, lsr #24
    11be:	bfc1      	itttt	gt
    11c0:	18d2      	addgt	r2, r2, r3
    11c2:	4041      	eorgt	r1, r0
    11c4:	4048      	eorgt	r0, r1
    11c6:	4041      	eorgt	r1, r0
    11c8:	bfb8      	it	lt
    11ca:	425b      	neglt	r3, r3
    11cc:	2b19      	cmp	r3, #25
    11ce:	bf88      	it	hi
    11d0:	4770      	bxhi	lr
    11d2:	f010 4f00 	tst.w	r0, #2147483648	; 0x80000000
    11d6:	f440 0000 	orr.w	r0, r0, #8388608	; 0x800000
    11da:	f020 407f 	bic.w	r0, r0, #4278190080	; 0xff000000
    11de:	bf18      	it	ne
    11e0:	4240      	negne	r0, r0
    11e2:	f011 4f00 	tst.w	r1, #2147483648	; 0x80000000
    11e6:	f441 0100 	orr.w	r1, r1, #8388608	; 0x800000
    11ea:	f021 417f 	bic.w	r1, r1, #4278190080	; 0xff000000
    11ee:	bf18      	it	ne
    11f0:	4249      	negne	r1, r1
    11f2:	ea92 0f03 	teq	r2, r3
    11f6:	d03f      	beq.n	1278 <__addsf3+0xd8>
    11f8:	f1a2 0201 	sub.w	r2, r2, #1
    11fc:	fa41 fc03 	asr.w	ip, r1, r3
    1200:	eb10 000c 	adds.w	r0, r0, ip
    1204:	f1c3 0320 	rsb	r3, r3, #32
    1208:	fa01 f103 	lsl.w	r1, r1, r3
    120c:	f000 4300 	and.w	r3, r0, #2147483648	; 0x80000000
    1210:	d502      	bpl.n	1218 <__addsf3+0x78>
    1212:	4249      	negs	r1, r1
    1214:	eb60 0040 	sbc.w	r0, r0, r0, lsl #1
    1218:	f5b0 0f00 	cmp.w	r0, #8388608	; 0x800000
    121c:	d313      	bcc.n	1246 <__addsf3+0xa6>
    121e:	f1b0 7f80 	cmp.w	r0, #16777216	; 0x1000000
    1222:	d306      	bcc.n	1232 <__addsf3+0x92>
    1224:	0840      	lsrs	r0, r0, #1
    1226:	ea4f 0131 	mov.w	r1, r1, rrx
    122a:	f102 0201 	add.w	r2, r2, #1
    122e:	2afe      	cmp	r2, #254	; 0xfe
    1230:	d251      	bcs.n	12d6 <__addsf3+0x136>
    1232:	f1b1 4f00 	cmp.w	r1, #2147483648	; 0x80000000
    1236:	eb40 50c2 	adc.w	r0, r0, r2, lsl #23
    123a:	bf08      	it	eq
    123c:	f020 0001 	biceq.w	r0, r0, #1
    1240:	ea40 0003 	orr.w	r0, r0, r3
    1244:	4770      	bx	lr
    1246:	0049      	lsls	r1, r1, #1
    1248:	eb40 0000 	adc.w	r0, r0, r0
    124c:	f410 0f00 	tst.w	r0, #8388608	; 0x800000
    1250:	f1a2 0201 	sub.w	r2, r2, #1
    1254:	d1ed      	bne.n	1232 <__addsf3+0x92>
    1256:	fab0 fc80 	clz	ip, r0
    125a:	f1ac 0c08 	sub.w	ip, ip, #8
    125e:	ebb2 020c 	subs.w	r2, r2, ip
    1262:	fa00 f00c 	lsl.w	r0, r0, ip
    1266:	bfaa      	itet	ge
    1268:	eb00 50c2 	addge.w	r0, r0, r2, lsl #23
    126c:	4252      	neglt	r2, r2
    126e:	4318      	orrge	r0, r3
    1270:	bfbc      	itt	lt
    1272:	40d0      	lsrlt	r0, r2
    1274:	4318      	orrlt	r0, r3
    1276:	4770      	bx	lr
    1278:	f092 0f00 	teq	r2, #0
    127c:	f481 0100 	eor.w	r1, r1, #8388608	; 0x800000
    1280:	bf06      	itte	eq
    1282:	f480 0000 	eoreq.w	r0, r0, #8388608	; 0x800000
    1286:	3201      	addeq	r2, #1
    1288:	3b01      	subne	r3, #1
    128a:	e7b5      	b.n	11f8 <__addsf3+0x58>
    128c:	ea4f 0341 	mov.w	r3, r1, lsl #1
    1290:	ea7f 6c22 	mvns.w	ip, r2, asr #24
    1294:	bf18      	it	ne
    1296:	ea7f 6c23 	mvnsne.w	ip, r3, asr #24
    129a:	d021      	beq.n	12e0 <__addsf3+0x140>
    129c:	ea92 0f03 	teq	r2, r3
    12a0:	d004      	beq.n	12ac <__addsf3+0x10c>
    12a2:	f092 0f00 	teq	r2, #0
    12a6:	bf08      	it	eq
    12a8:	4608      	moveq	r0, r1
    12aa:	4770      	bx	lr
    12ac:	ea90 0f01 	teq	r0, r1
    12b0:	bf1c      	itt	ne
    12b2:	2000      	movne	r0, #0
    12b4:	4770      	bxne	lr
    12b6:	f012 4f7f 	tst.w	r2, #4278190080	; 0xff000000
    12ba:	d104      	bne.n	12c6 <__addsf3+0x126>
    12bc:	0040      	lsls	r0, r0, #1
    12be:	bf28      	it	cs
    12c0:	f040 4000 	orrcs.w	r0, r0, #2147483648	; 0x80000000
    12c4:	4770      	bx	lr
    12c6:	f112 7200 	adds.w	r2, r2, #33554432	; 0x2000000
    12ca:	bf3c      	itt	cc
    12cc:	f500 0000 	addcc.w	r0, r0, #8388608	; 0x800000
    12d0:	4770      	bxcc	lr
    12d2:	f000 4300 	and.w	r3, r0, #2147483648	; 0x80000000
    12d6:	f043 40fe 	orr.w	r0, r3, #2130706432	; 0x7f000000
    12da:	f440 0000 	orr.w	r0, r0, #8388608	; 0x800000
    12de:	4770      	bx	lr
    12e0:	ea7f 6222 	mvns.w	r2, r2, asr #24
    12e4:	bf16      	itet	ne
    12e6:	4608      	movne	r0, r1
    12e8:	ea7f 6323 	mvnseq.w	r3, r3, asr #24
    12ec:	4601      	movne	r1, r0
    12ee:	0242      	lsls	r2, r0, #9
    12f0:	bf06      	itte	eq
    12f2:	ea5f 2341 	movseq.w	r3, r1, lsl #9
    12f6:	ea90 0f01 	teqeq	r0, r1
    12fa:	f440 0080 	orrne.w	r0, r0, #4194304	; 0x400000
    12fe:	4770      	bx	lr

00001300 <__aeabi_ui2f>:
    1300:	f04f 0300 	mov.w	r3, #0
    1304:	e004      	b.n	1310 <__aeabi_i2f+0x8>
    1306:	bf00      	nop

00001308 <__aeabi_i2f>:
    1308:	f010 4300 	ands.w	r3, r0, #2147483648	; 0x80000000
    130c:	bf48      	it	mi
    130e:	4240      	negmi	r0, r0
    1310:	ea5f 0c00 	movs.w	ip, r0
    1314:	bf08      	it	eq
    1316:	4770      	bxeq	lr
    1318:	f043 4396 	orr.w	r3, r3, #1258291200	; 0x4b000000
    131c:	4601      	mov	r1, r0
    131e:	f04f 0000 	mov.w	r0, #0
    1322:	e01c      	b.n	135e <__aeabi_l2f+0x2a>

00001324 <__aeabi_ul2f>:
    1324:	ea50 0201 	orrs.w	r2, r0, r1
    1328:	bf08      	it	eq
    132a:	4770      	bxeq	lr
    132c:	f04f 0300 	mov.w	r3, #0
    1330:	e00a      	b.n	1348 <__aeabi_l2f+0x14>
    1332:	bf00      	nop

00001334 <__aeabi_l2f>:
    1334:	ea50 0201 	orrs.w	r2, r0, r1
    1338:	bf08      	it	eq
    133a:	4770      	bxeq	lr
    133c:	f011 4300 	ands.w	r3, r1, #2147483648	; 0x80000000
    1340:	d502      	bpl.n	1348 <__aeabi_l2f+0x14>
    1342:	4240      	negs	r0, r0
    1344:	eb61 0141 	sbc.w	r1, r1, r1, lsl #1
    1348:	ea5f 0c01 	movs.w	ip, r1
    134c:	bf02      	ittt	eq
    134e:	4684      	moveq	ip, r0
    1350:	4601      	moveq	r1, r0
    1352:	2000      	moveq	r0, #0
    1354:	f043 43b6 	orr.w	r3, r3, #1526726656	; 0x5b000000
    1358:	bf08      	it	eq
    135a:	f1a3 5380 	subeq.w	r3, r3, #268435456	; 0x10000000
    135e:	f5a3 0300 	sub.w	r3, r3, #8388608	; 0x800000
    1362:	fabc f28c 	clz	r2, ip
    1366:	3a08      	subs	r2, #8
    1368:	eba3 53c2 	sub.w	r3, r3, r2, lsl #23
    136c:	db10      	blt.n	1390 <__aeabi_l2f+0x5c>
    136e:	fa01 fc02 	lsl.w	ip, r1, r2
    1372:	4463      	add	r3, ip
    1374:	fa00 fc02 	lsl.w	ip, r0, r2
    1378:	f1c2 0220 	rsb	r2, r2, #32
    137c:	f1bc 4f00 	cmp.w	ip, #2147483648	; 0x80000000
    1380:	fa20 f202 	lsr.w	r2, r0, r2
    1384:	eb43 0002 	adc.w	r0, r3, r2
    1388:	bf08      	it	eq
    138a:	f020 0001 	biceq.w	r0, r0, #1
    138e:	4770      	bx	lr
    1390:	f102 0220 	add.w	r2, r2, #32
    1394:	fa01 fc02 	lsl.w	ip, r1, r2
    1398:	f1c2 0220 	rsb	r2, r2, #32
    139c:	ea50 004c 	orrs.w	r0, r0, ip, lsl #1
    13a0:	fa21 f202 	lsr.w	r2, r1, r2
    13a4:	eb43 0002 	adc.w	r0, r3, r2
    13a8:	bf08      	it	eq
    13aa:	ea20 70dc 	biceq.w	r0, r0, ip, lsr #31
    13ae:	4770      	bx	lr

000013b0 <__aeabi_fmul>:
    13b0:	f04f 0cff 	mov.w	ip, #255	; 0xff
    13b4:	ea1c 52d0 	ands.w	r2, ip, r0, lsr #23
    13b8:	bf1e      	ittt	ne
    13ba:	ea1c 53d1 	andsne.w	r3, ip, r1, lsr #23
    13be:	ea92 0f0c 	teqne	r2, ip
    13c2:	ea93 0f0c 	teqne	r3, ip
    13c6:	d06f      	beq.n	14a8 <__aeabi_fmul+0xf8>
    13c8:	441a      	add	r2, r3
    13ca:	ea80 0c01 	eor.w	ip, r0, r1
    13ce:	0240      	lsls	r0, r0, #9
    13d0:	bf18      	it	ne
    13d2:	ea5f 2141 	movsne.w	r1, r1, lsl #9
    13d6:	d01e      	beq.n	1416 <__aeabi_fmul+0x66>
    13d8:	f04f 6300 	mov.w	r3, #134217728	; 0x8000000
    13dc:	ea43 1050 	orr.w	r0, r3, r0, lsr #5
    13e0:	ea43 1151 	orr.w	r1, r3, r1, lsr #5
    13e4:	fba0 3101 	umull	r3, r1, r0, r1
    13e8:	f00c 4000 	and.w	r0, ip, #2147483648	; 0x80000000
    13ec:	f5b1 0f00 	cmp.w	r1, #8388608	; 0x800000
    13f0:	bf3e      	ittt	cc
    13f2:	0049      	lslcc	r1, r1, #1
    13f4:	ea41 71d3 	orrcc.w	r1, r1, r3, lsr #31
    13f8:	005b      	lslcc	r3, r3, #1
    13fa:	ea40 0001 	orr.w	r0, r0, r1
    13fe:	f162 027f 	sbc.w	r2, r2, #127	; 0x7f
    1402:	2afd      	cmp	r2, #253	; 0xfd
    1404:	d81d      	bhi.n	1442 <__aeabi_fmul+0x92>
    1406:	f1b3 4f00 	cmp.w	r3, #2147483648	; 0x80000000
    140a:	eb40 50c2 	adc.w	r0, r0, r2, lsl #23
    140e:	bf08      	it	eq
    1410:	f020 0001 	biceq.w	r0, r0, #1
    1414:	4770      	bx	lr
    1416:	f090 0f00 	teq	r0, #0
    141a:	f00c 4c00 	and.w	ip, ip, #2147483648	; 0x80000000
    141e:	bf08      	it	eq
    1420:	0249      	lsleq	r1, r1, #9
    1422:	ea4c 2050 	orr.w	r0, ip, r0, lsr #9
    1426:	ea40 2051 	orr.w	r0, r0, r1, lsr #9
    142a:	3a7f      	subs	r2, #127	; 0x7f
    142c:	bfc2      	ittt	gt
    142e:	f1d2 03ff 	rsbsgt	r3, r2, #255	; 0xff
    1432:	ea40 50c2 	orrgt.w	r0, r0, r2, lsl #23
    1436:	4770      	bxgt	lr
    1438:	f440 0000 	orr.w	r0, r0, #8388608	; 0x800000
    143c:	f04f 0300 	mov.w	r3, #0
    1440:	3a01      	subs	r2, #1
    1442:	dc5d      	bgt.n	1500 <__aeabi_fmul+0x150>
    1444:	f112 0f19 	cmn.w	r2, #25
    1448:	bfdc      	itt	le
    144a:	f000 4000 	andle.w	r0, r0, #2147483648	; 0x80000000
    144e:	4770      	bxle	lr
    1450:	f1c2 0200 	rsb	r2, r2, #0
    1454:	0041      	lsls	r1, r0, #1
    1456:	fa21 f102 	lsr.w	r1, r1, r2
    145a:	f1c2 0220 	rsb	r2, r2, #32
    145e:	fa00 fc02 	lsl.w	ip, r0, r2
    1462:	ea5f 0031 	movs.w	r0, r1, rrx
    1466:	f140 0000 	adc.w	r0, r0, #0
    146a:	ea53 034c 	orrs.w	r3, r3, ip, lsl #1
    146e:	bf08      	it	eq
    1470:	ea20 70dc 	biceq.w	r0, r0, ip, lsr #31
    1474:	4770      	bx	lr
    1476:	f092 0f00 	teq	r2, #0
    147a:	f000 4c00 	and.w	ip, r0, #2147483648	; 0x80000000
    147e:	bf02      	ittt	eq
    1480:	0040      	lsleq	r0, r0, #1
    1482:	f410 0f00 	tsteq.w	r0, #8388608	; 0x800000
    1486:	3a01      	subeq	r2, #1
    1488:	d0f9      	beq.n	147e <__aeabi_fmul+0xce>
    148a:	ea40 000c 	orr.w	r0, r0, ip
    148e:	f093 0f00 	teq	r3, #0
    1492:	f001 4c00 	and.w	ip, r1, #2147483648	; 0x80000000
    1496:	bf02      	ittt	eq
    1498:	0049      	lsleq	r1, r1, #1
    149a:	f411 0f00 	tsteq.w	r1, #8388608	; 0x800000
    149e:	3b01      	subeq	r3, #1
    14a0:	d0f9      	beq.n	1496 <__aeabi_fmul+0xe6>
    14a2:	ea41 010c 	orr.w	r1, r1, ip
    14a6:	e78f      	b.n	13c8 <__aeabi_fmul+0x18>
    14a8:	ea0c 53d1 	and.w	r3, ip, r1, lsr #23
    14ac:	ea92 0f0c 	teq	r2, ip
    14b0:	bf18      	it	ne
    14b2:	ea93 0f0c 	teqne	r3, ip
    14b6:	d00a      	beq.n	14ce <__aeabi_fmul+0x11e>
    14b8:	f030 4c00 	bics.w	ip, r0, #2147483648	; 0x80000000
    14bc:	bf18      	it	ne
    14be:	f031 4c00 	bicsne.w	ip, r1, #2147483648	; 0x80000000
    14c2:	d1d8      	bne.n	1476 <__aeabi_fmul+0xc6>
    14c4:	ea80 0001 	eor.w	r0, r0, r1
    14c8:	f000 4000 	and.w	r0, r0, #2147483648	; 0x80000000
    14cc:	4770      	bx	lr
    14ce:	f090 0f00 	teq	r0, #0
    14d2:	bf17      	itett	ne
    14d4:	f090 4f00 	teqne	r0, #2147483648	; 0x80000000
    14d8:	4608      	moveq	r0, r1
    14da:	f091 0f00 	teqne	r1, #0
    14de:	f091 4f00 	teqne	r1, #2147483648	; 0x80000000
    14e2:	d014      	beq.n	150e <__aeabi_fmul+0x15e>
    14e4:	ea92 0f0c 	teq	r2, ip
    14e8:	d101      	bne.n	14ee <__aeabi_fmul+0x13e>
    14ea:	0242      	lsls	r2, r0, #9
    14ec:	d10f      	bne.n	150e <__aeabi_fmul+0x15e>
    14ee:	ea93 0f0c 	teq	r3, ip
    14f2:	d103      	bne.n	14fc <__aeabi_fmul+0x14c>
    14f4:	024b      	lsls	r3, r1, #9
    14f6:	bf18      	it	ne
    14f8:	4608      	movne	r0, r1
    14fa:	d108      	bne.n	150e <__aeabi_fmul+0x15e>
    14fc:	ea80 0001 	eor.w	r0, r0, r1
    1500:	f000 4000 	and.w	r0, r0, #2147483648	; 0x80000000
    1504:	f040 40fe 	orr.w	r0, r0, #2130706432	; 0x7f000000
    1508:	f440 0000 	orr.w	r0, r0, #8388608	; 0x800000
    150c:	4770      	bx	lr
    150e:	f040 40fe 	orr.w	r0, r0, #2130706432	; 0x7f000000
    1512:	f440 0040 	orr.w	r0, r0, #12582912	; 0xc00000
    1516:	4770      	bx	lr

00001518 <__aeabi_fdiv>:
    1518:	f04f 0cff 	mov.w	ip, #255	; 0xff
    151c:	ea1c 52d0 	ands.w	r2, ip, r0, lsr #23
    1520:	bf1e      	ittt	ne
    1522:	ea1c 53d1 	andsne.w	r3, ip, r1, lsr #23
    1526:	ea92 0f0c 	teqne	r2, ip
    152a:	ea93 0f0c 	teqne	r3, ip
    152e:	d069      	beq.n	1604 <__aeabi_fdiv+0xec>
    1530:	eba2 0203 	sub.w	r2, r2, r3
    1534:	ea80 0c01 	eor.w	ip, r0, r1
    1538:	0249      	lsls	r1, r1, #9
    153a:	ea4f 2040 	mov.w	r0, r0, lsl #9
    153e:	d037      	beq.n	15b0 <__aeabi_fdiv+0x98>
    1540:	f04f 5380 	mov.w	r3, #268435456	; 0x10000000
    1544:	ea43 1111 	orr.w	r1, r3, r1, lsr #4
    1548:	ea43 1310 	orr.w	r3, r3, r0, lsr #4
    154c:	f00c 4000 	and.w	r0, ip, #2147483648	; 0x80000000
    1550:	428b      	cmp	r3, r1
    1552:	bf38      	it	cc
    1554:	005b      	lslcc	r3, r3, #1
    1556:	f142 027d 	adc.w	r2, r2, #125	; 0x7d
    155a:	f44f 0c00 	mov.w	ip, #8388608	; 0x800000
    155e:	428b      	cmp	r3, r1
    1560:	bf24      	itt	cs
    1562:	1a5b      	subcs	r3, r3, r1
    1564:	ea40 000c 	orrcs.w	r0, r0, ip
    1568:	ebb3 0f51 	cmp.w	r3, r1, lsr #1
    156c:	bf24      	itt	cs
    156e:	eba3 0351 	subcs.w	r3, r3, r1, lsr #1
    1572:	ea40 005c 	orrcs.w	r0, r0, ip, lsr #1
    1576:	ebb3 0f91 	cmp.w	r3, r1, lsr #2
    157a:	bf24      	itt	cs
    157c:	eba3 0391 	subcs.w	r3, r3, r1, lsr #2
    1580:	ea40 009c 	orrcs.w	r0, r0, ip, lsr #2
    1584:	ebb3 0fd1 	cmp.w	r3, r1, lsr #3
    1588:	bf24      	itt	cs
    158a:	eba3 03d1 	subcs.w	r3, r3, r1, lsr #3
    158e:	ea40 00dc 	orrcs.w	r0, r0, ip, lsr #3
    1592:	011b      	lsls	r3, r3, #4
    1594:	bf18      	it	ne
    1596:	ea5f 1c1c 	movsne.w	ip, ip, lsr #4
    159a:	d1e0      	bne.n	155e <__aeabi_fdiv+0x46>
    159c:	2afd      	cmp	r2, #253	; 0xfd
    159e:	f63f af50 	bhi.w	1442 <__aeabi_fmul+0x92>
    15a2:	428b      	cmp	r3, r1
    15a4:	eb40 50c2 	adc.w	r0, r0, r2, lsl #23
    15a8:	bf08      	it	eq
    15aa:	f020 0001 	biceq.w	r0, r0, #1
    15ae:	4770      	bx	lr
    15b0:	f00c 4c00 	and.w	ip, ip, #2147483648	; 0x80000000
    15b4:	ea4c 2050 	orr.w	r0, ip, r0, lsr #9
    15b8:	327f      	adds	r2, #127	; 0x7f
    15ba:	bfc2      	ittt	gt
    15bc:	f1d2 03ff 	rsbsgt	r3, r2, #255	; 0xff
    15c0:	ea40 50c2 	orrgt.w	r0, r0, r2, lsl #23
    15c4:	4770      	bxgt	lr
    15c6:	f440 0000 	orr.w	r0, r0, #8388608	; 0x800000
    15ca:	f04f 0300 	mov.w	r3, #0
    15ce:	3a01      	subs	r2, #1
    15d0:	e737      	b.n	1442 <__aeabi_fmul+0x92>
    15d2:	f092 0f00 	teq	r2, #0
    15d6:	f000 4c00 	and.w	ip, r0, #2147483648	; 0x80000000
    15da:	bf02      	ittt	eq
    15dc:	0040      	lsleq	r0, r0, #1
    15de:	f410 0f00 	tsteq.w	r0, #8388608	; 0x800000
    15e2:	3a01      	subeq	r2, #1
    15e4:	d0f9      	beq.n	15da <__aeabi_fdiv+0xc2>
    15e6:	ea40 000c 	orr.w	r0, r0, ip
    15ea:	f093 0f00 	teq	r3, #0
    15ee:	f001 4c00 	and.w	ip, r1, #2147483648	; 0x80000000
    15f2:	bf02      	ittt	eq
    15f4:	0049      	lsleq	r1, r1, #1
    15f6:	f411 0f00 	tsteq.w	r1, #8388608	; 0x800000
    15fa:	3b01      	subeq	r3, #1
    15fc:	d0f9      	beq.n	15f2 <__aeabi_fdiv+0xda>
    15fe:	ea41 010c 	orr.w	r1, r1, ip
    1602:	e795      	b.n	1530 <__aeabi_fdiv+0x18>
    1604:	ea0c 53d1 	and.w	r3, ip, r1, lsr #23
    1608:	ea92 0f0c 	teq	r2, ip
    160c:	d108      	bne.n	1620 <__aeabi_fdiv+0x108>
    160e:	0242      	lsls	r2, r0, #9
    1610:	f47f af7d 	bne.w	150e <__aeabi_fmul+0x15e>
    1614:	ea93 0f0c 	teq	r3, ip
    1618:	f47f af70 	bne.w	14fc <__aeabi_fmul+0x14c>
    161c:	4608      	mov	r0, r1
    161e:	e776      	b.n	150e <__aeabi_fmul+0x15e>
    1620:	ea93 0f0c 	teq	r3, ip
    1624:	d104      	bne.n	1630 <__aeabi_fdiv+0x118>
    1626:	024b      	lsls	r3, r1, #9
    1628:	f43f af4c 	beq.w	14c4 <__aeabi_fmul+0x114>
    162c:	4608      	mov	r0, r1
    162e:	e76e      	b.n	150e <__aeabi_fmul+0x15e>
    1630:	f030 4c00 	bics.w	ip, r0, #2147483648	; 0x80000000
    1634:	bf18      	it	ne
    1636:	f031 4c00 	bicsne.w	ip, r1, #2147483648	; 0x80000000
    163a:	d1ca      	bne.n	15d2 <__aeabi_fdiv+0xba>
    163c:	f030 4200 	bics.w	r2, r0, #2147483648	; 0x80000000
    1640:	f47f af5c 	bne.w	14fc <__aeabi_fmul+0x14c>
    1644:	f031 4300 	bics.w	r3, r1, #2147483648	; 0x80000000
    1648:	f47f af3c 	bne.w	14c4 <__aeabi_fmul+0x114>
    164c:	e75f      	b.n	150e <__aeabi_fmul+0x15e>
    164e:	bf00      	nop

00001650 <__gesf2>:
    1650:	f04f 3cff 	mov.w	ip, #4294967295
    1654:	e006      	b.n	1664 <__cmpsf2+0x4>
    1656:	bf00      	nop

00001658 <__lesf2>:
    1658:	f04f 0c01 	mov.w	ip, #1
    165c:	e002      	b.n	1664 <__cmpsf2+0x4>
    165e:	bf00      	nop

00001660 <__cmpsf2>:
    1660:	f04f 0c01 	mov.w	ip, #1
    1664:	f84d cd04 	str.w	ip, [sp, #-4]!
    1668:	ea4f 0240 	mov.w	r2, r0, lsl #1
    166c:	ea4f 0341 	mov.w	r3, r1, lsl #1
    1670:	ea7f 6c22 	mvns.w	ip, r2, asr #24
    1674:	bf18      	it	ne
    1676:	ea7f 6c23 	mvnsne.w	ip, r3, asr #24
    167a:	d011      	beq.n	16a0 <__cmpsf2+0x40>
    167c:	b001      	add	sp, #4
    167e:	ea52 0c53 	orrs.w	ip, r2, r3, lsr #1
    1682:	bf18      	it	ne
    1684:	ea90 0f01 	teqne	r0, r1
    1688:	bf58      	it	pl
    168a:	ebb2 0003 	subspl.w	r0, r2, r3
    168e:	bf88      	it	hi
    1690:	17c8      	asrhi	r0, r1, #31
    1692:	bf38      	it	cc
    1694:	ea6f 70e1 	mvncc.w	r0, r1, asr #31
    1698:	bf18      	it	ne
    169a:	f040 0001 	orrne.w	r0, r0, #1
    169e:	4770      	bx	lr
    16a0:	ea7f 6c22 	mvns.w	ip, r2, asr #24
    16a4:	d102      	bne.n	16ac <__cmpsf2+0x4c>
    16a6:	ea5f 2c40 	movs.w	ip, r0, lsl #9
    16aa:	d105      	bne.n	16b8 <__cmpsf2+0x58>
    16ac:	ea7f 6c23 	mvns.w	ip, r3, asr #24
    16b0:	d1e4      	bne.n	167c <__cmpsf2+0x1c>
    16b2:	ea5f 2c41 	movs.w	ip, r1, lsl #9
    16b6:	d0e1      	beq.n	167c <__cmpsf2+0x1c>
    16b8:	f85d 0b04 	ldr.w	r0, [sp], #4
    16bc:	4770      	bx	lr
    16be:	bf00      	nop

000016c0 <__aeabi_cfrcmple>:
    16c0:	4684      	mov	ip, r0
    16c2:	4608      	mov	r0, r1
    16c4:	4661      	mov	r1, ip
    16c6:	e7ff      	b.n	16c8 <__aeabi_cfcmpeq>

000016c8 <__aeabi_cfcmpeq>:
    16c8:	b50f      	push	{r0, r1, r2, r3, lr}
    16ca:	f7ff ffc9 	bl	1660 <__cmpsf2>
    16ce:	2800      	cmp	r0, #0
    16d0:	bf48      	it	mi
    16d2:	f110 0f00 	cmnmi.w	r0, #0
    16d6:	bd0f      	pop	{r0, r1, r2, r3, pc}

000016d8 <__aeabi_fcmpeq>:
    16d8:	f84d ed08 	str.w	lr, [sp, #-8]!
    16dc:	f7ff fff4 	bl	16c8 <__aeabi_cfcmpeq>
    16e0:	bf0c      	ite	eq
    16e2:	2001      	moveq	r0, #1
    16e4:	2000      	movne	r0, #0
    16e6:	f85d fb08 	ldr.w	pc, [sp], #8
    16ea:	bf00      	nop

000016ec <__aeabi_fcmplt>:
    16ec:	f84d ed08 	str.w	lr, [sp, #-8]!
    16f0:	f7ff ffea 	bl	16c8 <__aeabi_cfcmpeq>
    16f4:	bf34      	ite	cc
    16f6:	2001      	movcc	r0, #1
    16f8:	2000      	movcs	r0, #0
    16fa:	f85d fb08 	ldr.w	pc, [sp], #8
    16fe:	bf00      	nop

00001700 <__aeabi_fcmple>:
    1700:	f84d ed08 	str.w	lr, [sp, #-8]!
    1704:	f7ff ffe0 	bl	16c8 <__aeabi_cfcmpeq>
    1708:	bf94      	ite	ls
    170a:	2001      	movls	r0, #1
    170c:	2000      	movhi	r0, #0
    170e:	f85d fb08 	ldr.w	pc, [sp], #8
    1712:	bf00      	nop

00001714 <__aeabi_fcmpge>:
    1714:	f84d ed08 	str.w	lr, [sp, #-8]!
    1718:	f7ff ffd2 	bl	16c0 <__aeabi_cfrcmple>
    171c:	bf94      	ite	ls
    171e:	2001      	movls	r0, #1
    1720:	2000      	movhi	r0, #0
    1722:	f85d fb08 	ldr.w	pc, [sp], #8
    1726:	bf00      	nop

00001728 <__aeabi_fcmpgt>:
    1728:	f84d ed08 	str.w	lr, [sp, #-8]!
    172c:	f7ff ffc8 	bl	16c0 <__aeabi_cfrcmple>
    1730:	bf34      	ite	cc
    1732:	2001      	movcc	r0, #1
    1734:	2000      	movcs	r0, #0
    1736:	f85d fb08 	ldr.w	pc, [sp], #8
    173a:	bf00      	nop

0000173c <__aeabi_f2iz>:
    173c:	ea4f 0240 	mov.w	r2, r0, lsl #1
    1740:	f1b2 4ffe 	cmp.w	r2, #2130706432	; 0x7f000000
    1744:	d30f      	bcc.n	1766 <__aeabi_f2iz+0x2a>
    1746:	f04f 039e 	mov.w	r3, #158	; 0x9e
    174a:	ebb3 6212 	subs.w	r2, r3, r2, lsr #24
    174e:	d90d      	bls.n	176c <__aeabi_f2iz+0x30>
    1750:	ea4f 2300 	mov.w	r3, r0, lsl #8
    1754:	f043 4300 	orr.w	r3, r3, #2147483648	; 0x80000000
    1758:	f010 4f00 	tst.w	r0, #2147483648	; 0x80000000
    175c:	fa23 f002 	lsr.w	r0, r3, r2
    1760:	bf18      	it	ne
    1762:	4240      	negne	r0, r0
    1764:	4770      	bx	lr
    1766:	f04f 0000 	mov.w	r0, #0
    176a:	4770      	bx	lr
    176c:	f112 0f61 	cmn.w	r2, #97	; 0x61
    1770:	d101      	bne.n	1776 <__aeabi_f2iz+0x3a>
    1772:	0242      	lsls	r2, r0, #9
    1774:	d105      	bne.n	1782 <__aeabi_f2iz+0x46>
    1776:	f010 4000 	ands.w	r0, r0, #2147483648	; 0x80000000
    177a:	bf08      	it	eq
    177c:	f06f 4000 	mvneq.w	r0, #2147483648	; 0x80000000
    1780:	4770      	bx	lr
    1782:	f04f 0000 	mov.w	r0, #0
    1786:	4770      	bx	lr

00001788 <__aeabi_f2uiz>:
    1788:	0042      	lsls	r2, r0, #1
    178a:	d20e      	bcs.n	17aa <__aeabi_f2uiz+0x22>
    178c:	f1b2 4ffe 	cmp.w	r2, #2130706432	; 0x7f000000
    1790:	d30b      	bcc.n	17aa <__aeabi_f2uiz+0x22>
    1792:	f04f 039e 	mov.w	r3, #158	; 0x9e
    1796:	ebb3 6212 	subs.w	r2, r3, r2, lsr #24
    179a:	d409      	bmi.n	17b0 <__aeabi_f2uiz+0x28>
    179c:	ea4f 2300 	mov.w	r3, r0, lsl #8
    17a0:	f043 4300 	orr.w	r3, r3, #2147483648	; 0x80000000
    17a4:	fa23 f002 	lsr.w	r0, r3, r2
    17a8:	4770      	bx	lr
    17aa:	f04f 0000 	mov.w	r0, #0
    17ae:	4770      	bx	lr
    17b0:	f112 0f61 	cmn.w	r2, #97	; 0x61
    17b4:	d101      	bne.n	17ba <__aeabi_f2uiz+0x32>
    17b6:	0242      	lsls	r2, r0, #9
    17b8:	d102      	bne.n	17c0 <__aeabi_f2uiz+0x38>
    17ba:	f04f 30ff 	mov.w	r0, #4294967295
    17be:	4770      	bx	lr
    17c0:	f04f 0000 	mov.w	r0, #0
    17c4:	4770      	bx	lr
    17c6:	bf00      	nop

000017c8 <Default_Handler>:
 **  Default interrupt handler
 **===========================================================================
 */
void Default_Handler()

{
    17c8:	b480      	push	{r7}
    17ca:	af00      	add	r7, sp, #0
	__asm("bkpt");
    17cc:	be00      	bkpt	0x0000
}
    17ce:	46bd      	mov	sp, r7
    17d0:	bc80      	pop	{r7}
    17d2:	4770      	bx	lr

000017d4 <__init_hardware>:
 **===========================================================================
 **  Reset handler
 **===========================================================================
 */
void __init_hardware()
{
    17d4:	b480      	push	{r7}
    17d6:	af00      	add	r7, sp, #0
	SCB_VTOR = (uint32_t)__vector_table; /* Set the interrupt vector table position */
    17d8:	f04f 22e0 	mov.w	r2, #3758153728	; 0xe000e000
    17dc:	f240 0300 	movw	r3, #0
    17e0:	f2c0 0300 	movt	r3, #0
    17e4:	f8c2 3d08 	str.w	r3, [r2, #3336]	; 0xd08
	/*
		Disable the Watchdog because it may reset the core before entering main().
		There are 2 unlock words which shall be provided in sequence before
		accessing the control register.
	*/
	WDOG_UNLOCK = KINETIS_WDOG_UNLOCK_SEQ_1;
    17e8:	f44f 5300 	mov.w	r3, #8192	; 0x2000
    17ec:	f2c4 0305 	movt	r3, #16389	; 0x4005
    17f0:	f24c 5220 	movw	r2, #50464	; 0xc520
    17f4:	81da      	strh	r2, [r3, #14]
	WDOG_UNLOCK = KINETIS_WDOG_UNLOCK_SEQ_2;
    17f6:	f44f 5300 	mov.w	r3, #8192	; 0x2000
    17fa:	f2c4 0305 	movt	r3, #16389	; 0x4005
    17fe:	f64d 1228 	movw	r2, #55592	; 0xd928
    1802:	81da      	strh	r2, [r3, #14]
	WDOG_STCTRLH = KINETIS_WDOG_DISABLED_CTRL;
    1804:	f44f 5300 	mov.w	r3, #8192	; 0x2000
    1808:	f2c4 0305 	movt	r3, #16389	; 0x4005
    180c:	f04f 02d2 	mov.w	r2, #210	; 0xd2
    1810:	801a      	strh	r2, [r3, #0]
}
    1812:	46bd      	mov	sp, r7
    1814:	bc80      	pop	{r7}
    1816:	4770      	bx	lr

00001818 <zero_fill_bss>:



static void zero_fill_bss(void)

{
    1818:	b580      	push	{r7, lr}
    181a:	af00      	add	r7, sp, #0

	extern char __END_BSS[];



	memset(__START_BSS, 0, (__END_BSS - __START_BSS));
    181c:	f24e 1280 	movw	r2, #57728	; 0xe180
    1820:	f6c1 72ff 	movt	r2, #8191	; 0x1fff
    1824:	f24e 0330 	movw	r3, #57392	; 0xe030
    1828:	f6c1 73ff 	movt	r3, #8191	; 0x1fff
    182c:	1ad3      	subs	r3, r2, r3
    182e:	f24e 0030 	movw	r0, #57392	; 0xe030
    1832:	f6c1 70ff 	movt	r0, #8191	; 0x1fff
    1836:	f04f 0100 	mov.w	r1, #0
    183a:	461a      	mov	r2, r3
    183c:	f004 fa96 	bl	5d6c <memset>

}
    1840:	bd80      	pop	{r7, pc}
    1842:	bf00      	nop

00001844 <__thumb_startup>:

{

		// Setup registers

		__init_registers();
    1844:	f008 fa92 	bl	9d6c <__init_registers>



		// setup hardware

		__init_hardware();
    1848:	f7ff ffc4 	bl	17d4 <__init_hardware>

#endif

		//	zero-fill the .bss section

		zero_fill_bss();
    184c:	f7ff ffe4 	bl	1818 <zero_fill_bss>

#if SUPPORT_ROM_TO_RAM

		if (__S_romp != 0L)

			__copy_rom_sections_to_ram();
    1850:	f008 fa68 	bl	9d24 <__copy_rom_sections_to_ram>



		//	call C++ static initializers

		__call_static_initializers();
    1854:	f008 fa04 	bl	9c60 <__init_cpp>



		// initializations before main, user specific

		__init_user();
    1858:	f008 fa9a 	bl	9d90 <__init_user>

		exit(main(__argc_argv(__MAX_CMDLINE_ARGS, argv), argv));

#else

		exit(main(0, argv));
    185c:	f04f 0000 	mov.w	r0, #0
    1860:	f24e 0130 	movw	r1, #57392	; 0xe030
    1864:	f6c1 71ff 	movt	r1, #8191	; 0x1fff
    1868:	f004 f918 	bl	5a9c <main>
    186c:	4603      	mov	r3, r0
    186e:	4618      	mov	r0, r3
    1870:	f004 fa60 	bl	5d34 <exit>

00001874 <_ExitProcess>:

extern void _ExitProcess(int status) _EWL_WEAK;

extern void _ExitProcess(int status)

{
    1874:	b480      	push	{r7}
    1876:	b083      	sub	sp, #12
    1878:	af00      	add	r7, sp, #0
    187a:	6078      	str	r0, [r7, #4]

	sys_exit(status);

#endif

	while (1);
    187c:	e7fe      	b.n	187c <_ExitProcess+0x8>
    187e:	bf00      	nop

00001880 <mult32x64>:
   */

  static __INLINE q63_t mult32x64(
  q63_t x,
  q31_t y)
  {
    1880:	e92d 03f0 	stmdb	sp!, {r4, r5, r6, r7, r8, r9}
    1884:	b084      	sub	sp, #16
    1886:	af00      	add	r7, sp, #0
    1888:	e9c7 0102 	strd	r0, r1, [r7, #8]
    188c:	607a      	str	r2, [r7, #4]
    return ((((q63_t) (x & 0x00000000FFFFFFFF) * y) >> 32) +
    188e:	e9d7 0102 	ldrd	r0, r1, [r7, #8]
    1892:	f04f 32ff 	mov.w	r2, #4294967295
    1896:	f04f 0300 	mov.w	r3, #0
    189a:	ea00 0002 	and.w	r0, r0, r2
    189e:	ea01 0103 	and.w	r1, r1, r3
    18a2:	687e      	ldr	r6, [r7, #4]
    18a4:	4632      	mov	r2, r6
    18a6:	ea4f 73e2 	mov.w	r3, r2, asr #31
    18aa:	fb02 fc01 	mul.w	ip, r2, r1
    18ae:	fb00 f603 	mul.w	r6, r0, r3
    18b2:	4466      	add	r6, ip
    18b4:	fba0 2302 	umull	r2, r3, r0, r2
    18b8:	18f1      	adds	r1, r6, r3
    18ba:	460b      	mov	r3, r1
    18bc:	4698      	mov	r8, r3
    18be:	ea4f 79e3 	mov.w	r9, r3, asr #31
            (((q63_t) (x >> 32) * y)));
    18c2:	68fb      	ldr	r3, [r7, #12]
    18c4:	461c      	mov	r4, r3
    18c6:	68fb      	ldr	r3, [r7, #12]
    18c8:	ea4f 75e3 	mov.w	r5, r3, asr #31
    18cc:	6879      	ldr	r1, [r7, #4]
    18ce:	460a      	mov	r2, r1
    18d0:	ea4f 73e2 	mov.w	r3, r2, asr #31
    18d4:	fb02 f005 	mul.w	r0, r2, r5
    18d8:	fb04 f103 	mul.w	r1, r4, r3
    18dc:	1841      	adds	r1, r0, r1
    18de:	fba4 2302 	umull	r2, r3, r4, r2
    18e2:	18c9      	adds	r1, r1, r3
    18e4:	460b      	mov	r3, r1

  static __INLINE q63_t mult32x64(
  q63_t x,
  q31_t y)
  {
    return ((((q63_t) (x & 0x00000000FFFFFFFF) * y) >> 32) +
    18e6:	eb12 0208 	adds.w	r2, r2, r8
    18ea:	eb43 0309 	adc.w	r3, r3, r9
            (((q63_t) (x >> 32) * y)));
  }
    18ee:	4610      	mov	r0, r2
    18f0:	4619      	mov	r1, r3
    18f2:	f107 0710 	add.w	r7, r7, #16
    18f6:	46bd      	mov	sp, r7
    18f8:	e8bd 03f0 	ldmia.w	sp!, {r4, r5, r6, r7, r8, r9}
    18fc:	4770      	bx	lr
    18fe:	bf00      	nop

00001900 <Init_q31_t_IIR>:




void Init_q31_t_IIR(q31_t_IIR *MyIIR)
{
    1900:	b480      	push	{r7}
    1902:	b083      	sub	sp, #12
    1904:	af00      	add	r7, sp, #0
    1906:	6078      	str	r0, [r7, #4]
    MyIIR->Update = 0;
    1908:	687b      	ldr	r3, [r7, #4]
    190a:	f04f 0200 	mov.w	r2, #0
    190e:	f883 2048 	strb.w	r2, [r3, #72]	; 0x48
    MyIIR->State.Yn1 = 0;
    1912:	6879      	ldr	r1, [r7, #4]
    1914:	f04f 0200 	mov.w	r2, #0
    1918:	f04f 0300 	mov.w	r3, #0
    191c:	e9c1 2308 	strd	r2, r3, [r1, #32]
    MyIIR->State.Yn2 = 0;
    1920:	6879      	ldr	r1, [r7, #4]
    1922:	f04f 0200 	mov.w	r2, #0
    1926:	f04f 0300 	mov.w	r3, #0
    192a:	e9c1 230a 	strd	r2, r3, [r1, #40]	; 0x28
}
    192e:	f107 070c 	add.w	r7, r7, #12
    1932:	46bd      	mov	sp, r7
    1934:	bc80      	pop	{r7}
    1936:	4770      	bx	lr

00001938 <Compute_q31_t_IIR>:

void Compute_q31_t_IIR(q31_t_IIR *MyIIR,q31_t Input,q31_t *Output)
{
    1938:	b5f0      	push	{r4, r5, r6, r7, lr}
    193a:	b087      	sub	sp, #28
    193c:	af00      	add	r7, sp, #0
    193e:	60f8      	str	r0, [r7, #12]
    1940:	60b9      	str	r1, [r7, #8]
    1942:	607a      	str	r2, [r7, #4]
    q63_t acc = 0;
    1944:	f04f 0200 	mov.w	r2, #0
    1948:	f04f 0300 	mov.w	r3, #0
    194c:	e9c7 2304 	strd	r2, r3, [r7, #16]
    /* acc =  b0 * x[n] + b1 * x[n-1] + b2 * x[n-2] + a1 * y[n-1] + a2 * y[n-2] */
    /* acc =  b0 * x[n] */
    acc = (q63_t) Input * MyIIR->Coef.b[0];
    1950:	68bb      	ldr	r3, [r7, #8]
    1952:	4618      	mov	r0, r3
    1954:	ea4f 71e0 	mov.w	r1, r0, asr #31
    1958:	68fb      	ldr	r3, [r7, #12]
    195a:	681e      	ldr	r6, [r3, #0]
    195c:	4632      	mov	r2, r6
    195e:	ea4f 73e2 	mov.w	r3, r2, asr #31
    1962:	fb02 fe01 	mul.w	lr, r2, r1
    1966:	fb00 f603 	mul.w	r6, r0, r3
    196a:	4476      	add	r6, lr
    196c:	fba0 2302 	umull	r2, r3, r0, r2
    1970:	18f1      	adds	r1, r6, r3
    1972:	460b      	mov	r3, r1
    1974:	e9c7 2304 	strd	r2, r3, [r7, #16]
    1978:	e9c7 2304 	strd	r2, r3, [r7, #16]
    /* acc +=  b1 * x[n-1] */
    acc += (q63_t) MyIIR->State.Xn1 * MyIIR->Coef.b[1];
    197c:	68fb      	ldr	r3, [r7, #12]
    197e:	699b      	ldr	r3, [r3, #24]
    1980:	4618      	mov	r0, r3
    1982:	ea4f 71e0 	mov.w	r1, r0, asr #31
    1986:	68fb      	ldr	r3, [r7, #12]
    1988:	685e      	ldr	r6, [r3, #4]
    198a:	4632      	mov	r2, r6
    198c:	ea4f 73e2 	mov.w	r3, r2, asr #31
    1990:	fb02 fe01 	mul.w	lr, r2, r1
    1994:	fb00 f603 	mul.w	r6, r0, r3
    1998:	4476      	add	r6, lr
    199a:	fba0 2302 	umull	r2, r3, r0, r2
    199e:	18f1      	adds	r1, r6, r3
    19a0:	460b      	mov	r3, r1
    19a2:	e9d7 0104 	ldrd	r0, r1, [r7, #16]
    19a6:	1812      	adds	r2, r2, r0
    19a8:	eb43 0301 	adc.w	r3, r3, r1
    19ac:	e9c7 2304 	strd	r2, r3, [r7, #16]
    /* Arc +=  b[2] * x[n-2] */
    acc += (q63_t) MyIIR->State.Xn2 * MyIIR->Coef.b[2];
    19b0:	68fb      	ldr	r3, [r7, #12]
    19b2:	69db      	ldr	r3, [r3, #28]
    19b4:	4618      	mov	r0, r3
    19b6:	ea4f 71e0 	mov.w	r1, r0, asr #31
    19ba:	68fb      	ldr	r3, [r7, #12]
    19bc:	689e      	ldr	r6, [r3, #8]
    19be:	4632      	mov	r2, r6
    19c0:	ea4f 73e2 	mov.w	r3, r2, asr #31
    19c4:	fb02 fe01 	mul.w	lr, r2, r1
    19c8:	fb00 f603 	mul.w	r6, r0, r3
    19cc:	4476      	add	r6, lr
    19ce:	fba0 2302 	umull	r2, r3, r0, r2
    19d2:	18f1      	adds	r1, r6, r3
    19d4:	460b      	mov	r3, r1
    19d6:	e9d7 0104 	ldrd	r0, r1, [r7, #16]
    19da:	1812      	adds	r2, r2, r0
    19dc:	eb43 0301 	adc.w	r3, r3, r1
    19e0:	e9c7 2304 	strd	r2, r3, [r7, #16]
    /* acc +=  a1 * y[n-1] */
    acc += mult32x64(MyIIR->State.Yn1 , MyIIR->Coef.a[0]);
    19e4:	68fb      	ldr	r3, [r7, #12]
    19e6:	e9d3 2308 	ldrd	r2, r3, [r3, #32]
    19ea:	68f9      	ldr	r1, [r7, #12]
    19ec:	68ce      	ldr	r6, [r1, #12]
    19ee:	4610      	mov	r0, r2
    19f0:	4619      	mov	r1, r3
    19f2:	4632      	mov	r2, r6
    19f4:	f7ff ff44 	bl	1880 <mult32x64>
    19f8:	4602      	mov	r2, r0
    19fa:	460b      	mov	r3, r1
    19fc:	e9d7 0104 	ldrd	r0, r1, [r7, #16]
    1a00:	1812      	adds	r2, r2, r0
    1a02:	eb43 0301 	adc.w	r3, r3, r1
    1a06:	e9c7 2304 	strd	r2, r3, [r7, #16]
    /* acc +=  a2 * y[n-2] */
    acc += mult32x64(MyIIR->State.Yn2 , MyIIR->Coef.a[1]);
    1a0a:	68fb      	ldr	r3, [r7, #12]
    1a0c:	e9d3 230a 	ldrd	r2, r3, [r3, #40]	; 0x28
    1a10:	68f9      	ldr	r1, [r7, #12]
    1a12:	690e      	ldr	r6, [r1, #16]
    1a14:	4610      	mov	r0, r2
    1a16:	4619      	mov	r1, r3
    1a18:	4632      	mov	r2, r6
    1a1a:	f7ff ff31 	bl	1880 <mult32x64>
    1a1e:	4602      	mov	r2, r0
    1a20:	460b      	mov	r3, r1
    1a22:	e9d7 0104 	ldrd	r0, r1, [r7, #16]
    1a26:	1812      	adds	r2, r2, r0
    1a28:	eb43 0301 	adc.w	r3, r3, r1
    1a2c:	e9c7 2304 	strd	r2, r3, [r7, #16]
    acc = acc << MyIIR->Coef.PostShift; //DO the post multiply!
    1a30:	68fb      	ldr	r3, [r7, #12]
    1a32:	7d1b      	ldrb	r3, [r3, #20]
    1a34:	b25b      	sxtb	r3, r3
    1a36:	f1a3 0220 	sub.w	r2, r3, #32
    1a3a:	6939      	ldr	r1, [r7, #16]
    1a3c:	fa01 f102 	lsl.w	r1, r1, r2
    1a40:	f1c3 0020 	rsb	r0, r3, #32
    1a44:	693e      	ldr	r6, [r7, #16]
    1a46:	fa26 f000 	lsr.w	r0, r6, r0
    1a4a:	697e      	ldr	r6, [r7, #20]
    1a4c:	fa06 f603 	lsl.w	r6, r6, r3
    1a50:	4330      	orrs	r0, r6
    1a52:	6178      	str	r0, [r7, #20]
    1a54:	6978      	ldr	r0, [r7, #20]
    1a56:	2a00      	cmp	r2, #0
    1a58:	bfb4      	ite	lt
    1a5a:	4602      	movlt	r2, r0
    1a5c:	460a      	movge	r2, r1
    1a5e:	617a      	str	r2, [r7, #20]
    1a60:	693a      	ldr	r2, [r7, #16]
    1a62:	fa02 f303 	lsl.w	r3, r2, r3
    1a66:	613b      	str	r3, [r7, #16]
    //Store the previous outputs in High precision form
    MyIIR->State.Yn2 =  MyIIR->State.Yn1;
    1a68:	68fb      	ldr	r3, [r7, #12]
    1a6a:	e9d3 2308 	ldrd	r2, r3, [r3, #32]
    1a6e:	68f9      	ldr	r1, [r7, #12]
    1a70:	e9c1 230a 	strd	r2, r3, [r1, #40]	; 0x28
    MyIIR->State.Yn1 =  acc;
    1a74:	68f9      	ldr	r1, [r7, #12]
    1a76:	e9d7 2304 	ldrd	r2, r3, [r7, #16]
    1a7a:	e9c1 2308 	strd	r2, r3, [r1, #32]
    MyIIR->State.Xn2 =  MyIIR->State.Xn1;
    1a7e:	68fb      	ldr	r3, [r7, #12]
    1a80:	699a      	ldr	r2, [r3, #24]
    1a82:	68fb      	ldr	r3, [r7, #12]
    1a84:	61da      	str	r2, [r3, #28]
    MyIIR->State.Xn1 =  Input;
    1a86:	68fb      	ldr	r3, [r7, #12]
    1a88:	68ba      	ldr	r2, [r7, #8]
    1a8a:	619a      	str	r2, [r3, #24]
    *Output = acc>>31;
    1a8c:	697b      	ldr	r3, [r7, #20]
    1a8e:	ea4f 0343 	mov.w	r3, r3, lsl #1
    1a92:	693a      	ldr	r2, [r7, #16]
    1a94:	ea4f 74d2 	mov.w	r4, r2, lsr #31
    1a98:	431c      	orrs	r4, r3
    1a9a:	697b      	ldr	r3, [r7, #20]
    1a9c:	ea4f 75e3 	mov.w	r5, r3, asr #31
    1aa0:	4622      	mov	r2, r4
    1aa2:	687b      	ldr	r3, [r7, #4]
    1aa4:	601a      	str	r2, [r3, #0]
}
    1aa6:	f107 071c 	add.w	r7, r7, #28
    1aaa:	46bd      	mov	sp, r7
    1aac:	bdf0      	pop	{r4, r5, r6, r7, pc}
    1aae:	bf00      	nop

00001ab0 <DesignAudioBiquadIIR_q31_t>:
                                // the classic EE Q.  That adjustment in definition was made so that
                                // a boost of N dB followed by a cut of N dB for identical Q and
                                // f0/Fs results in a precisely flat unity gain filter or "wire".)*/
                                float dBgain// (used only for peaking and shelving filters)
                               )
{
    1ab0:	e92d 4fb0 	stmdb	sp!, {r4, r5, r7, r8, r9, sl, fp, lr}
    1ab4:	b088      	sub	sp, #32
    1ab6:	af00      	add	r7, sp, #0
    1ab8:	61f8      	str	r0, [r7, #28]
    1aba:	617a      	str	r2, [r7, #20]
    1abc:	613b      	str	r3, [r7, #16]
    1abe:	460b      	mov	r3, r1
    1ac0:	76fb      	strb	r3, [r7, #27]
    A = sqrt(pow(10,(dBgain/40)));
    1ac2:	6c78      	ldr	r0, [r7, #68]	; 0x44
    1ac4:	f04f 0100 	mov.w	r1, #0
    1ac8:	f2c4 2120 	movt	r1, #16928	; 0x4220
    1acc:	f7ff fd24 	bl	1518 <__aeabi_fdiv>
    1ad0:	4603      	mov	r3, r0
    1ad2:	4618      	mov	r0, r3
    1ad4:	f7fe fff8 	bl	ac8 <__aeabi_f2d>
    1ad8:	4602      	mov	r2, r0
    1ada:	460b      	mov	r3, r1
    1adc:	f04f 0000 	mov.w	r0, #0
    1ae0:	f04f 0100 	mov.w	r1, #0
    1ae4:	f2c4 0124 	movt	r1, #16420	; 0x4024
    1ae8:	f006 fa0c 	bl	7f04 <pow>
    1aec:	4602      	mov	r2, r0
    1aee:	460b      	mov	r3, r1
    1af0:	4610      	mov	r0, r2
    1af2:	4619      	mov	r1, r3
    1af4:	f006 fa08 	bl	7f08 <sqrt>
    1af8:	f24e 0360 	movw	r3, #57440	; 0xe060
    1afc:	f6c1 73ff 	movt	r3, #8191	; 0x1fff
    1b00:	e9c3 0100 	strd	r0, r1, [r3]

    if(Fs == 0) Fs = 1000;
    1b04:	6978      	ldr	r0, [r7, #20]
    1b06:	f04f 0100 	mov.w	r1, #0
    1b0a:	f7ff fde5 	bl	16d8 <__aeabi_fcmpeq>
    1b0e:	4603      	mov	r3, r0
    1b10:	2b00      	cmp	r3, #0
    1b12:	d004      	beq.n	1b1e <DesignAudioBiquadIIR_q31_t+0x6e>
    1b14:	f04f 0300 	mov.w	r3, #0
    1b18:	f2c4 437a 	movt	r3, #17530	; 0x447a
    1b1c:	617b      	str	r3, [r7, #20]

    if(Q == 0) Q = 1.0;
    1b1e:	6c38      	ldr	r0, [r7, #64]	; 0x40
    1b20:	f04f 0100 	mov.w	r1, #0
    1b24:	f7ff fdd8 	bl	16d8 <__aeabi_fcmpeq>
    1b28:	4603      	mov	r3, r0
    1b2a:	2b00      	cmp	r3, #0
    1b2c:	d002      	beq.n	1b34 <DesignAudioBiquadIIR_q31_t+0x84>
    1b2e:	f04f 537e 	mov.w	r3, #1065353216	; 0x3f800000
    1b32:	643b      	str	r3, [r7, #64]	; 0x40

    w0 = 2.0*3.141592654*f0/Fs;
    1b34:	6938      	ldr	r0, [r7, #16]
    1b36:	f7fe ffc7 	bl	ac8 <__aeabi_f2d>
    1b3a:	4602      	mov	r2, r0
    1b3c:	460b      	mov	r3, r1
    1b3e:	4610      	mov	r0, r2
    1b40:	4619      	mov	r1, r3
    1b42:	a38d      	add	r3, pc, #564	; (adr r3, 1d78 <DesignAudioBiquadIIR_q31_t+0x2c8>)
    1b44:	e9d3 2300 	ldrd	r2, r3, [r3]
    1b48:	f7ff f812 	bl	b70 <__aeabi_dmul>
    1b4c:	4602      	mov	r2, r0
    1b4e:	460b      	mov	r3, r1
    1b50:	4614      	mov	r4, r2
    1b52:	461d      	mov	r5, r3
    1b54:	6978      	ldr	r0, [r7, #20]
    1b56:	f7fe ffb7 	bl	ac8 <__aeabi_f2d>
    1b5a:	4602      	mov	r2, r0
    1b5c:	460b      	mov	r3, r1
    1b5e:	4620      	mov	r0, r4
    1b60:	4629      	mov	r1, r5
    1b62:	f7ff f92f 	bl	dc4 <__aeabi_ddiv>
    1b66:	4602      	mov	r2, r0
    1b68:	460b      	mov	r3, r1
    1b6a:	4610      	mov	r0, r2
    1b6c:	4619      	mov	r1, r3
    1b6e:	f24e 0368 	movw	r3, #57448	; 0xe068
    1b72:	f6c1 73ff 	movt	r3, #8191	; 0x1fff
    1b76:	e9c3 0100 	strd	r0, r1, [r3]
    alpha = sin(w0)/(2.0 * Q);
    1b7a:	f24e 0368 	movw	r3, #57448	; 0xe068
    1b7e:	f6c1 73ff 	movt	r3, #8191	; 0x1fff
    1b82:	e9d3 2300 	ldrd	r2, r3, [r3]
    1b86:	4610      	mov	r0, r2
    1b88:	4619      	mov	r1, r3
    1b8a:	f006 f973 	bl	7e74 <sin>
    1b8e:	4604      	mov	r4, r0
    1b90:	460d      	mov	r5, r1
    1b92:	6c38      	ldr	r0, [r7, #64]	; 0x40
    1b94:	f7fe ff98 	bl	ac8 <__aeabi_f2d>
    1b98:	4602      	mov	r2, r0
    1b9a:	460b      	mov	r3, r1
    1b9c:	4610      	mov	r0, r2
    1b9e:	4619      	mov	r1, r3
    1ba0:	f7fe fe34 	bl	80c <__adddf3>
    1ba4:	4602      	mov	r2, r0
    1ba6:	460b      	mov	r3, r1
    1ba8:	4620      	mov	r0, r4
    1baa:	4629      	mov	r1, r5
    1bac:	f7ff f90a 	bl	dc4 <__aeabi_ddiv>
    1bb0:	4602      	mov	r2, r0
    1bb2:	460b      	mov	r3, r1
    1bb4:	4610      	mov	r0, r2
    1bb6:	4619      	mov	r1, r3
    1bb8:	f24e 03a0 	movw	r3, #57504	; 0xe0a0
    1bbc:	f6c1 73ff 	movt	r3, #8191	; 0x1fff
    1bc0:	e9c3 0100 	strd	r0, r1, [r3]

    switch(FilterType)
    1bc4:	7efb      	ldrb	r3, [r7, #27]
    1bc6:	f103 33ff 	add.w	r3, r3, #4294967295
    1bca:	2b07      	cmp	r3, #7
    1bcc:	d812      	bhi.n	1bf4 <DesignAudioBiquadIIR_q31_t+0x144>
    1bce:	a001      	add	r0, pc, #4	; (adr r0, 1bd4 <DesignAudioBiquadIIR_q31_t+0x124>)
    1bd0:	f850 f023 	ldr.w	pc, [r0, r3, lsl #2]
    1bd4:	00001d81 	.word	0x00001d81
    1bd8:	00001f0f 	.word	0x00001f0f
    1bdc:	00002021 	.word	0x00002021
    1be0:	0000210f 	.word	0x0000210f
    1be4:	0000221f 	.word	0x0000221f
    1be8:	00002363 	.word	0x00002363
    1bec:	000024f7 	.word	0x000024f7
    1bf0:	000029f5 	.word	0x000029f5
        {
            default:
            case BIQUAD_LOW_PASS_FILTER	:
                b0 =  (1 - cos(w0))/2;
    1bf4:	f24e 0368 	movw	r3, #57448	; 0xe068
    1bf8:	f6c1 73ff 	movt	r3, #8191	; 0x1fff
    1bfc:	e9d3 2300 	ldrd	r2, r3, [r3]
    1c00:	4610      	mov	r0, r2
    1c02:	4619      	mov	r1, r3
    1c04:	f006 f8b6 	bl	7d74 <cos>
    1c08:	4602      	mov	r2, r0
    1c0a:	460b      	mov	r3, r1
    1c0c:	f04f 0000 	mov.w	r0, #0
    1c10:	f04f 0100 	mov.w	r1, #0
    1c14:	f6c3 71f0 	movt	r1, #16368	; 0x3ff0
    1c18:	f7fe fdf6 	bl	808 <__aeabi_dsub>
    1c1c:	4602      	mov	r2, r0
    1c1e:	460b      	mov	r3, r1
    1c20:	4610      	mov	r0, r2
    1c22:	4619      	mov	r1, r3
    1c24:	f04f 0200 	mov.w	r2, #0
    1c28:	f04f 4380 	mov.w	r3, #1073741824	; 0x40000000
    1c2c:	f7ff f8ca 	bl	dc4 <__aeabi_ddiv>
    1c30:	4602      	mov	r2, r0
    1c32:	460b      	mov	r3, r1
    1c34:	4610      	mov	r0, r2
    1c36:	4619      	mov	r1, r3
    1c38:	f24e 0370 	movw	r3, #57456	; 0xe070
    1c3c:	f6c1 73ff 	movt	r3, #8191	; 0x1fff
    1c40:	e9c3 0106 	strd	r0, r1, [r3, #24]
                b1 =   1 - cos(w0);
    1c44:	f24e 0368 	movw	r3, #57448	; 0xe068
    1c48:	f6c1 73ff 	movt	r3, #8191	; 0x1fff
    1c4c:	e9d3 2300 	ldrd	r2, r3, [r3]
    1c50:	4610      	mov	r0, r2
    1c52:	4619      	mov	r1, r3
    1c54:	f006 f88e 	bl	7d74 <cos>
    1c58:	4602      	mov	r2, r0
    1c5a:	460b      	mov	r3, r1
    1c5c:	f04f 0000 	mov.w	r0, #0
    1c60:	f04f 0100 	mov.w	r1, #0
    1c64:	f6c3 71f0 	movt	r1, #16368	; 0x3ff0
    1c68:	f7fe fdce 	bl	808 <__aeabi_dsub>
    1c6c:	4602      	mov	r2, r0
    1c6e:	460b      	mov	r3, r1
    1c70:	4610      	mov	r0, r2
    1c72:	4619      	mov	r1, r3
    1c74:	f24e 0370 	movw	r3, #57456	; 0xe070
    1c78:	f6c1 73ff 	movt	r3, #8191	; 0x1fff
    1c7c:	e9c3 0108 	strd	r0, r1, [r3, #32]
                b2 =  (1 - cos(w0))/2;
    1c80:	f24e 0368 	movw	r3, #57448	; 0xe068
    1c84:	f6c1 73ff 	movt	r3, #8191	; 0x1fff
    1c88:	e9d3 2300 	ldrd	r2, r3, [r3]
    1c8c:	4610      	mov	r0, r2
    1c8e:	4619      	mov	r1, r3
    1c90:	f006 f870 	bl	7d74 <cos>
    1c94:	4602      	mov	r2, r0
    1c96:	460b      	mov	r3, r1
    1c98:	f04f 0000 	mov.w	r0, #0
    1c9c:	f04f 0100 	mov.w	r1, #0
    1ca0:	f6c3 71f0 	movt	r1, #16368	; 0x3ff0
    1ca4:	f7fe fdb0 	bl	808 <__aeabi_dsub>
    1ca8:	4602      	mov	r2, r0
    1caa:	460b      	mov	r3, r1
    1cac:	4610      	mov	r0, r2
    1cae:	4619      	mov	r1, r3
    1cb0:	f04f 0200 	mov.w	r2, #0
    1cb4:	f04f 4380 	mov.w	r3, #1073741824	; 0x40000000
    1cb8:	f7ff f884 	bl	dc4 <__aeabi_ddiv>
    1cbc:	4602      	mov	r2, r0
    1cbe:	460b      	mov	r3, r1
    1cc0:	4610      	mov	r0, r2
    1cc2:	4619      	mov	r1, r3
    1cc4:	f24e 0370 	movw	r3, #57456	; 0xe070
    1cc8:	f6c1 73ff 	movt	r3, #8191	; 0x1fff
    1ccc:	e9c3 010a 	strd	r0, r1, [r3, #40]	; 0x28
                a0 =   1 + alpha;
    1cd0:	f24e 03a0 	movw	r3, #57504	; 0xe0a0
    1cd4:	f6c1 73ff 	movt	r3, #8191	; 0x1fff
    1cd8:	e9d3 2300 	ldrd	r2, r3, [r3]
    1cdc:	4610      	mov	r0, r2
    1cde:	4619      	mov	r1, r3
    1ce0:	f04f 0200 	mov.w	r2, #0
    1ce4:	f04f 0300 	mov.w	r3, #0
    1ce8:	f6c3 73f0 	movt	r3, #16368	; 0x3ff0
    1cec:	f7fe fd8e 	bl	80c <__adddf3>
    1cf0:	4602      	mov	r2, r0
    1cf2:	460b      	mov	r3, r1
    1cf4:	4610      	mov	r0, r2
    1cf6:	4619      	mov	r1, r3
    1cf8:	f24e 0370 	movw	r3, #57456	; 0xe070
    1cfc:	f6c1 73ff 	movt	r3, #8191	; 0x1fff
    1d00:	e9c3 0100 	strd	r0, r1, [r3]
                a1 =  -2*cos(w0);
    1d04:	f24e 0368 	movw	r3, #57448	; 0xe068
    1d08:	f6c1 73ff 	movt	r3, #8191	; 0x1fff
    1d0c:	e9d3 2300 	ldrd	r2, r3, [r3]
    1d10:	4610      	mov	r0, r2
    1d12:	4619      	mov	r1, r3
    1d14:	f006 f82e 	bl	7d74 <cos>
    1d18:	4602      	mov	r2, r0
    1d1a:	460b      	mov	r3, r1
    1d1c:	4610      	mov	r0, r2
    1d1e:	4619      	mov	r1, r3
    1d20:	f04f 0200 	mov.w	r2, #0
    1d24:	f04f 4340 	mov.w	r3, #3221225472	; 0xc0000000
    1d28:	f7fe ff22 	bl	b70 <__aeabi_dmul>
    1d2c:	4602      	mov	r2, r0
    1d2e:	460b      	mov	r3, r1
    1d30:	4610      	mov	r0, r2
    1d32:	4619      	mov	r1, r3
    1d34:	f24e 0370 	movw	r3, #57456	; 0xe070
    1d38:	f6c1 73ff 	movt	r3, #8191	; 0x1fff
    1d3c:	e9c3 0102 	strd	r0, r1, [r3, #8]
                a2 =   1 - alpha;
    1d40:	f24e 03a0 	movw	r3, #57504	; 0xe0a0
    1d44:	f6c1 73ff 	movt	r3, #8191	; 0x1fff
    1d48:	e9d3 2300 	ldrd	r2, r3, [r3]
    1d4c:	f04f 0000 	mov.w	r0, #0
    1d50:	f04f 0100 	mov.w	r1, #0
    1d54:	f6c3 71f0 	movt	r1, #16368	; 0x3ff0
    1d58:	f7fe fd56 	bl	808 <__aeabi_dsub>
    1d5c:	4602      	mov	r2, r0
    1d5e:	460b      	mov	r3, r1
    1d60:	4610      	mov	r0, r2
    1d62:	4619      	mov	r1, r3
    1d64:	f24e 0370 	movw	r3, #57456	; 0xe070
    1d68:	f6c1 73ff 	movt	r3, #8191	; 0x1fff
    1d6c:	e9c3 0104 	strd	r0, r1, [r3, #16]
                break;
    1d70:	f001 b8bf 	b.w	2ef2 <DesignAudioBiquadIIR_q31_t+0x1442>
    1d74:	f3af 8000 	nop.w
    1d78:	54524550 	.word	0x54524550
    1d7c:	401921fb 	.word	0x401921fb

            case   BIQUAD_HIGH_PASS_FILTER 	:
                b0 =  (1 + cos(w0))/2;
    1d80:	f24e 0368 	movw	r3, #57448	; 0xe068
    1d84:	f6c1 73ff 	movt	r3, #8191	; 0x1fff
    1d88:	e9d3 2300 	ldrd	r2, r3, [r3]
    1d8c:	4610      	mov	r0, r2
    1d8e:	4619      	mov	r1, r3
    1d90:	f005 fff0 	bl	7d74 <cos>
    1d94:	4602      	mov	r2, r0
    1d96:	460b      	mov	r3, r1
    1d98:	4610      	mov	r0, r2
    1d9a:	4619      	mov	r1, r3
    1d9c:	f04f 0200 	mov.w	r2, #0
    1da0:	f04f 0300 	mov.w	r3, #0
    1da4:	f6c3 73f0 	movt	r3, #16368	; 0x3ff0
    1da8:	f7fe fd30 	bl	80c <__adddf3>
    1dac:	4602      	mov	r2, r0
    1dae:	460b      	mov	r3, r1
    1db0:	4610      	mov	r0, r2
    1db2:	4619      	mov	r1, r3
    1db4:	f04f 0200 	mov.w	r2, #0
    1db8:	f04f 4380 	mov.w	r3, #1073741824	; 0x40000000
    1dbc:	f7ff f802 	bl	dc4 <__aeabi_ddiv>
    1dc0:	4602      	mov	r2, r0
    1dc2:	460b      	mov	r3, r1
    1dc4:	4610      	mov	r0, r2
    1dc6:	4619      	mov	r1, r3
    1dc8:	f24e 0370 	movw	r3, #57456	; 0xe070
    1dcc:	f6c1 73ff 	movt	r3, #8191	; 0x1fff
    1dd0:	e9c3 0106 	strd	r0, r1, [r3, #24]
                b1 = -(1 + cos(w0));
    1dd4:	f24e 0368 	movw	r3, #57448	; 0xe068
    1dd8:	f6c1 73ff 	movt	r3, #8191	; 0x1fff
    1ddc:	e9d3 2300 	ldrd	r2, r3, [r3]
    1de0:	4610      	mov	r0, r2
    1de2:	4619      	mov	r1, r3
    1de4:	f005 ffc6 	bl	7d74 <cos>
    1de8:	4602      	mov	r2, r0
    1dea:	460b      	mov	r3, r1
    1dec:	4610      	mov	r0, r2
    1dee:	4619      	mov	r1, r3
    1df0:	f04f 0200 	mov.w	r2, #0
    1df4:	f04f 0300 	mov.w	r3, #0
    1df8:	f6c3 73f0 	movt	r3, #16368	; 0x3ff0
    1dfc:	f7fe fd06 	bl	80c <__adddf3>
    1e00:	4602      	mov	r2, r0
    1e02:	460b      	mov	r3, r1
    1e04:	4692      	mov	sl, r2
    1e06:	f083 4b00 	eor.w	fp, r3, #2147483648	; 0x80000000
    1e0a:	f24e 0370 	movw	r3, #57456	; 0xe070
    1e0e:	f6c1 73ff 	movt	r3, #8191	; 0x1fff
    1e12:	e9c3 ab08 	strd	sl, fp, [r3, #32]
                b2 =  (1 + cos(w0))/2;
    1e16:	f24e 0368 	movw	r3, #57448	; 0xe068
    1e1a:	f6c1 73ff 	movt	r3, #8191	; 0x1fff
    1e1e:	e9d3 2300 	ldrd	r2, r3, [r3]
    1e22:	4610      	mov	r0, r2
    1e24:	4619      	mov	r1, r3
    1e26:	f005 ffa5 	bl	7d74 <cos>
    1e2a:	4602      	mov	r2, r0
    1e2c:	460b      	mov	r3, r1
    1e2e:	4610      	mov	r0, r2
    1e30:	4619      	mov	r1, r3
    1e32:	f04f 0200 	mov.w	r2, #0
    1e36:	f04f 0300 	mov.w	r3, #0
    1e3a:	f6c3 73f0 	movt	r3, #16368	; 0x3ff0
    1e3e:	f7fe fce5 	bl	80c <__adddf3>
    1e42:	4602      	mov	r2, r0
    1e44:	460b      	mov	r3, r1
    1e46:	4610      	mov	r0, r2
    1e48:	4619      	mov	r1, r3
    1e4a:	f04f 0200 	mov.w	r2, #0
    1e4e:	f04f 4380 	mov.w	r3, #1073741824	; 0x40000000
    1e52:	f7fe ffb7 	bl	dc4 <__aeabi_ddiv>
    1e56:	4602      	mov	r2, r0
    1e58:	460b      	mov	r3, r1
    1e5a:	4610      	mov	r0, r2
    1e5c:	4619      	mov	r1, r3
    1e5e:	f24e 0370 	movw	r3, #57456	; 0xe070
    1e62:	f6c1 73ff 	movt	r3, #8191	; 0x1fff
    1e66:	e9c3 010a 	strd	r0, r1, [r3, #40]	; 0x28
                a0 =   1 + alpha;
    1e6a:	f24e 03a0 	movw	r3, #57504	; 0xe0a0
    1e6e:	f6c1 73ff 	movt	r3, #8191	; 0x1fff
    1e72:	e9d3 2300 	ldrd	r2, r3, [r3]
    1e76:	4610      	mov	r0, r2
    1e78:	4619      	mov	r1, r3
    1e7a:	f04f 0200 	mov.w	r2, #0
    1e7e:	f04f 0300 	mov.w	r3, #0
    1e82:	f6c3 73f0 	movt	r3, #16368	; 0x3ff0
    1e86:	f7fe fcc1 	bl	80c <__adddf3>
    1e8a:	4602      	mov	r2, r0
    1e8c:	460b      	mov	r3, r1
    1e8e:	4610      	mov	r0, r2
    1e90:	4619      	mov	r1, r3
    1e92:	f24e 0370 	movw	r3, #57456	; 0xe070
    1e96:	f6c1 73ff 	movt	r3, #8191	; 0x1fff
    1e9a:	e9c3 0100 	strd	r0, r1, [r3]
                a1 =  -2*cos(w0);
    1e9e:	f24e 0368 	movw	r3, #57448	; 0xe068
    1ea2:	f6c1 73ff 	movt	r3, #8191	; 0x1fff
    1ea6:	e9d3 2300 	ldrd	r2, r3, [r3]
    1eaa:	4610      	mov	r0, r2
    1eac:	4619      	mov	r1, r3
    1eae:	f005 ff61 	bl	7d74 <cos>
    1eb2:	4602      	mov	r2, r0
    1eb4:	460b      	mov	r3, r1
    1eb6:	4610      	mov	r0, r2
    1eb8:	4619      	mov	r1, r3
    1eba:	f04f 0200 	mov.w	r2, #0
    1ebe:	f04f 4340 	mov.w	r3, #3221225472	; 0xc0000000
    1ec2:	f7fe fe55 	bl	b70 <__aeabi_dmul>
    1ec6:	4602      	mov	r2, r0
    1ec8:	460b      	mov	r3, r1
    1eca:	4610      	mov	r0, r2
    1ecc:	4619      	mov	r1, r3
    1ece:	f24e 0370 	movw	r3, #57456	; 0xe070
    1ed2:	f6c1 73ff 	movt	r3, #8191	; 0x1fff
    1ed6:	e9c3 0102 	strd	r0, r1, [r3, #8]
                a2 =   1 - alpha;
    1eda:	f24e 03a0 	movw	r3, #57504	; 0xe0a0
    1ede:	f6c1 73ff 	movt	r3, #8191	; 0x1fff
    1ee2:	e9d3 2300 	ldrd	r2, r3, [r3]
    1ee6:	f04f 0000 	mov.w	r0, #0
    1eea:	f04f 0100 	mov.w	r1, #0
    1eee:	f6c3 71f0 	movt	r1, #16368	; 0x3ff0
    1ef2:	f7fe fc89 	bl	808 <__aeabi_dsub>
    1ef6:	4602      	mov	r2, r0
    1ef8:	460b      	mov	r3, r1
    1efa:	4610      	mov	r0, r2
    1efc:	4619      	mov	r1, r3
    1efe:	f24e 0370 	movw	r3, #57456	; 0xe070
    1f02:	f6c1 73ff 	movt	r3, #8191	; 0x1fff
    1f06:	e9c3 0104 	strd	r0, r1, [r3, #16]
                break;
    1f0a:	f000 bff2 	b.w	2ef2 <DesignAudioBiquadIIR_q31_t+0x1442>

            case         BIQUAD_BAND_PASS_FILTER_CONSTANT_SKIRT_GAIN_PEAKGAIN_Q	:
                b0 =   Q*alpha;
    1f0e:	6c38      	ldr	r0, [r7, #64]	; 0x40
    1f10:	f7fe fdda 	bl	ac8 <__aeabi_f2d>
    1f14:	f24e 03a0 	movw	r3, #57504	; 0xe0a0
    1f18:	f6c1 73ff 	movt	r3, #8191	; 0x1fff
    1f1c:	e9d3 2300 	ldrd	r2, r3, [r3]
    1f20:	f7fe fe26 	bl	b70 <__aeabi_dmul>
    1f24:	4602      	mov	r2, r0
    1f26:	460b      	mov	r3, r1
    1f28:	4610      	mov	r0, r2
    1f2a:	4619      	mov	r1, r3
    1f2c:	f24e 0370 	movw	r3, #57456	; 0xe070
    1f30:	f6c1 73ff 	movt	r3, #8191	; 0x1fff
    1f34:	e9c3 0106 	strd	r0, r1, [r3, #24]
                b1 =   0;
    1f38:	f24e 0370 	movw	r3, #57456	; 0xe070
    1f3c:	f6c1 73ff 	movt	r3, #8191	; 0x1fff
    1f40:	f04f 0000 	mov.w	r0, #0
    1f44:	f04f 0100 	mov.w	r1, #0
    1f48:	e9c3 0108 	strd	r0, r1, [r3, #32]
                b2 =  -Q*alpha;
    1f4c:	6c3b      	ldr	r3, [r7, #64]	; 0x40
    1f4e:	f083 4300 	eor.w	r3, r3, #2147483648	; 0x80000000
    1f52:	4618      	mov	r0, r3
    1f54:	f7fe fdb8 	bl	ac8 <__aeabi_f2d>
    1f58:	f24e 03a0 	movw	r3, #57504	; 0xe0a0
    1f5c:	f6c1 73ff 	movt	r3, #8191	; 0x1fff
    1f60:	e9d3 2300 	ldrd	r2, r3, [r3]
    1f64:	f7fe fe04 	bl	b70 <__aeabi_dmul>
    1f68:	4602      	mov	r2, r0
    1f6a:	460b      	mov	r3, r1
    1f6c:	4610      	mov	r0, r2
    1f6e:	4619      	mov	r1, r3
    1f70:	f24e 0370 	movw	r3, #57456	; 0xe070
    1f74:	f6c1 73ff 	movt	r3, #8191	; 0x1fff
    1f78:	e9c3 010a 	strd	r0, r1, [r3, #40]	; 0x28
                a0 =   1 + alpha;
    1f7c:	f24e 03a0 	movw	r3, #57504	; 0xe0a0
    1f80:	f6c1 73ff 	movt	r3, #8191	; 0x1fff
    1f84:	e9d3 2300 	ldrd	r2, r3, [r3]
    1f88:	4610      	mov	r0, r2
    1f8a:	4619      	mov	r1, r3
    1f8c:	f04f 0200 	mov.w	r2, #0
    1f90:	f04f 0300 	mov.w	r3, #0
    1f94:	f6c3 73f0 	movt	r3, #16368	; 0x3ff0
    1f98:	f7fe fc38 	bl	80c <__adddf3>
    1f9c:	4602      	mov	r2, r0
    1f9e:	460b      	mov	r3, r1
    1fa0:	4610      	mov	r0, r2
    1fa2:	4619      	mov	r1, r3
    1fa4:	f24e 0370 	movw	r3, #57456	; 0xe070
    1fa8:	f6c1 73ff 	movt	r3, #8191	; 0x1fff
    1fac:	e9c3 0100 	strd	r0, r1, [r3]
                a1 =  -2*cos(w0);
    1fb0:	f24e 0368 	movw	r3, #57448	; 0xe068
    1fb4:	f6c1 73ff 	movt	r3, #8191	; 0x1fff
    1fb8:	e9d3 2300 	ldrd	r2, r3, [r3]
    1fbc:	4610      	mov	r0, r2
    1fbe:	4619      	mov	r1, r3
    1fc0:	f005 fed8 	bl	7d74 <cos>
    1fc4:	4602      	mov	r2, r0
    1fc6:	460b      	mov	r3, r1
    1fc8:	4610      	mov	r0, r2
    1fca:	4619      	mov	r1, r3
    1fcc:	f04f 0200 	mov.w	r2, #0
    1fd0:	f04f 4340 	mov.w	r3, #3221225472	; 0xc0000000
    1fd4:	f7fe fdcc 	bl	b70 <__aeabi_dmul>
    1fd8:	4602      	mov	r2, r0
    1fda:	460b      	mov	r3, r1
    1fdc:	4610      	mov	r0, r2
    1fde:	4619      	mov	r1, r3
    1fe0:	f24e 0370 	movw	r3, #57456	; 0xe070
    1fe4:	f6c1 73ff 	movt	r3, #8191	; 0x1fff
    1fe8:	e9c3 0102 	strd	r0, r1, [r3, #8]
                a2 =   1 - alpha;
    1fec:	f24e 03a0 	movw	r3, #57504	; 0xe0a0
    1ff0:	f6c1 73ff 	movt	r3, #8191	; 0x1fff
    1ff4:	e9d3 2300 	ldrd	r2, r3, [r3]
    1ff8:	f04f 0000 	mov.w	r0, #0
    1ffc:	f04f 0100 	mov.w	r1, #0
    2000:	f6c3 71f0 	movt	r1, #16368	; 0x3ff0
    2004:	f7fe fc00 	bl	808 <__aeabi_dsub>
    2008:	4602      	mov	r2, r0
    200a:	460b      	mov	r3, r1
    200c:	4610      	mov	r0, r2
    200e:	4619      	mov	r1, r3
    2010:	f24e 0370 	movw	r3, #57456	; 0xe070
    2014:	f6c1 73ff 	movt	r3, #8191	; 0x1fff
    2018:	e9c3 0104 	strd	r0, r1, [r3, #16]
                break;
    201c:	f000 bf69 	b.w	2ef2 <DesignAudioBiquadIIR_q31_t+0x1442>

            case            BIQUAD_BAND_PASS_FILTER_CONSTANT_0_DB_PEAK_GAIN:
                b0 =   alpha;
    2020:	f24e 03a0 	movw	r3, #57504	; 0xe0a0
    2024:	f6c1 73ff 	movt	r3, #8191	; 0x1fff
    2028:	e9d3 0100 	ldrd	r0, r1, [r3]
    202c:	f24e 0370 	movw	r3, #57456	; 0xe070
    2030:	f6c1 73ff 	movt	r3, #8191	; 0x1fff
    2034:	e9c3 0106 	strd	r0, r1, [r3, #24]
                b1 =   0;
    2038:	f24e 0370 	movw	r3, #57456	; 0xe070
    203c:	f6c1 73ff 	movt	r3, #8191	; 0x1fff
    2040:	f04f 0000 	mov.w	r0, #0
    2044:	f04f 0100 	mov.w	r1, #0
    2048:	e9c3 0108 	strd	r0, r1, [r3, #32]
                b2 =  -alpha;
    204c:	f24e 03a0 	movw	r3, #57504	; 0xe0a0
    2050:	f6c1 73ff 	movt	r3, #8191	; 0x1fff
    2054:	e9d3 2300 	ldrd	r2, r3, [r3]
    2058:	4690      	mov	r8, r2
    205a:	f083 4900 	eor.w	r9, r3, #2147483648	; 0x80000000
    205e:	f24e 0370 	movw	r3, #57456	; 0xe070
    2062:	f6c1 73ff 	movt	r3, #8191	; 0x1fff
    2066:	e9c3 890a 	strd	r8, r9, [r3, #40]	; 0x28
                a0 =   1 + alpha;
    206a:	f24e 03a0 	movw	r3, #57504	; 0xe0a0
    206e:	f6c1 73ff 	movt	r3, #8191	; 0x1fff
    2072:	e9d3 2300 	ldrd	r2, r3, [r3]
    2076:	4610      	mov	r0, r2
    2078:	4619      	mov	r1, r3
    207a:	f04f 0200 	mov.w	r2, #0
    207e:	f04f 0300 	mov.w	r3, #0
    2082:	f6c3 73f0 	movt	r3, #16368	; 0x3ff0
    2086:	f7fe fbc1 	bl	80c <__adddf3>
    208a:	4602      	mov	r2, r0
    208c:	460b      	mov	r3, r1
    208e:	4610      	mov	r0, r2
    2090:	4619      	mov	r1, r3
    2092:	f24e 0370 	movw	r3, #57456	; 0xe070
    2096:	f6c1 73ff 	movt	r3, #8191	; 0x1fff
    209a:	e9c3 0100 	strd	r0, r1, [r3]
                a1 =  -2*cos(w0);
    209e:	f24e 0368 	movw	r3, #57448	; 0xe068
    20a2:	f6c1 73ff 	movt	r3, #8191	; 0x1fff
    20a6:	e9d3 2300 	ldrd	r2, r3, [r3]
    20aa:	4610      	mov	r0, r2
    20ac:	4619      	mov	r1, r3
    20ae:	f005 fe61 	bl	7d74 <cos>
    20b2:	4602      	mov	r2, r0
    20b4:	460b      	mov	r3, r1
    20b6:	4610      	mov	r0, r2
    20b8:	4619      	mov	r1, r3
    20ba:	f04f 0200 	mov.w	r2, #0
    20be:	f04f 4340 	mov.w	r3, #3221225472	; 0xc0000000
    20c2:	f7fe fd55 	bl	b70 <__aeabi_dmul>
    20c6:	4602      	mov	r2, r0
    20c8:	460b      	mov	r3, r1
    20ca:	4610      	mov	r0, r2
    20cc:	4619      	mov	r1, r3
    20ce:	f24e 0370 	movw	r3, #57456	; 0xe070
    20d2:	f6c1 73ff 	movt	r3, #8191	; 0x1fff
    20d6:	e9c3 0102 	strd	r0, r1, [r3, #8]
                a2 =   1 - alpha;
    20da:	f24e 03a0 	movw	r3, #57504	; 0xe0a0
    20de:	f6c1 73ff 	movt	r3, #8191	; 0x1fff
    20e2:	e9d3 2300 	ldrd	r2, r3, [r3]
    20e6:	f04f 0000 	mov.w	r0, #0
    20ea:	f04f 0100 	mov.w	r1, #0
    20ee:	f6c3 71f0 	movt	r1, #16368	; 0x3ff0
    20f2:	f7fe fb89 	bl	808 <__aeabi_dsub>
    20f6:	4602      	mov	r2, r0
    20f8:	460b      	mov	r3, r1
    20fa:	4610      	mov	r0, r2
    20fc:	4619      	mov	r1, r3
    20fe:	f24e 0370 	movw	r3, #57456	; 0xe070
    2102:	f6c1 73ff 	movt	r3, #8191	; 0x1fff
    2106:	e9c3 0104 	strd	r0, r1, [r3, #16]
                break;
    210a:	f000 bef2 	b.w	2ef2 <DesignAudioBiquadIIR_q31_t+0x1442>

            case             BIQUAD_NOTCH_FILTER:
                b0 =   1;
    210e:	f24e 0370 	movw	r3, #57456	; 0xe070
    2112:	f6c1 73ff 	movt	r3, #8191	; 0x1fff
    2116:	f04f 0000 	mov.w	r0, #0
    211a:	f04f 0100 	mov.w	r1, #0
    211e:	f6c3 71f0 	movt	r1, #16368	; 0x3ff0
    2122:	e9c3 0106 	strd	r0, r1, [r3, #24]
                b1 =  -2*cos(w0);
    2126:	f24e 0368 	movw	r3, #57448	; 0xe068
    212a:	f6c1 73ff 	movt	r3, #8191	; 0x1fff
    212e:	e9d3 2300 	ldrd	r2, r3, [r3]
    2132:	4610      	mov	r0, r2
    2134:	4619      	mov	r1, r3
    2136:	f005 fe1d 	bl	7d74 <cos>
    213a:	4602      	mov	r2, r0
    213c:	460b      	mov	r3, r1
    213e:	4610      	mov	r0, r2
    2140:	4619      	mov	r1, r3
    2142:	f04f 0200 	mov.w	r2, #0
    2146:	f04f 4340 	mov.w	r3, #3221225472	; 0xc0000000
    214a:	f7fe fd11 	bl	b70 <__aeabi_dmul>
    214e:	4602      	mov	r2, r0
    2150:	460b      	mov	r3, r1
    2152:	4610      	mov	r0, r2
    2154:	4619      	mov	r1, r3
    2156:	f24e 0370 	movw	r3, #57456	; 0xe070
    215a:	f6c1 73ff 	movt	r3, #8191	; 0x1fff
    215e:	e9c3 0108 	strd	r0, r1, [r3, #32]
                b2 =   1;
    2162:	f24e 0370 	movw	r3, #57456	; 0xe070
    2166:	f6c1 73ff 	movt	r3, #8191	; 0x1fff
    216a:	f04f 0000 	mov.w	r0, #0
    216e:	f04f 0100 	mov.w	r1, #0
    2172:	f6c3 71f0 	movt	r1, #16368	; 0x3ff0
    2176:	e9c3 010a 	strd	r0, r1, [r3, #40]	; 0x28
                a0 =   1 + alpha;
    217a:	f24e 03a0 	movw	r3, #57504	; 0xe0a0
    217e:	f6c1 73ff 	movt	r3, #8191	; 0x1fff
    2182:	e9d3 2300 	ldrd	r2, r3, [r3]
    2186:	4610      	mov	r0, r2
    2188:	4619      	mov	r1, r3
    218a:	f04f 0200 	mov.w	r2, #0
    218e:	f04f 0300 	mov.w	r3, #0
    2192:	f6c3 73f0 	movt	r3, #16368	; 0x3ff0
    2196:	f7fe fb39 	bl	80c <__adddf3>
    219a:	4602      	mov	r2, r0
    219c:	460b      	mov	r3, r1
    219e:	4610      	mov	r0, r2
    21a0:	4619      	mov	r1, r3
    21a2:	f24e 0370 	movw	r3, #57456	; 0xe070
    21a6:	f6c1 73ff 	movt	r3, #8191	; 0x1fff
    21aa:	e9c3 0100 	strd	r0, r1, [r3]
                a1 =  -2*cos(w0);
    21ae:	f24e 0368 	movw	r3, #57448	; 0xe068
    21b2:	f6c1 73ff 	movt	r3, #8191	; 0x1fff
    21b6:	e9d3 2300 	ldrd	r2, r3, [r3]
    21ba:	4610      	mov	r0, r2
    21bc:	4619      	mov	r1, r3
    21be:	f005 fdd9 	bl	7d74 <cos>
    21c2:	4602      	mov	r2, r0
    21c4:	460b      	mov	r3, r1
    21c6:	4610      	mov	r0, r2
    21c8:	4619      	mov	r1, r3
    21ca:	f04f 0200 	mov.w	r2, #0
    21ce:	f04f 4340 	mov.w	r3, #3221225472	; 0xc0000000
    21d2:	f7fe fccd 	bl	b70 <__aeabi_dmul>
    21d6:	4602      	mov	r2, r0
    21d8:	460b      	mov	r3, r1
    21da:	4610      	mov	r0, r2
    21dc:	4619      	mov	r1, r3
    21de:	f24e 0370 	movw	r3, #57456	; 0xe070
    21e2:	f6c1 73ff 	movt	r3, #8191	; 0x1fff
    21e6:	e9c3 0102 	strd	r0, r1, [r3, #8]
                a2 =   1 - alpha;
    21ea:	f24e 03a0 	movw	r3, #57504	; 0xe0a0
    21ee:	f6c1 73ff 	movt	r3, #8191	; 0x1fff
    21f2:	e9d3 2300 	ldrd	r2, r3, [r3]
    21f6:	f04f 0000 	mov.w	r0, #0
    21fa:	f04f 0100 	mov.w	r1, #0
    21fe:	f6c3 71f0 	movt	r1, #16368	; 0x3ff0
    2202:	f7fe fb01 	bl	808 <__aeabi_dsub>
    2206:	4602      	mov	r2, r0
    2208:	460b      	mov	r3, r1
    220a:	4610      	mov	r0, r2
    220c:	4619      	mov	r1, r3
    220e:	f24e 0370 	movw	r3, #57456	; 0xe070
    2212:	f6c1 73ff 	movt	r3, #8191	; 0x1fff
    2216:	e9c3 0104 	strd	r0, r1, [r3, #16]
                break;
    221a:	f000 be6a 	b.w	2ef2 <DesignAudioBiquadIIR_q31_t+0x1442>

            case             BIQUAD_ALL_PASS_FILTER:
                b0 =   1 - alpha;
    221e:	f24e 03a0 	movw	r3, #57504	; 0xe0a0
    2222:	f6c1 73ff 	movt	r3, #8191	; 0x1fff
    2226:	e9d3 2300 	ldrd	r2, r3, [r3]
    222a:	f04f 0000 	mov.w	r0, #0
    222e:	f04f 0100 	mov.w	r1, #0
    2232:	f6c3 71f0 	movt	r1, #16368	; 0x3ff0
    2236:	f7fe fae7 	bl	808 <__aeabi_dsub>
    223a:	4602      	mov	r2, r0
    223c:	460b      	mov	r3, r1
    223e:	4610      	mov	r0, r2
    2240:	4619      	mov	r1, r3
    2242:	f24e 0370 	movw	r3, #57456	; 0xe070
    2246:	f6c1 73ff 	movt	r3, #8191	; 0x1fff
    224a:	e9c3 0106 	strd	r0, r1, [r3, #24]
                b1 =  -2*cos(w0);
    224e:	f24e 0368 	movw	r3, #57448	; 0xe068
    2252:	f6c1 73ff 	movt	r3, #8191	; 0x1fff
    2256:	e9d3 2300 	ldrd	r2, r3, [r3]
    225a:	4610      	mov	r0, r2
    225c:	4619      	mov	r1, r3
    225e:	f005 fd89 	bl	7d74 <cos>
    2262:	4602      	mov	r2, r0
    2264:	460b      	mov	r3, r1
    2266:	4610      	mov	r0, r2
    2268:	4619      	mov	r1, r3
    226a:	f04f 0200 	mov.w	r2, #0
    226e:	f04f 4340 	mov.w	r3, #3221225472	; 0xc0000000
    2272:	f7fe fc7d 	bl	b70 <__aeabi_dmul>
    2276:	4602      	mov	r2, r0
    2278:	460b      	mov	r3, r1
    227a:	4610      	mov	r0, r2
    227c:	4619      	mov	r1, r3
    227e:	f24e 0370 	movw	r3, #57456	; 0xe070
    2282:	f6c1 73ff 	movt	r3, #8191	; 0x1fff
    2286:	e9c3 0108 	strd	r0, r1, [r3, #32]
                b2 =   1 + alpha;
    228a:	f24e 03a0 	movw	r3, #57504	; 0xe0a0
    228e:	f6c1 73ff 	movt	r3, #8191	; 0x1fff
    2292:	e9d3 2300 	ldrd	r2, r3, [r3]
    2296:	4610      	mov	r0, r2
    2298:	4619      	mov	r1, r3
    229a:	f04f 0200 	mov.w	r2, #0
    229e:	f04f 0300 	mov.w	r3, #0
    22a2:	f6c3 73f0 	movt	r3, #16368	; 0x3ff0
    22a6:	f7fe fab1 	bl	80c <__adddf3>
    22aa:	4602      	mov	r2, r0
    22ac:	460b      	mov	r3, r1
    22ae:	4610      	mov	r0, r2
    22b0:	4619      	mov	r1, r3
    22b2:	f24e 0370 	movw	r3, #57456	; 0xe070
    22b6:	f6c1 73ff 	movt	r3, #8191	; 0x1fff
    22ba:	e9c3 010a 	strd	r0, r1, [r3, #40]	; 0x28
                a0 =   1 + alpha;
    22be:	f24e 03a0 	movw	r3, #57504	; 0xe0a0
    22c2:	f6c1 73ff 	movt	r3, #8191	; 0x1fff
    22c6:	e9d3 2300 	ldrd	r2, r3, [r3]
    22ca:	4610      	mov	r0, r2
    22cc:	4619      	mov	r1, r3
    22ce:	f04f 0200 	mov.w	r2, #0
    22d2:	f04f 0300 	mov.w	r3, #0
    22d6:	f6c3 73f0 	movt	r3, #16368	; 0x3ff0
    22da:	f7fe fa97 	bl	80c <__adddf3>
    22de:	4602      	mov	r2, r0
    22e0:	460b      	mov	r3, r1
    22e2:	4610      	mov	r0, r2
    22e4:	4619      	mov	r1, r3
    22e6:	f24e 0370 	movw	r3, #57456	; 0xe070
    22ea:	f6c1 73ff 	movt	r3, #8191	; 0x1fff
    22ee:	e9c3 0100 	strd	r0, r1, [r3]
                a1 =  -2*cos(w0);
    22f2:	f24e 0368 	movw	r3, #57448	; 0xe068
    22f6:	f6c1 73ff 	movt	r3, #8191	; 0x1fff
    22fa:	e9d3 2300 	ldrd	r2, r3, [r3]
    22fe:	4610      	mov	r0, r2
    2300:	4619      	mov	r1, r3
    2302:	f005 fd37 	bl	7d74 <cos>
    2306:	4602      	mov	r2, r0
    2308:	460b      	mov	r3, r1
    230a:	4610      	mov	r0, r2
    230c:	4619      	mov	r1, r3
    230e:	f04f 0200 	mov.w	r2, #0
    2312:	f04f 4340 	mov.w	r3, #3221225472	; 0xc0000000
    2316:	f7fe fc2b 	bl	b70 <__aeabi_dmul>
    231a:	4602      	mov	r2, r0
    231c:	460b      	mov	r3, r1
    231e:	4610      	mov	r0, r2
    2320:	4619      	mov	r1, r3
    2322:	f24e 0370 	movw	r3, #57456	; 0xe070
    2326:	f6c1 73ff 	movt	r3, #8191	; 0x1fff
    232a:	e9c3 0102 	strd	r0, r1, [r3, #8]
                a2 =   1 - alpha;
    232e:	f24e 03a0 	movw	r3, #57504	; 0xe0a0
    2332:	f6c1 73ff 	movt	r3, #8191	; 0x1fff
    2336:	e9d3 2300 	ldrd	r2, r3, [r3]
    233a:	f04f 0000 	mov.w	r0, #0
    233e:	f04f 0100 	mov.w	r1, #0
    2342:	f6c3 71f0 	movt	r1, #16368	; 0x3ff0
    2346:	f7fe fa5f 	bl	808 <__aeabi_dsub>
    234a:	4602      	mov	r2, r0
    234c:	460b      	mov	r3, r1
    234e:	4610      	mov	r0, r2
    2350:	4619      	mov	r1, r3
    2352:	f24e 0370 	movw	r3, #57456	; 0xe070
    2356:	f6c1 73ff 	movt	r3, #8191	; 0x1fff
    235a:	e9c3 0104 	strd	r0, r1, [r3, #16]
                break;
    235e:	f000 bdc8 	b.w	2ef2 <DesignAudioBiquadIIR_q31_t+0x1442>

            case            BIQUAD_PEAKING_EQ:
                b0 =   1 + alpha*A;
    2362:	f24e 03a0 	movw	r3, #57504	; 0xe0a0
    2366:	f6c1 73ff 	movt	r3, #8191	; 0x1fff
    236a:	e9d3 0100 	ldrd	r0, r1, [r3]
    236e:	f24e 0360 	movw	r3, #57440	; 0xe060
    2372:	f6c1 73ff 	movt	r3, #8191	; 0x1fff
    2376:	e9d3 2300 	ldrd	r2, r3, [r3]
    237a:	f7fe fbf9 	bl	b70 <__aeabi_dmul>
    237e:	4602      	mov	r2, r0
    2380:	460b      	mov	r3, r1
    2382:	4610      	mov	r0, r2
    2384:	4619      	mov	r1, r3
    2386:	f04f 0200 	mov.w	r2, #0
    238a:	f04f 0300 	mov.w	r3, #0
    238e:	f6c3 73f0 	movt	r3, #16368	; 0x3ff0
    2392:	f7fe fa3b 	bl	80c <__adddf3>
    2396:	4602      	mov	r2, r0
    2398:	460b      	mov	r3, r1
    239a:	4610      	mov	r0, r2
    239c:	4619      	mov	r1, r3
    239e:	f24e 0370 	movw	r3, #57456	; 0xe070
    23a2:	f6c1 73ff 	movt	r3, #8191	; 0x1fff
    23a6:	e9c3 0106 	strd	r0, r1, [r3, #24]
                b1 =  -2*cos(w0);
    23aa:	f24e 0368 	movw	r3, #57448	; 0xe068
    23ae:	f6c1 73ff 	movt	r3, #8191	; 0x1fff
    23b2:	e9d3 2300 	ldrd	r2, r3, [r3]
    23b6:	4610      	mov	r0, r2
    23b8:	4619      	mov	r1, r3
    23ba:	f005 fcdb 	bl	7d74 <cos>
    23be:	4602      	mov	r2, r0
    23c0:	460b      	mov	r3, r1
    23c2:	4610      	mov	r0, r2
    23c4:	4619      	mov	r1, r3
    23c6:	f04f 0200 	mov.w	r2, #0
    23ca:	f04f 4340 	mov.w	r3, #3221225472	; 0xc0000000
    23ce:	f7fe fbcf 	bl	b70 <__aeabi_dmul>
    23d2:	4602      	mov	r2, r0
    23d4:	460b      	mov	r3, r1
    23d6:	4610      	mov	r0, r2
    23d8:	4619      	mov	r1, r3
    23da:	f24e 0370 	movw	r3, #57456	; 0xe070
    23de:	f6c1 73ff 	movt	r3, #8191	; 0x1fff
    23e2:	e9c3 0108 	strd	r0, r1, [r3, #32]
                b2 =   1 - alpha*A;
    23e6:	f24e 03a0 	movw	r3, #57504	; 0xe0a0
    23ea:	f6c1 73ff 	movt	r3, #8191	; 0x1fff
    23ee:	e9d3 0100 	ldrd	r0, r1, [r3]
    23f2:	f24e 0360 	movw	r3, #57440	; 0xe060
    23f6:	f6c1 73ff 	movt	r3, #8191	; 0x1fff
    23fa:	e9d3 2300 	ldrd	r2, r3, [r3]
    23fe:	f7fe fbb7 	bl	b70 <__aeabi_dmul>
    2402:	4602      	mov	r2, r0
    2404:	460b      	mov	r3, r1
    2406:	f04f 0000 	mov.w	r0, #0
    240a:	f04f 0100 	mov.w	r1, #0
    240e:	f6c3 71f0 	movt	r1, #16368	; 0x3ff0
    2412:	f7fe f9f9 	bl	808 <__aeabi_dsub>
    2416:	4602      	mov	r2, r0
    2418:	460b      	mov	r3, r1
    241a:	4610      	mov	r0, r2
    241c:	4619      	mov	r1, r3
    241e:	f24e 0370 	movw	r3, #57456	; 0xe070
    2422:	f6c1 73ff 	movt	r3, #8191	; 0x1fff
    2426:	e9c3 010a 	strd	r0, r1, [r3, #40]	; 0x28
                a0 =   1 + alpha/A;
    242a:	f24e 03a0 	movw	r3, #57504	; 0xe0a0
    242e:	f6c1 73ff 	movt	r3, #8191	; 0x1fff
    2432:	e9d3 0100 	ldrd	r0, r1, [r3]
    2436:	f24e 0360 	movw	r3, #57440	; 0xe060
    243a:	f6c1 73ff 	movt	r3, #8191	; 0x1fff
    243e:	e9d3 2300 	ldrd	r2, r3, [r3]
    2442:	f7fe fcbf 	bl	dc4 <__aeabi_ddiv>
    2446:	4602      	mov	r2, r0
    2448:	460b      	mov	r3, r1
    244a:	4610      	mov	r0, r2
    244c:	4619      	mov	r1, r3
    244e:	f04f 0200 	mov.w	r2, #0
    2452:	f04f 0300 	mov.w	r3, #0
    2456:	f6c3 73f0 	movt	r3, #16368	; 0x3ff0
    245a:	f7fe f9d7 	bl	80c <__adddf3>
    245e:	4602      	mov	r2, r0
    2460:	460b      	mov	r3, r1
    2462:	4610      	mov	r0, r2
    2464:	4619      	mov	r1, r3
    2466:	f24e 0370 	movw	r3, #57456	; 0xe070
    246a:	f6c1 73ff 	movt	r3, #8191	; 0x1fff
    246e:	e9c3 0100 	strd	r0, r1, [r3]
                a1 =  -2*cos(w0);
    2472:	f24e 0368 	movw	r3, #57448	; 0xe068
    2476:	f6c1 73ff 	movt	r3, #8191	; 0x1fff
    247a:	e9d3 2300 	ldrd	r2, r3, [r3]
    247e:	4610      	mov	r0, r2
    2480:	4619      	mov	r1, r3
    2482:	f005 fc77 	bl	7d74 <cos>
    2486:	4602      	mov	r2, r0
    2488:	460b      	mov	r3, r1
    248a:	4610      	mov	r0, r2
    248c:	4619      	mov	r1, r3
    248e:	f04f 0200 	mov.w	r2, #0
    2492:	f04f 4340 	mov.w	r3, #3221225472	; 0xc0000000
    2496:	f7fe fb6b 	bl	b70 <__aeabi_dmul>
    249a:	4602      	mov	r2, r0
    249c:	460b      	mov	r3, r1
    249e:	4610      	mov	r0, r2
    24a0:	4619      	mov	r1, r3
    24a2:	f24e 0370 	movw	r3, #57456	; 0xe070
    24a6:	f6c1 73ff 	movt	r3, #8191	; 0x1fff
    24aa:	e9c3 0102 	strd	r0, r1, [r3, #8]
                a2 =   1 - alpha/A;
    24ae:	f24e 03a0 	movw	r3, #57504	; 0xe0a0
    24b2:	f6c1 73ff 	movt	r3, #8191	; 0x1fff
    24b6:	e9d3 0100 	ldrd	r0, r1, [r3]
    24ba:	f24e 0360 	movw	r3, #57440	; 0xe060
    24be:	f6c1 73ff 	movt	r3, #8191	; 0x1fff
    24c2:	e9d3 2300 	ldrd	r2, r3, [r3]
    24c6:	f7fe fc7d 	bl	dc4 <__aeabi_ddiv>
    24ca:	4602      	mov	r2, r0
    24cc:	460b      	mov	r3, r1
    24ce:	f04f 0000 	mov.w	r0, #0
    24d2:	f04f 0100 	mov.w	r1, #0
    24d6:	f6c3 71f0 	movt	r1, #16368	; 0x3ff0
    24da:	f7fe f995 	bl	808 <__aeabi_dsub>
    24de:	4602      	mov	r2, r0
    24e0:	460b      	mov	r3, r1
    24e2:	4610      	mov	r0, r2
    24e4:	4619      	mov	r1, r3
    24e6:	f24e 0370 	movw	r3, #57456	; 0xe070
    24ea:	f6c1 73ff 	movt	r3, #8191	; 0x1fff
    24ee:	e9c3 0104 	strd	r0, r1, [r3, #16]
                break;
    24f2:	f000 bcfe 	b.w	2ef2 <DesignAudioBiquadIIR_q31_t+0x1442>

            case            BIQUAD_LOW_SHELF:
                b0 =    A*( (A+1.0) - (A-1.0)*cos(w0) + 2.0*sqrt(A)*alpha );
    24f6:	f24e 0360 	movw	r3, #57440	; 0xe060
    24fa:	f6c1 73ff 	movt	r3, #8191	; 0x1fff
    24fe:	e9d3 2300 	ldrd	r2, r3, [r3]
    2502:	4610      	mov	r0, r2
    2504:	4619      	mov	r1, r3
    2506:	f04f 0200 	mov.w	r2, #0
    250a:	f04f 0300 	mov.w	r3, #0
    250e:	f6c3 73f0 	movt	r3, #16368	; 0x3ff0
    2512:	f7fe f97b 	bl	80c <__adddf3>
    2516:	4602      	mov	r2, r0
    2518:	460b      	mov	r3, r1
    251a:	4614      	mov	r4, r2
    251c:	461d      	mov	r5, r3
    251e:	f24e 0360 	movw	r3, #57440	; 0xe060
    2522:	f6c1 73ff 	movt	r3, #8191	; 0x1fff
    2526:	e9d3 2300 	ldrd	r2, r3, [r3]
    252a:	4610      	mov	r0, r2
    252c:	4619      	mov	r1, r3
    252e:	f04f 0200 	mov.w	r2, #0
    2532:	f04f 0300 	mov.w	r3, #0
    2536:	f6c3 73f0 	movt	r3, #16368	; 0x3ff0
    253a:	f7fe f965 	bl	808 <__aeabi_dsub>
    253e:	4602      	mov	r2, r0
    2540:	460b      	mov	r3, r1
    2542:	4690      	mov	r8, r2
    2544:	4699      	mov	r9, r3
    2546:	f24e 0368 	movw	r3, #57448	; 0xe068
    254a:	f6c1 73ff 	movt	r3, #8191	; 0x1fff
    254e:	e9d3 2300 	ldrd	r2, r3, [r3]
    2552:	4610      	mov	r0, r2
    2554:	4619      	mov	r1, r3
    2556:	f005 fc0d 	bl	7d74 <cos>
    255a:	4602      	mov	r2, r0
    255c:	460b      	mov	r3, r1
    255e:	4640      	mov	r0, r8
    2560:	4649      	mov	r1, r9
    2562:	f7fe fb05 	bl	b70 <__aeabi_dmul>
    2566:	4602      	mov	r2, r0
    2568:	460b      	mov	r3, r1
    256a:	4620      	mov	r0, r4
    256c:	4629      	mov	r1, r5
    256e:	f7fe f94b 	bl	808 <__aeabi_dsub>
    2572:	4602      	mov	r2, r0
    2574:	460b      	mov	r3, r1
    2576:	4614      	mov	r4, r2
    2578:	461d      	mov	r5, r3
    257a:	f24e 0360 	movw	r3, #57440	; 0xe060
    257e:	f6c1 73ff 	movt	r3, #8191	; 0x1fff
    2582:	e9d3 2300 	ldrd	r2, r3, [r3]
    2586:	4610      	mov	r0, r2
    2588:	4619      	mov	r1, r3
    258a:	f005 fcbd 	bl	7f08 <sqrt>
    258e:	4602      	mov	r2, r0
    2590:	460b      	mov	r3, r1
    2592:	4610      	mov	r0, r2
    2594:	4619      	mov	r1, r3
    2596:	f7fe f939 	bl	80c <__adddf3>
    259a:	4602      	mov	r2, r0
    259c:	460b      	mov	r3, r1
    259e:	4610      	mov	r0, r2
    25a0:	4619      	mov	r1, r3
    25a2:	f24e 03a0 	movw	r3, #57504	; 0xe0a0
    25a6:	f6c1 73ff 	movt	r3, #8191	; 0x1fff
    25aa:	e9d3 2300 	ldrd	r2, r3, [r3]
    25ae:	f7fe fadf 	bl	b70 <__aeabi_dmul>
    25b2:	4602      	mov	r2, r0
    25b4:	460b      	mov	r3, r1
    25b6:	4620      	mov	r0, r4
    25b8:	4629      	mov	r1, r5
    25ba:	f7fe f927 	bl	80c <__adddf3>
    25be:	4602      	mov	r2, r0
    25c0:	460b      	mov	r3, r1
    25c2:	4610      	mov	r0, r2
    25c4:	4619      	mov	r1, r3
    25c6:	f24e 0360 	movw	r3, #57440	; 0xe060
    25ca:	f6c1 73ff 	movt	r3, #8191	; 0x1fff
    25ce:	e9d3 2300 	ldrd	r2, r3, [r3]
    25d2:	f7fe facd 	bl	b70 <__aeabi_dmul>
    25d6:	4602      	mov	r2, r0
    25d8:	460b      	mov	r3, r1
    25da:	4610      	mov	r0, r2
    25dc:	4619      	mov	r1, r3
    25de:	f24e 0370 	movw	r3, #57456	; 0xe070
    25e2:	f6c1 73ff 	movt	r3, #8191	; 0x1fff
    25e6:	e9c3 0106 	strd	r0, r1, [r3, #24]
                b1 =  2.0*A*( (A-1.0) - (A+1.0)*cos(w0)                   );
    25ea:	f24e 0360 	movw	r3, #57440	; 0xe060
    25ee:	f6c1 73ff 	movt	r3, #8191	; 0x1fff
    25f2:	e9d3 2300 	ldrd	r2, r3, [r3]
    25f6:	4610      	mov	r0, r2
    25f8:	4619      	mov	r1, r3
    25fa:	f7fe f907 	bl	80c <__adddf3>
    25fe:	4602      	mov	r2, r0
    2600:	460b      	mov	r3, r1
    2602:	4614      	mov	r4, r2
    2604:	461d      	mov	r5, r3
    2606:	f24e 0360 	movw	r3, #57440	; 0xe060
    260a:	f6c1 73ff 	movt	r3, #8191	; 0x1fff
    260e:	e9d3 2300 	ldrd	r2, r3, [r3]
    2612:	4610      	mov	r0, r2
    2614:	4619      	mov	r1, r3
    2616:	f04f 0200 	mov.w	r2, #0
    261a:	f04f 0300 	mov.w	r3, #0
    261e:	f6c3 73f0 	movt	r3, #16368	; 0x3ff0
    2622:	f7fe f8f1 	bl	808 <__aeabi_dsub>
    2626:	4602      	mov	r2, r0
    2628:	460b      	mov	r3, r1
    262a:	4690      	mov	r8, r2
    262c:	4699      	mov	r9, r3
    262e:	f24e 0360 	movw	r3, #57440	; 0xe060
    2632:	f6c1 73ff 	movt	r3, #8191	; 0x1fff
    2636:	e9d3 2300 	ldrd	r2, r3, [r3]
    263a:	4610      	mov	r0, r2
    263c:	4619      	mov	r1, r3
    263e:	f04f 0200 	mov.w	r2, #0
    2642:	f04f 0300 	mov.w	r3, #0
    2646:	f6c3 73f0 	movt	r3, #16368	; 0x3ff0
    264a:	f7fe f8df 	bl	80c <__adddf3>
    264e:	4602      	mov	r2, r0
    2650:	460b      	mov	r3, r1
    2652:	4692      	mov	sl, r2
    2654:	469b      	mov	fp, r3
    2656:	f24e 0368 	movw	r3, #57448	; 0xe068
    265a:	f6c1 73ff 	movt	r3, #8191	; 0x1fff
    265e:	e9d3 2300 	ldrd	r2, r3, [r3]
    2662:	4610      	mov	r0, r2
    2664:	4619      	mov	r1, r3
    2666:	f005 fb85 	bl	7d74 <cos>
    266a:	4602      	mov	r2, r0
    266c:	460b      	mov	r3, r1
    266e:	4650      	mov	r0, sl
    2670:	4659      	mov	r1, fp
    2672:	f7fe fa7d 	bl	b70 <__aeabi_dmul>
    2676:	4602      	mov	r2, r0
    2678:	460b      	mov	r3, r1
    267a:	4640      	mov	r0, r8
    267c:	4649      	mov	r1, r9
    267e:	f7fe f8c3 	bl	808 <__aeabi_dsub>
    2682:	4602      	mov	r2, r0
    2684:	460b      	mov	r3, r1
    2686:	4620      	mov	r0, r4
    2688:	4629      	mov	r1, r5
    268a:	f7fe fa71 	bl	b70 <__aeabi_dmul>
    268e:	4602      	mov	r2, r0
    2690:	460b      	mov	r3, r1
    2692:	4610      	mov	r0, r2
    2694:	4619      	mov	r1, r3
    2696:	f24e 0370 	movw	r3, #57456	; 0xe070
    269a:	f6c1 73ff 	movt	r3, #8191	; 0x1fff
    269e:	e9c3 0108 	strd	r0, r1, [r3, #32]
                b2 =    A*( (A+1.0) - (A-1.0)*cos(w0) - 2.0*sqrt(A)*alpha );
    26a2:	f24e 0360 	movw	r3, #57440	; 0xe060
    26a6:	f6c1 73ff 	movt	r3, #8191	; 0x1fff
    26aa:	e9d3 2300 	ldrd	r2, r3, [r3]
    26ae:	4610      	mov	r0, r2
    26b0:	4619      	mov	r1, r3
    26b2:	f04f 0200 	mov.w	r2, #0
    26b6:	f04f 0300 	mov.w	r3, #0
    26ba:	f6c3 73f0 	movt	r3, #16368	; 0x3ff0
    26be:	f7fe f8a5 	bl	80c <__adddf3>
    26c2:	4602      	mov	r2, r0
    26c4:	460b      	mov	r3, r1
    26c6:	4614      	mov	r4, r2
    26c8:	461d      	mov	r5, r3
    26ca:	f24e 0360 	movw	r3, #57440	; 0xe060
    26ce:	f6c1 73ff 	movt	r3, #8191	; 0x1fff
    26d2:	e9d3 2300 	ldrd	r2, r3, [r3]
    26d6:	4610      	mov	r0, r2
    26d8:	4619      	mov	r1, r3
    26da:	f04f 0200 	mov.w	r2, #0
    26de:	f04f 0300 	mov.w	r3, #0
    26e2:	f6c3 73f0 	movt	r3, #16368	; 0x3ff0
    26e6:	f7fe f88f 	bl	808 <__aeabi_dsub>
    26ea:	4602      	mov	r2, r0
    26ec:	460b      	mov	r3, r1
    26ee:	4690      	mov	r8, r2
    26f0:	4699      	mov	r9, r3
    26f2:	f24e 0368 	movw	r3, #57448	; 0xe068
    26f6:	f6c1 73ff 	movt	r3, #8191	; 0x1fff
    26fa:	e9d3 2300 	ldrd	r2, r3, [r3]
    26fe:	4610      	mov	r0, r2
    2700:	4619      	mov	r1, r3
    2702:	f005 fb37 	bl	7d74 <cos>
    2706:	4602      	mov	r2, r0
    2708:	460b      	mov	r3, r1
    270a:	4640      	mov	r0, r8
    270c:	4649      	mov	r1, r9
    270e:	f7fe fa2f 	bl	b70 <__aeabi_dmul>
    2712:	4602      	mov	r2, r0
    2714:	460b      	mov	r3, r1
    2716:	4620      	mov	r0, r4
    2718:	4629      	mov	r1, r5
    271a:	f7fe f875 	bl	808 <__aeabi_dsub>
    271e:	4602      	mov	r2, r0
    2720:	460b      	mov	r3, r1
    2722:	4614      	mov	r4, r2
    2724:	461d      	mov	r5, r3
    2726:	f24e 0360 	movw	r3, #57440	; 0xe060
    272a:	f6c1 73ff 	movt	r3, #8191	; 0x1fff
    272e:	e9d3 2300 	ldrd	r2, r3, [r3]
    2732:	4610      	mov	r0, r2
    2734:	4619      	mov	r1, r3
    2736:	f005 fbe7 	bl	7f08 <sqrt>
    273a:	4602      	mov	r2, r0
    273c:	460b      	mov	r3, r1
    273e:	4610      	mov	r0, r2
    2740:	4619      	mov	r1, r3
    2742:	f7fe f863 	bl	80c <__adddf3>
    2746:	4602      	mov	r2, r0
    2748:	460b      	mov	r3, r1
    274a:	4610      	mov	r0, r2
    274c:	4619      	mov	r1, r3
    274e:	f24e 03a0 	movw	r3, #57504	; 0xe0a0
    2752:	f6c1 73ff 	movt	r3, #8191	; 0x1fff
    2756:	e9d3 2300 	ldrd	r2, r3, [r3]
    275a:	f7fe fa09 	bl	b70 <__aeabi_dmul>
    275e:	4602      	mov	r2, r0
    2760:	460b      	mov	r3, r1
    2762:	4620      	mov	r0, r4
    2764:	4629      	mov	r1, r5
    2766:	f7fe f84f 	bl	808 <__aeabi_dsub>
    276a:	4602      	mov	r2, r0
    276c:	460b      	mov	r3, r1
    276e:	4610      	mov	r0, r2
    2770:	4619      	mov	r1, r3
    2772:	f24e 0360 	movw	r3, #57440	; 0xe060
    2776:	f6c1 73ff 	movt	r3, #8191	; 0x1fff
    277a:	e9d3 2300 	ldrd	r2, r3, [r3]
    277e:	f7fe f9f7 	bl	b70 <__aeabi_dmul>
    2782:	4602      	mov	r2, r0
    2784:	460b      	mov	r3, r1
    2786:	4610      	mov	r0, r2
    2788:	4619      	mov	r1, r3
    278a:	f24e 0370 	movw	r3, #57456	; 0xe070
    278e:	f6c1 73ff 	movt	r3, #8191	; 0x1fff
    2792:	e9c3 010a 	strd	r0, r1, [r3, #40]	; 0x28
                a0 =        (A+1.0) + (A-1.0)*cos(w0) + 2.0*sqrt(A)*alpha;
    2796:	f24e 0360 	movw	r3, #57440	; 0xe060
    279a:	f6c1 73ff 	movt	r3, #8191	; 0x1fff
    279e:	e9d3 2300 	ldrd	r2, r3, [r3]
    27a2:	4610      	mov	r0, r2
    27a4:	4619      	mov	r1, r3
    27a6:	f04f 0200 	mov.w	r2, #0
    27aa:	f04f 0300 	mov.w	r3, #0
    27ae:	f6c3 73f0 	movt	r3, #16368	; 0x3ff0
    27b2:	f7fe f82b 	bl	80c <__adddf3>
    27b6:	4602      	mov	r2, r0
    27b8:	460b      	mov	r3, r1
    27ba:	4614      	mov	r4, r2
    27bc:	461d      	mov	r5, r3
    27be:	f24e 0360 	movw	r3, #57440	; 0xe060
    27c2:	f6c1 73ff 	movt	r3, #8191	; 0x1fff
    27c6:	e9d3 2300 	ldrd	r2, r3, [r3]
    27ca:	4610      	mov	r0, r2
    27cc:	4619      	mov	r1, r3
    27ce:	f04f 0200 	mov.w	r2, #0
    27d2:	f04f 0300 	mov.w	r3, #0
    27d6:	f6c3 73f0 	movt	r3, #16368	; 0x3ff0
    27da:	f7fe f815 	bl	808 <__aeabi_dsub>
    27de:	4602      	mov	r2, r0
    27e0:	460b      	mov	r3, r1
    27e2:	4690      	mov	r8, r2
    27e4:	4699      	mov	r9, r3
    27e6:	f24e 0368 	movw	r3, #57448	; 0xe068
    27ea:	f6c1 73ff 	movt	r3, #8191	; 0x1fff
    27ee:	e9d3 2300 	ldrd	r2, r3, [r3]
    27f2:	4610      	mov	r0, r2
    27f4:	4619      	mov	r1, r3
    27f6:	f005 fabd 	bl	7d74 <cos>
    27fa:	4602      	mov	r2, r0
    27fc:	460b      	mov	r3, r1
    27fe:	4640      	mov	r0, r8
    2800:	4649      	mov	r1, r9
    2802:	f7fe f9b5 	bl	b70 <__aeabi_dmul>
    2806:	4602      	mov	r2, r0
    2808:	460b      	mov	r3, r1
    280a:	4620      	mov	r0, r4
    280c:	4629      	mov	r1, r5
    280e:	f7fd fffd 	bl	80c <__adddf3>
    2812:	4602      	mov	r2, r0
    2814:	460b      	mov	r3, r1
    2816:	4614      	mov	r4, r2
    2818:	461d      	mov	r5, r3
    281a:	f24e 0360 	movw	r3, #57440	; 0xe060
    281e:	f6c1 73ff 	movt	r3, #8191	; 0x1fff
    2822:	e9d3 2300 	ldrd	r2, r3, [r3]
    2826:	4610      	mov	r0, r2
    2828:	4619      	mov	r1, r3
    282a:	f005 fb6d 	bl	7f08 <sqrt>
    282e:	4602      	mov	r2, r0
    2830:	460b      	mov	r3, r1
    2832:	4610      	mov	r0, r2
    2834:	4619      	mov	r1, r3
    2836:	f7fd ffe9 	bl	80c <__adddf3>
    283a:	4602      	mov	r2, r0
    283c:	460b      	mov	r3, r1
    283e:	4610      	mov	r0, r2
    2840:	4619      	mov	r1, r3
    2842:	f24e 03a0 	movw	r3, #57504	; 0xe0a0
    2846:	f6c1 73ff 	movt	r3, #8191	; 0x1fff
    284a:	e9d3 2300 	ldrd	r2, r3, [r3]
    284e:	f7fe f98f 	bl	b70 <__aeabi_dmul>
    2852:	4602      	mov	r2, r0
    2854:	460b      	mov	r3, r1
    2856:	4620      	mov	r0, r4
    2858:	4629      	mov	r1, r5
    285a:	f7fd ffd7 	bl	80c <__adddf3>
    285e:	4602      	mov	r2, r0
    2860:	460b      	mov	r3, r1
    2862:	4610      	mov	r0, r2
    2864:	4619      	mov	r1, r3
    2866:	f24e 0370 	movw	r3, #57456	; 0xe070
    286a:	f6c1 73ff 	movt	r3, #8191	; 0x1fff
    286e:	e9c3 0100 	strd	r0, r1, [r3]
                a1 =   -2.0*( (A-1.0) + (A+1.0)*cos(w0)                   );
    2872:	f24e 0360 	movw	r3, #57440	; 0xe060
    2876:	f6c1 73ff 	movt	r3, #8191	; 0x1fff
    287a:	e9d3 2300 	ldrd	r2, r3, [r3]
    287e:	4610      	mov	r0, r2
    2880:	4619      	mov	r1, r3
    2882:	f04f 0200 	mov.w	r2, #0
    2886:	f04f 0300 	mov.w	r3, #0
    288a:	f6c3 73f0 	movt	r3, #16368	; 0x3ff0
    288e:	f7fd ffbb 	bl	808 <__aeabi_dsub>
    2892:	4602      	mov	r2, r0
    2894:	460b      	mov	r3, r1
    2896:	4614      	mov	r4, r2
    2898:	461d      	mov	r5, r3
    289a:	f24e 0360 	movw	r3, #57440	; 0xe060
    289e:	f6c1 73ff 	movt	r3, #8191	; 0x1fff
    28a2:	e9d3 2300 	ldrd	r2, r3, [r3]
    28a6:	4610      	mov	r0, r2
    28a8:	4619      	mov	r1, r3
    28aa:	f04f 0200 	mov.w	r2, #0
    28ae:	f04f 0300 	mov.w	r3, #0
    28b2:	f6c3 73f0 	movt	r3, #16368	; 0x3ff0
    28b6:	f7fd ffa9 	bl	80c <__adddf3>
    28ba:	4602      	mov	r2, r0
    28bc:	460b      	mov	r3, r1
    28be:	4690      	mov	r8, r2
    28c0:	4699      	mov	r9, r3
    28c2:	f24e 0368 	movw	r3, #57448	; 0xe068
    28c6:	f6c1 73ff 	movt	r3, #8191	; 0x1fff
    28ca:	e9d3 2300 	ldrd	r2, r3, [r3]
    28ce:	4610      	mov	r0, r2
    28d0:	4619      	mov	r1, r3
    28d2:	f005 fa4f 	bl	7d74 <cos>
    28d6:	4602      	mov	r2, r0
    28d8:	460b      	mov	r3, r1
    28da:	4640      	mov	r0, r8
    28dc:	4649      	mov	r1, r9
    28de:	f7fe f947 	bl	b70 <__aeabi_dmul>
    28e2:	4602      	mov	r2, r0
    28e4:	460b      	mov	r3, r1
    28e6:	4620      	mov	r0, r4
    28e8:	4629      	mov	r1, r5
    28ea:	f7fd ff8f 	bl	80c <__adddf3>
    28ee:	4602      	mov	r2, r0
    28f0:	460b      	mov	r3, r1
    28f2:	4610      	mov	r0, r2
    28f4:	4619      	mov	r1, r3
    28f6:	f04f 0200 	mov.w	r2, #0
    28fa:	f04f 4340 	mov.w	r3, #3221225472	; 0xc0000000
    28fe:	f7fe f937 	bl	b70 <__aeabi_dmul>
    2902:	4602      	mov	r2, r0
    2904:	460b      	mov	r3, r1
    2906:	4610      	mov	r0, r2
    2908:	4619      	mov	r1, r3
    290a:	f24e 0370 	movw	r3, #57456	; 0xe070
    290e:	f6c1 73ff 	movt	r3, #8191	; 0x1fff
    2912:	e9c3 0102 	strd	r0, r1, [r3, #8]
                a2 =        (A+1.0) + (A-1.0)*cos(w0) - 2.0*sqrt(A)*alpha;
    2916:	f24e 0360 	movw	r3, #57440	; 0xe060
    291a:	f6c1 73ff 	movt	r3, #8191	; 0x1fff
    291e:	e9d3 2300 	ldrd	r2, r3, [r3]
    2922:	4610      	mov	r0, r2
    2924:	4619      	mov	r1, r3
    2926:	f04f 0200 	mov.w	r2, #0
    292a:	f04f 0300 	mov.w	r3, #0
    292e:	f6c3 73f0 	movt	r3, #16368	; 0x3ff0
    2932:	f7fd ff6b 	bl	80c <__adddf3>
    2936:	4602      	mov	r2, r0
    2938:	460b      	mov	r3, r1
    293a:	4614      	mov	r4, r2
    293c:	461d      	mov	r5, r3
    293e:	f24e 0360 	movw	r3, #57440	; 0xe060
    2942:	f6c1 73ff 	movt	r3, #8191	; 0x1fff
    2946:	e9d3 2300 	ldrd	r2, r3, [r3]
    294a:	4610      	mov	r0, r2
    294c:	4619      	mov	r1, r3
    294e:	f04f 0200 	mov.w	r2, #0
    2952:	f04f 0300 	mov.w	r3, #0
    2956:	f6c3 73f0 	movt	r3, #16368	; 0x3ff0
    295a:	f7fd ff55 	bl	808 <__aeabi_dsub>
    295e:	4602      	mov	r2, r0
    2960:	460b      	mov	r3, r1
    2962:	4690      	mov	r8, r2
    2964:	4699      	mov	r9, r3
    2966:	f24e 0368 	movw	r3, #57448	; 0xe068
    296a:	f6c1 73ff 	movt	r3, #8191	; 0x1fff
    296e:	e9d3 2300 	ldrd	r2, r3, [r3]
    2972:	4610      	mov	r0, r2
    2974:	4619      	mov	r1, r3
    2976:	f005 f9fd 	bl	7d74 <cos>
    297a:	4602      	mov	r2, r0
    297c:	460b      	mov	r3, r1
    297e:	4640      	mov	r0, r8
    2980:	4649      	mov	r1, r9
    2982:	f7fe f8f5 	bl	b70 <__aeabi_dmul>
    2986:	4602      	mov	r2, r0
    2988:	460b      	mov	r3, r1
    298a:	4620      	mov	r0, r4
    298c:	4629      	mov	r1, r5
    298e:	f7fd ff3d 	bl	80c <__adddf3>
    2992:	4602      	mov	r2, r0
    2994:	460b      	mov	r3, r1
    2996:	4614      	mov	r4, r2
    2998:	461d      	mov	r5, r3
    299a:	f24e 0360 	movw	r3, #57440	; 0xe060
    299e:	f6c1 73ff 	movt	r3, #8191	; 0x1fff
    29a2:	e9d3 2300 	ldrd	r2, r3, [r3]
    29a6:	4610      	mov	r0, r2
    29a8:	4619      	mov	r1, r3
    29aa:	f005 faad 	bl	7f08 <sqrt>
    29ae:	4602      	mov	r2, r0
    29b0:	460b      	mov	r3, r1
    29b2:	4610      	mov	r0, r2
    29b4:	4619      	mov	r1, r3
    29b6:	f7fd ff29 	bl	80c <__adddf3>
    29ba:	4602      	mov	r2, r0
    29bc:	460b      	mov	r3, r1
    29be:	4610      	mov	r0, r2
    29c0:	4619      	mov	r1, r3
    29c2:	f24e 03a0 	movw	r3, #57504	; 0xe0a0
    29c6:	f6c1 73ff 	movt	r3, #8191	; 0x1fff
    29ca:	e9d3 2300 	ldrd	r2, r3, [r3]
    29ce:	f7fe f8cf 	bl	b70 <__aeabi_dmul>
    29d2:	4602      	mov	r2, r0
    29d4:	460b      	mov	r3, r1
    29d6:	4620      	mov	r0, r4
    29d8:	4629      	mov	r1, r5
    29da:	f7fd ff15 	bl	808 <__aeabi_dsub>
    29de:	4602      	mov	r2, r0
    29e0:	460b      	mov	r3, r1
    29e2:	4610      	mov	r0, r2
    29e4:	4619      	mov	r1, r3
    29e6:	f24e 0370 	movw	r3, #57456	; 0xe070
    29ea:	f6c1 73ff 	movt	r3, #8191	; 0x1fff
    29ee:	e9c3 0104 	strd	r0, r1, [r3, #16]
                break;
    29f2:	e27e      	b.n	2ef2 <DesignAudioBiquadIIR_q31_t+0x1442>

            case           BIQUAD_HIGH_SHELF:
                b0 =    A*( (A+1) + (A-1)*cos(w0) + 2*sqrt(A)*alpha );
    29f4:	f24e 0360 	movw	r3, #57440	; 0xe060
    29f8:	f6c1 73ff 	movt	r3, #8191	; 0x1fff
    29fc:	e9d3 2300 	ldrd	r2, r3, [r3]
    2a00:	4610      	mov	r0, r2
    2a02:	4619      	mov	r1, r3
    2a04:	f04f 0200 	mov.w	r2, #0
    2a08:	f04f 0300 	mov.w	r3, #0
    2a0c:	f6c3 73f0 	movt	r3, #16368	; 0x3ff0
    2a10:	f7fd fefc 	bl	80c <__adddf3>
    2a14:	4602      	mov	r2, r0
    2a16:	460b      	mov	r3, r1
    2a18:	4614      	mov	r4, r2
    2a1a:	461d      	mov	r5, r3
    2a1c:	f24e 0360 	movw	r3, #57440	; 0xe060
    2a20:	f6c1 73ff 	movt	r3, #8191	; 0x1fff
    2a24:	e9d3 2300 	ldrd	r2, r3, [r3]
    2a28:	4610      	mov	r0, r2
    2a2a:	4619      	mov	r1, r3
    2a2c:	f04f 0200 	mov.w	r2, #0
    2a30:	f04f 0300 	mov.w	r3, #0
    2a34:	f6c3 73f0 	movt	r3, #16368	; 0x3ff0
    2a38:	f7fd fee6 	bl	808 <__aeabi_dsub>
    2a3c:	4602      	mov	r2, r0
    2a3e:	460b      	mov	r3, r1
    2a40:	4690      	mov	r8, r2
    2a42:	4699      	mov	r9, r3
    2a44:	f24e 0368 	movw	r3, #57448	; 0xe068
    2a48:	f6c1 73ff 	movt	r3, #8191	; 0x1fff
    2a4c:	e9d3 2300 	ldrd	r2, r3, [r3]
    2a50:	4610      	mov	r0, r2
    2a52:	4619      	mov	r1, r3
    2a54:	f005 f98e 	bl	7d74 <cos>
    2a58:	4602      	mov	r2, r0
    2a5a:	460b      	mov	r3, r1
    2a5c:	4640      	mov	r0, r8
    2a5e:	4649      	mov	r1, r9
    2a60:	f7fe f886 	bl	b70 <__aeabi_dmul>
    2a64:	4602      	mov	r2, r0
    2a66:	460b      	mov	r3, r1
    2a68:	4620      	mov	r0, r4
    2a6a:	4629      	mov	r1, r5
    2a6c:	f7fd fece 	bl	80c <__adddf3>
    2a70:	4602      	mov	r2, r0
    2a72:	460b      	mov	r3, r1
    2a74:	4614      	mov	r4, r2
    2a76:	461d      	mov	r5, r3
    2a78:	f24e 0360 	movw	r3, #57440	; 0xe060
    2a7c:	f6c1 73ff 	movt	r3, #8191	; 0x1fff
    2a80:	e9d3 2300 	ldrd	r2, r3, [r3]
    2a84:	4610      	mov	r0, r2
    2a86:	4619      	mov	r1, r3
    2a88:	f005 fa3e 	bl	7f08 <sqrt>
    2a8c:	4602      	mov	r2, r0
    2a8e:	460b      	mov	r3, r1
    2a90:	4610      	mov	r0, r2
    2a92:	4619      	mov	r1, r3
    2a94:	f7fd feba 	bl	80c <__adddf3>
    2a98:	4602      	mov	r2, r0
    2a9a:	460b      	mov	r3, r1
    2a9c:	4610      	mov	r0, r2
    2a9e:	4619      	mov	r1, r3
    2aa0:	f24e 03a0 	movw	r3, #57504	; 0xe0a0
    2aa4:	f6c1 73ff 	movt	r3, #8191	; 0x1fff
    2aa8:	e9d3 2300 	ldrd	r2, r3, [r3]
    2aac:	f7fe f860 	bl	b70 <__aeabi_dmul>
    2ab0:	4602      	mov	r2, r0
    2ab2:	460b      	mov	r3, r1
    2ab4:	4620      	mov	r0, r4
    2ab6:	4629      	mov	r1, r5
    2ab8:	f7fd fea8 	bl	80c <__adddf3>
    2abc:	4602      	mov	r2, r0
    2abe:	460b      	mov	r3, r1
    2ac0:	4610      	mov	r0, r2
    2ac2:	4619      	mov	r1, r3
    2ac4:	f24e 0360 	movw	r3, #57440	; 0xe060
    2ac8:	f6c1 73ff 	movt	r3, #8191	; 0x1fff
    2acc:	e9d3 2300 	ldrd	r2, r3, [r3]
    2ad0:	f7fe f84e 	bl	b70 <__aeabi_dmul>
    2ad4:	4602      	mov	r2, r0
    2ad6:	460b      	mov	r3, r1
    2ad8:	4610      	mov	r0, r2
    2ada:	4619      	mov	r1, r3
    2adc:	f24e 0370 	movw	r3, #57456	; 0xe070
    2ae0:	f6c1 73ff 	movt	r3, #8191	; 0x1fff
    2ae4:	e9c3 0106 	strd	r0, r1, [r3, #24]
                b1 = -2*A*( (A-1) + (A+1)*cos(w0)                   );
    2ae8:	f24e 0360 	movw	r3, #57440	; 0xe060
    2aec:	f6c1 73ff 	movt	r3, #8191	; 0x1fff
    2af0:	e9d3 2300 	ldrd	r2, r3, [r3]
    2af4:	4610      	mov	r0, r2
    2af6:	4619      	mov	r1, r3
    2af8:	f04f 0200 	mov.w	r2, #0
    2afc:	f04f 4340 	mov.w	r3, #3221225472	; 0xc0000000
    2b00:	f7fe f836 	bl	b70 <__aeabi_dmul>
    2b04:	4602      	mov	r2, r0
    2b06:	460b      	mov	r3, r1
    2b08:	4614      	mov	r4, r2
    2b0a:	461d      	mov	r5, r3
    2b0c:	f24e 0360 	movw	r3, #57440	; 0xe060
    2b10:	f6c1 73ff 	movt	r3, #8191	; 0x1fff
    2b14:	e9d3 2300 	ldrd	r2, r3, [r3]
    2b18:	4610      	mov	r0, r2
    2b1a:	4619      	mov	r1, r3
    2b1c:	f04f 0200 	mov.w	r2, #0
    2b20:	f04f 0300 	mov.w	r3, #0
    2b24:	f6c3 73f0 	movt	r3, #16368	; 0x3ff0
    2b28:	f7fd fe6e 	bl	808 <__aeabi_dsub>
    2b2c:	4602      	mov	r2, r0
    2b2e:	460b      	mov	r3, r1
    2b30:	4690      	mov	r8, r2
    2b32:	4699      	mov	r9, r3
    2b34:	f24e 0360 	movw	r3, #57440	; 0xe060
    2b38:	f6c1 73ff 	movt	r3, #8191	; 0x1fff
    2b3c:	e9d3 2300 	ldrd	r2, r3, [r3]
    2b40:	4610      	mov	r0, r2
    2b42:	4619      	mov	r1, r3
    2b44:	f04f 0200 	mov.w	r2, #0
    2b48:	f04f 0300 	mov.w	r3, #0
    2b4c:	f6c3 73f0 	movt	r3, #16368	; 0x3ff0
    2b50:	f7fd fe5c 	bl	80c <__adddf3>
    2b54:	4602      	mov	r2, r0
    2b56:	460b      	mov	r3, r1
    2b58:	4692      	mov	sl, r2
    2b5a:	469b      	mov	fp, r3
    2b5c:	f24e 0368 	movw	r3, #57448	; 0xe068
    2b60:	f6c1 73ff 	movt	r3, #8191	; 0x1fff
    2b64:	e9d3 2300 	ldrd	r2, r3, [r3]
    2b68:	4610      	mov	r0, r2
    2b6a:	4619      	mov	r1, r3
    2b6c:	f005 f902 	bl	7d74 <cos>
    2b70:	4602      	mov	r2, r0
    2b72:	460b      	mov	r3, r1
    2b74:	4650      	mov	r0, sl
    2b76:	4659      	mov	r1, fp
    2b78:	f7fd fffa 	bl	b70 <__aeabi_dmul>
    2b7c:	4602      	mov	r2, r0
    2b7e:	460b      	mov	r3, r1
    2b80:	4640      	mov	r0, r8
    2b82:	4649      	mov	r1, r9
    2b84:	f7fd fe42 	bl	80c <__adddf3>
    2b88:	4602      	mov	r2, r0
    2b8a:	460b      	mov	r3, r1
    2b8c:	4620      	mov	r0, r4
    2b8e:	4629      	mov	r1, r5
    2b90:	f7fd ffee 	bl	b70 <__aeabi_dmul>
    2b94:	4602      	mov	r2, r0
    2b96:	460b      	mov	r3, r1
    2b98:	4610      	mov	r0, r2
    2b9a:	4619      	mov	r1, r3
    2b9c:	f24e 0370 	movw	r3, #57456	; 0xe070
    2ba0:	f6c1 73ff 	movt	r3, #8191	; 0x1fff
    2ba4:	e9c3 0108 	strd	r0, r1, [r3, #32]
                b2 =    A*( (A+1) + (A-1)*cos(w0) - 2*sqrt(A)*alpha );
    2ba8:	f24e 0360 	movw	r3, #57440	; 0xe060
    2bac:	f6c1 73ff 	movt	r3, #8191	; 0x1fff
    2bb0:	e9d3 2300 	ldrd	r2, r3, [r3]
    2bb4:	4610      	mov	r0, r2
    2bb6:	4619      	mov	r1, r3
    2bb8:	f04f 0200 	mov.w	r2, #0
    2bbc:	f04f 0300 	mov.w	r3, #0
    2bc0:	f6c3 73f0 	movt	r3, #16368	; 0x3ff0
    2bc4:	f7fd fe22 	bl	80c <__adddf3>
    2bc8:	4602      	mov	r2, r0
    2bca:	460b      	mov	r3, r1
    2bcc:	4614      	mov	r4, r2
    2bce:	461d      	mov	r5, r3
    2bd0:	f24e 0360 	movw	r3, #57440	; 0xe060
    2bd4:	f6c1 73ff 	movt	r3, #8191	; 0x1fff
    2bd8:	e9d3 2300 	ldrd	r2, r3, [r3]
    2bdc:	4610      	mov	r0, r2
    2bde:	4619      	mov	r1, r3
    2be0:	f04f 0200 	mov.w	r2, #0
    2be4:	f04f 0300 	mov.w	r3, #0
    2be8:	f6c3 73f0 	movt	r3, #16368	; 0x3ff0
    2bec:	f7fd fe0c 	bl	808 <__aeabi_dsub>
    2bf0:	4602      	mov	r2, r0
    2bf2:	460b      	mov	r3, r1
    2bf4:	4690      	mov	r8, r2
    2bf6:	4699      	mov	r9, r3
    2bf8:	f24e 0368 	movw	r3, #57448	; 0xe068
    2bfc:	f6c1 73ff 	movt	r3, #8191	; 0x1fff
    2c00:	e9d3 2300 	ldrd	r2, r3, [r3]
    2c04:	4610      	mov	r0, r2
    2c06:	4619      	mov	r1, r3
    2c08:	f005 f8b4 	bl	7d74 <cos>
    2c0c:	4602      	mov	r2, r0
    2c0e:	460b      	mov	r3, r1
    2c10:	4640      	mov	r0, r8
    2c12:	4649      	mov	r1, r9
    2c14:	f7fd ffac 	bl	b70 <__aeabi_dmul>
    2c18:	4602      	mov	r2, r0
    2c1a:	460b      	mov	r3, r1
    2c1c:	4620      	mov	r0, r4
    2c1e:	4629      	mov	r1, r5
    2c20:	f7fd fdf4 	bl	80c <__adddf3>
    2c24:	4602      	mov	r2, r0
    2c26:	460b      	mov	r3, r1
    2c28:	4614      	mov	r4, r2
    2c2a:	461d      	mov	r5, r3
    2c2c:	f24e 0360 	movw	r3, #57440	; 0xe060
    2c30:	f6c1 73ff 	movt	r3, #8191	; 0x1fff
    2c34:	e9d3 2300 	ldrd	r2, r3, [r3]
    2c38:	4610      	mov	r0, r2
    2c3a:	4619      	mov	r1, r3
    2c3c:	f005 f964 	bl	7f08 <sqrt>
    2c40:	4602      	mov	r2, r0
    2c42:	460b      	mov	r3, r1
    2c44:	4610      	mov	r0, r2
    2c46:	4619      	mov	r1, r3
    2c48:	f7fd fde0 	bl	80c <__adddf3>
    2c4c:	4602      	mov	r2, r0
    2c4e:	460b      	mov	r3, r1
    2c50:	4610      	mov	r0, r2
    2c52:	4619      	mov	r1, r3
    2c54:	f24e 03a0 	movw	r3, #57504	; 0xe0a0
    2c58:	f6c1 73ff 	movt	r3, #8191	; 0x1fff
    2c5c:	e9d3 2300 	ldrd	r2, r3, [r3]
    2c60:	f7fd ff86 	bl	b70 <__aeabi_dmul>
    2c64:	4602      	mov	r2, r0
    2c66:	460b      	mov	r3, r1
    2c68:	4620      	mov	r0, r4
    2c6a:	4629      	mov	r1, r5
    2c6c:	f7fd fdcc 	bl	808 <__aeabi_dsub>
    2c70:	4602      	mov	r2, r0
    2c72:	460b      	mov	r3, r1
    2c74:	4610      	mov	r0, r2
    2c76:	4619      	mov	r1, r3
    2c78:	f24e 0360 	movw	r3, #57440	; 0xe060
    2c7c:	f6c1 73ff 	movt	r3, #8191	; 0x1fff
    2c80:	e9d3 2300 	ldrd	r2, r3, [r3]
    2c84:	f7fd ff74 	bl	b70 <__aeabi_dmul>
    2c88:	4602      	mov	r2, r0
    2c8a:	460b      	mov	r3, r1
    2c8c:	4610      	mov	r0, r2
    2c8e:	4619      	mov	r1, r3
    2c90:	f24e 0370 	movw	r3, #57456	; 0xe070
    2c94:	f6c1 73ff 	movt	r3, #8191	; 0x1fff
    2c98:	e9c3 010a 	strd	r0, r1, [r3, #40]	; 0x28
                a0 =        (A+1) - (A-1)*cos(w0) + 2*sqrt(A)*alpha;
    2c9c:	f24e 0360 	movw	r3, #57440	; 0xe060
    2ca0:	f6c1 73ff 	movt	r3, #8191	; 0x1fff
    2ca4:	e9d3 2300 	ldrd	r2, r3, [r3]
    2ca8:	4610      	mov	r0, r2
    2caa:	4619      	mov	r1, r3
    2cac:	f04f 0200 	mov.w	r2, #0
    2cb0:	f04f 0300 	mov.w	r3, #0
    2cb4:	f6c3 73f0 	movt	r3, #16368	; 0x3ff0
    2cb8:	f7fd fda8 	bl	80c <__adddf3>
    2cbc:	4602      	mov	r2, r0
    2cbe:	460b      	mov	r3, r1
    2cc0:	4614      	mov	r4, r2
    2cc2:	461d      	mov	r5, r3
    2cc4:	f24e 0360 	movw	r3, #57440	; 0xe060
    2cc8:	f6c1 73ff 	movt	r3, #8191	; 0x1fff
    2ccc:	e9d3 2300 	ldrd	r2, r3, [r3]
    2cd0:	4610      	mov	r0, r2
    2cd2:	4619      	mov	r1, r3
    2cd4:	f04f 0200 	mov.w	r2, #0
    2cd8:	f04f 0300 	mov.w	r3, #0
    2cdc:	f6c3 73f0 	movt	r3, #16368	; 0x3ff0
    2ce0:	f7fd fd92 	bl	808 <__aeabi_dsub>
    2ce4:	4602      	mov	r2, r0
    2ce6:	460b      	mov	r3, r1
    2ce8:	4690      	mov	r8, r2
    2cea:	4699      	mov	r9, r3
    2cec:	f24e 0368 	movw	r3, #57448	; 0xe068
    2cf0:	f6c1 73ff 	movt	r3, #8191	; 0x1fff
    2cf4:	e9d3 2300 	ldrd	r2, r3, [r3]
    2cf8:	4610      	mov	r0, r2
    2cfa:	4619      	mov	r1, r3
    2cfc:	f005 f83a 	bl	7d74 <cos>
    2d00:	4602      	mov	r2, r0
    2d02:	460b      	mov	r3, r1
    2d04:	4640      	mov	r0, r8
    2d06:	4649      	mov	r1, r9
    2d08:	f7fd ff32 	bl	b70 <__aeabi_dmul>
    2d0c:	4602      	mov	r2, r0
    2d0e:	460b      	mov	r3, r1
    2d10:	4620      	mov	r0, r4
    2d12:	4629      	mov	r1, r5
    2d14:	f7fd fd78 	bl	808 <__aeabi_dsub>
    2d18:	4602      	mov	r2, r0
    2d1a:	460b      	mov	r3, r1
    2d1c:	4614      	mov	r4, r2
    2d1e:	461d      	mov	r5, r3
    2d20:	f24e 0360 	movw	r3, #57440	; 0xe060
    2d24:	f6c1 73ff 	movt	r3, #8191	; 0x1fff
    2d28:	e9d3 2300 	ldrd	r2, r3, [r3]
    2d2c:	4610      	mov	r0, r2
    2d2e:	4619      	mov	r1, r3
    2d30:	f005 f8ea 	bl	7f08 <sqrt>
    2d34:	4602      	mov	r2, r0
    2d36:	460b      	mov	r3, r1
    2d38:	4610      	mov	r0, r2
    2d3a:	4619      	mov	r1, r3
    2d3c:	f7fd fd66 	bl	80c <__adddf3>
    2d40:	4602      	mov	r2, r0
    2d42:	460b      	mov	r3, r1
    2d44:	4610      	mov	r0, r2
    2d46:	4619      	mov	r1, r3
    2d48:	f24e 03a0 	movw	r3, #57504	; 0xe0a0
    2d4c:	f6c1 73ff 	movt	r3, #8191	; 0x1fff
    2d50:	e9d3 2300 	ldrd	r2, r3, [r3]
    2d54:	f7fd ff0c 	bl	b70 <__aeabi_dmul>
    2d58:	4602      	mov	r2, r0
    2d5a:	460b      	mov	r3, r1
    2d5c:	4620      	mov	r0, r4
    2d5e:	4629      	mov	r1, r5
    2d60:	f7fd fd54 	bl	80c <__adddf3>
    2d64:	4602      	mov	r2, r0
    2d66:	460b      	mov	r3, r1
    2d68:	4610      	mov	r0, r2
    2d6a:	4619      	mov	r1, r3
    2d6c:	f24e 0370 	movw	r3, #57456	; 0xe070
    2d70:	f6c1 73ff 	movt	r3, #8191	; 0x1fff
    2d74:	e9c3 0100 	strd	r0, r1, [r3]
                a1 =    2*( (A-1) - (A+1)*cos(w0)                   );
    2d78:	f24e 0360 	movw	r3, #57440	; 0xe060
    2d7c:	f6c1 73ff 	movt	r3, #8191	; 0x1fff
    2d80:	e9d3 2300 	ldrd	r2, r3, [r3]
    2d84:	4610      	mov	r0, r2
    2d86:	4619      	mov	r1, r3
    2d88:	f04f 0200 	mov.w	r2, #0
    2d8c:	f04f 0300 	mov.w	r3, #0
    2d90:	f6c3 73f0 	movt	r3, #16368	; 0x3ff0
    2d94:	f7fd fd38 	bl	808 <__aeabi_dsub>
    2d98:	4602      	mov	r2, r0
    2d9a:	460b      	mov	r3, r1
    2d9c:	4614      	mov	r4, r2
    2d9e:	461d      	mov	r5, r3
    2da0:	f24e 0360 	movw	r3, #57440	; 0xe060
    2da4:	f6c1 73ff 	movt	r3, #8191	; 0x1fff
    2da8:	e9d3 2300 	ldrd	r2, r3, [r3]
    2dac:	4610      	mov	r0, r2
    2dae:	4619      	mov	r1, r3
    2db0:	f04f 0200 	mov.w	r2, #0
    2db4:	f04f 0300 	mov.w	r3, #0
    2db8:	f6c3 73f0 	movt	r3, #16368	; 0x3ff0
    2dbc:	f7fd fd26 	bl	80c <__adddf3>
    2dc0:	4602      	mov	r2, r0
    2dc2:	460b      	mov	r3, r1
    2dc4:	4690      	mov	r8, r2
    2dc6:	4699      	mov	r9, r3
    2dc8:	f24e 0368 	movw	r3, #57448	; 0xe068
    2dcc:	f6c1 73ff 	movt	r3, #8191	; 0x1fff
    2dd0:	e9d3 2300 	ldrd	r2, r3, [r3]
    2dd4:	4610      	mov	r0, r2
    2dd6:	4619      	mov	r1, r3
    2dd8:	f004 ffcc 	bl	7d74 <cos>
    2ddc:	4602      	mov	r2, r0
    2dde:	460b      	mov	r3, r1
    2de0:	4640      	mov	r0, r8
    2de2:	4649      	mov	r1, r9
    2de4:	f7fd fec4 	bl	b70 <__aeabi_dmul>
    2de8:	4602      	mov	r2, r0
    2dea:	460b      	mov	r3, r1
    2dec:	4620      	mov	r0, r4
    2dee:	4629      	mov	r1, r5
    2df0:	f7fd fd0a 	bl	808 <__aeabi_dsub>
    2df4:	4602      	mov	r2, r0
    2df6:	460b      	mov	r3, r1
    2df8:	4610      	mov	r0, r2
    2dfa:	4619      	mov	r1, r3
    2dfc:	f7fd fd06 	bl	80c <__adddf3>
    2e00:	4602      	mov	r2, r0
    2e02:	460b      	mov	r3, r1
    2e04:	4610      	mov	r0, r2
    2e06:	4619      	mov	r1, r3
    2e08:	f24e 0370 	movw	r3, #57456	; 0xe070
    2e0c:	f6c1 73ff 	movt	r3, #8191	; 0x1fff
    2e10:	e9c3 0102 	strd	r0, r1, [r3, #8]
                a2 =        (A+1) - (A-1)*cos(w0) - 2*sqrt(A)*alpha;
    2e14:	f24e 0360 	movw	r3, #57440	; 0xe060
    2e18:	f6c1 73ff 	movt	r3, #8191	; 0x1fff
    2e1c:	e9d3 2300 	ldrd	r2, r3, [r3]
    2e20:	4610      	mov	r0, r2
    2e22:	4619      	mov	r1, r3
    2e24:	f04f 0200 	mov.w	r2, #0
    2e28:	f04f 0300 	mov.w	r3, #0
    2e2c:	f6c3 73f0 	movt	r3, #16368	; 0x3ff0
    2e30:	f7fd fcec 	bl	80c <__adddf3>
    2e34:	4602      	mov	r2, r0
    2e36:	460b      	mov	r3, r1
    2e38:	4614      	mov	r4, r2
    2e3a:	461d      	mov	r5, r3
    2e3c:	f24e 0360 	movw	r3, #57440	; 0xe060
    2e40:	f6c1 73ff 	movt	r3, #8191	; 0x1fff
    2e44:	e9d3 2300 	ldrd	r2, r3, [r3]
    2e48:	4610      	mov	r0, r2
    2e4a:	4619      	mov	r1, r3
    2e4c:	f04f 0200 	mov.w	r2, #0
    2e50:	f04f 0300 	mov.w	r3, #0
    2e54:	f6c3 73f0 	movt	r3, #16368	; 0x3ff0
    2e58:	f7fd fcd6 	bl	808 <__aeabi_dsub>
    2e5c:	4602      	mov	r2, r0
    2e5e:	460b      	mov	r3, r1
    2e60:	4690      	mov	r8, r2
    2e62:	4699      	mov	r9, r3
    2e64:	f24e 0368 	movw	r3, #57448	; 0xe068
    2e68:	f6c1 73ff 	movt	r3, #8191	; 0x1fff
    2e6c:	e9d3 2300 	ldrd	r2, r3, [r3]
    2e70:	4610      	mov	r0, r2
    2e72:	4619      	mov	r1, r3
    2e74:	f004 ff7e 	bl	7d74 <cos>
    2e78:	4602      	mov	r2, r0
    2e7a:	460b      	mov	r3, r1
    2e7c:	4640      	mov	r0, r8
    2e7e:	4649      	mov	r1, r9
    2e80:	f7fd fe76 	bl	b70 <__aeabi_dmul>
    2e84:	4602      	mov	r2, r0
    2e86:	460b      	mov	r3, r1
    2e88:	4620      	mov	r0, r4
    2e8a:	4629      	mov	r1, r5
    2e8c:	f7fd fcbc 	bl	808 <__aeabi_dsub>
    2e90:	4602      	mov	r2, r0
    2e92:	460b      	mov	r3, r1
    2e94:	4614      	mov	r4, r2
    2e96:	461d      	mov	r5, r3
    2e98:	f24e 0360 	movw	r3, #57440	; 0xe060
    2e9c:	f6c1 73ff 	movt	r3, #8191	; 0x1fff
    2ea0:	e9d3 2300 	ldrd	r2, r3, [r3]
    2ea4:	4610      	mov	r0, r2
    2ea6:	4619      	mov	r1, r3
    2ea8:	f005 f82e 	bl	7f08 <sqrt>
    2eac:	4602      	mov	r2, r0
    2eae:	460b      	mov	r3, r1
    2eb0:	4610      	mov	r0, r2
    2eb2:	4619      	mov	r1, r3
    2eb4:	f7fd fcaa 	bl	80c <__adddf3>
    2eb8:	4602      	mov	r2, r0
    2eba:	460b      	mov	r3, r1
    2ebc:	4610      	mov	r0, r2
    2ebe:	4619      	mov	r1, r3
    2ec0:	f24e 03a0 	movw	r3, #57504	; 0xe0a0
    2ec4:	f6c1 73ff 	movt	r3, #8191	; 0x1fff
    2ec8:	e9d3 2300 	ldrd	r2, r3, [r3]
    2ecc:	f7fd fe50 	bl	b70 <__aeabi_dmul>
    2ed0:	4602      	mov	r2, r0
    2ed2:	460b      	mov	r3, r1
    2ed4:	4620      	mov	r0, r4
    2ed6:	4629      	mov	r1, r5
    2ed8:	f7fd fc96 	bl	808 <__aeabi_dsub>
    2edc:	4602      	mov	r2, r0
    2ede:	460b      	mov	r3, r1
    2ee0:	4610      	mov	r0, r2
    2ee2:	4619      	mov	r1, r3
    2ee4:	f24e 0370 	movw	r3, #57456	; 0xe070
    2ee8:	f6c1 73ff 	movt	r3, #8191	; 0x1fff
    2eec:	e9c3 0104 	strd	r0, r1, [r3, #16]
                break;
    2ef0:	bf00      	nop
                            + (a1/a0)*y[n-1] + (a2/a0)*y[n-2]            (Eq 4)

                            THis means that 2 feedback coef. have to be inverted

      */
    b0 = b0/a0;
    2ef2:	f24e 0370 	movw	r3, #57456	; 0xe070
    2ef6:	f6c1 73ff 	movt	r3, #8191	; 0x1fff
    2efa:	e9d3 0106 	ldrd	r0, r1, [r3, #24]
    2efe:	f24e 0370 	movw	r3, #57456	; 0xe070
    2f02:	f6c1 73ff 	movt	r3, #8191	; 0x1fff
    2f06:	e9d3 2300 	ldrd	r2, r3, [r3]
    2f0a:	f7fd ff5b 	bl	dc4 <__aeabi_ddiv>
    2f0e:	4602      	mov	r2, r0
    2f10:	460b      	mov	r3, r1
    2f12:	4610      	mov	r0, r2
    2f14:	4619      	mov	r1, r3
    2f16:	f24e 0370 	movw	r3, #57456	; 0xe070
    2f1a:	f6c1 73ff 	movt	r3, #8191	; 0x1fff
    2f1e:	e9c3 0106 	strd	r0, r1, [r3, #24]
    b1 = b1/a0;
    2f22:	f24e 0370 	movw	r3, #57456	; 0xe070
    2f26:	f6c1 73ff 	movt	r3, #8191	; 0x1fff
    2f2a:	e9d3 0108 	ldrd	r0, r1, [r3, #32]
    2f2e:	f24e 0370 	movw	r3, #57456	; 0xe070
    2f32:	f6c1 73ff 	movt	r3, #8191	; 0x1fff
    2f36:	e9d3 2300 	ldrd	r2, r3, [r3]
    2f3a:	f7fd ff43 	bl	dc4 <__aeabi_ddiv>
    2f3e:	4602      	mov	r2, r0
    2f40:	460b      	mov	r3, r1
    2f42:	4610      	mov	r0, r2
    2f44:	4619      	mov	r1, r3
    2f46:	f24e 0370 	movw	r3, #57456	; 0xe070
    2f4a:	f6c1 73ff 	movt	r3, #8191	; 0x1fff
    2f4e:	e9c3 0108 	strd	r0, r1, [r3, #32]
    b2 = b2/a0;
    2f52:	f24e 0370 	movw	r3, #57456	; 0xe070
    2f56:	f6c1 73ff 	movt	r3, #8191	; 0x1fff
    2f5a:	e9d3 010a 	ldrd	r0, r1, [r3, #40]	; 0x28
    2f5e:	f24e 0370 	movw	r3, #57456	; 0xe070
    2f62:	f6c1 73ff 	movt	r3, #8191	; 0x1fff
    2f66:	e9d3 2300 	ldrd	r2, r3, [r3]
    2f6a:	f7fd ff2b 	bl	dc4 <__aeabi_ddiv>
    2f6e:	4602      	mov	r2, r0
    2f70:	460b      	mov	r3, r1
    2f72:	4610      	mov	r0, r2
    2f74:	4619      	mov	r1, r3
    2f76:	f24e 0370 	movw	r3, #57456	; 0xe070
    2f7a:	f6c1 73ff 	movt	r3, #8191	; 0x1fff
    2f7e:	e9c3 010a 	strd	r0, r1, [r3, #40]	; 0x28
    a1 = a1/a0;
    2f82:	f24e 0370 	movw	r3, #57456	; 0xe070
    2f86:	f6c1 73ff 	movt	r3, #8191	; 0x1fff
    2f8a:	e9d3 0102 	ldrd	r0, r1, [r3, #8]
    2f8e:	f24e 0370 	movw	r3, #57456	; 0xe070
    2f92:	f6c1 73ff 	movt	r3, #8191	; 0x1fff
    2f96:	e9d3 2300 	ldrd	r2, r3, [r3]
    2f9a:	f7fd ff13 	bl	dc4 <__aeabi_ddiv>
    2f9e:	4602      	mov	r2, r0
    2fa0:	460b      	mov	r3, r1
    2fa2:	4610      	mov	r0, r2
    2fa4:	4619      	mov	r1, r3
    2fa6:	f24e 0370 	movw	r3, #57456	; 0xe070
    2faa:	f6c1 73ff 	movt	r3, #8191	; 0x1fff
    2fae:	e9c3 0102 	strd	r0, r1, [r3, #8]
    a2 = a2/a0;
    2fb2:	f24e 0370 	movw	r3, #57456	; 0xe070
    2fb6:	f6c1 73ff 	movt	r3, #8191	; 0x1fff
    2fba:	e9d3 0104 	ldrd	r0, r1, [r3, #16]
    2fbe:	f24e 0370 	movw	r3, #57456	; 0xe070
    2fc2:	f6c1 73ff 	movt	r3, #8191	; 0x1fff
    2fc6:	e9d3 2300 	ldrd	r2, r3, [r3]
    2fca:	f7fd fefb 	bl	dc4 <__aeabi_ddiv>
    2fce:	4602      	mov	r2, r0
    2fd0:	460b      	mov	r3, r1
    2fd2:	4610      	mov	r0, r2
    2fd4:	4619      	mov	r1, r3
    2fd6:	f24e 0370 	movw	r3, #57456	; 0xe070
    2fda:	f6c1 73ff 	movt	r3, #8191	; 0x1fff
    2fde:	e9c3 0104 	strd	r0, r1, [r3, #16]
    a0 = 1.0;
    2fe2:	f24e 0370 	movw	r3, #57456	; 0xe070
    2fe6:	f6c1 73ff 	movt	r3, #8191	; 0x1fff
    2fea:	f04f 0000 	mov.w	r0, #0
    2fee:	f04f 0100 	mov.w	r1, #0
    2ff2:	f6c3 71f0 	movt	r1, #16368	; 0x3ff0
    2ff6:	e9c3 0100 	strd	r0, r1, [r3]
    a1 = a1 * -1.0;
    2ffa:	f24e 0370 	movw	r3, #57456	; 0xe070
    2ffe:	f6c1 73ff 	movt	r3, #8191	; 0x1fff
    3002:	e9d3 2302 	ldrd	r2, r3, [r3, #8]
    3006:	4611      	mov	r1, r2
    3008:	60b9      	str	r1, [r7, #8]
    300a:	f083 4000 	eor.w	r0, r3, #2147483648	; 0x80000000
    300e:	60f8      	str	r0, [r7, #12]
    3010:	f24e 0370 	movw	r3, #57456	; 0xe070
    3014:	f6c1 73ff 	movt	r3, #8191	; 0x1fff
    3018:	e9d7 0102 	ldrd	r0, r1, [r7, #8]
    301c:	e9c3 0102 	strd	r0, r1, [r3, #8]
    a2 = a2 * -1.0;
    3020:	f24e 0370 	movw	r3, #57456	; 0xe070
    3024:	f6c1 73ff 	movt	r3, #8191	; 0x1fff
    3028:	e9d3 2304 	ldrd	r2, r3, [r3, #16]
    302c:	4611      	mov	r1, r2
    302e:	6039      	str	r1, [r7, #0]
    3030:	f083 4000 	eor.w	r0, r3, #2147483648	; 0x80000000
    3034:	6078      	str	r0, [r7, #4]
    3036:	f24e 0370 	movw	r3, #57456	; 0xe070
    303a:	f6c1 73ff 	movt	r3, #8191	; 0x1fff
    303e:	e9d7 0100 	ldrd	r0, r1, [r7]
    3042:	e9c3 0104 	strd	r0, r1, [r3, #16]
    C->PostShift = 0;
    3046:	69fb      	ldr	r3, [r7, #28]
    3048:	f04f 0200 	mov.w	r2, #0
    304c:	751a      	strb	r2, [r3, #20]

    while(GetPeak(&coef[0],6) > 1.0)
    304e:	e0de      	b.n	320e <DesignAudioBiquadIIR_q31_t+0x175e>
        {
            C->PostShift++;
    3050:	69fb      	ldr	r3, [r7, #28]
    3052:	7d1b      	ldrb	r3, [r3, #20]
    3054:	f103 0301 	add.w	r3, r3, #1
    3058:	b2da      	uxtb	r2, r3
    305a:	69fb      	ldr	r3, [r7, #28]
    305c:	751a      	strb	r2, [r3, #20]
            b0 = b0/(float)(1<<C->PostShift);
    305e:	f24e 0370 	movw	r3, #57456	; 0xe070
    3062:	f6c1 73ff 	movt	r3, #8191	; 0x1fff
    3066:	e9d3 4506 	ldrd	r4, r5, [r3, #24]
    306a:	69fb      	ldr	r3, [r7, #28]
    306c:	7d1b      	ldrb	r3, [r3, #20]
    306e:	b25b      	sxtb	r3, r3
    3070:	f04f 0201 	mov.w	r2, #1
    3074:	fa02 f303 	lsl.w	r3, r2, r3
    3078:	4618      	mov	r0, r3
    307a:	f7fe f945 	bl	1308 <__aeabi_i2f>
    307e:	4603      	mov	r3, r0
    3080:	4618      	mov	r0, r3
    3082:	f7fd fd21 	bl	ac8 <__aeabi_f2d>
    3086:	4602      	mov	r2, r0
    3088:	460b      	mov	r3, r1
    308a:	4620      	mov	r0, r4
    308c:	4629      	mov	r1, r5
    308e:	f7fd fe99 	bl	dc4 <__aeabi_ddiv>
    3092:	4602      	mov	r2, r0
    3094:	460b      	mov	r3, r1
    3096:	4610      	mov	r0, r2
    3098:	4619      	mov	r1, r3
    309a:	f24e 0370 	movw	r3, #57456	; 0xe070
    309e:	f6c1 73ff 	movt	r3, #8191	; 0x1fff
    30a2:	e9c3 0106 	strd	r0, r1, [r3, #24]
            b1 = b1/(float)(1<<C->PostShift);
    30a6:	f24e 0370 	movw	r3, #57456	; 0xe070
    30aa:	f6c1 73ff 	movt	r3, #8191	; 0x1fff
    30ae:	e9d3 4508 	ldrd	r4, r5, [r3, #32]
    30b2:	69fb      	ldr	r3, [r7, #28]
    30b4:	7d1b      	ldrb	r3, [r3, #20]
    30b6:	b25b      	sxtb	r3, r3
    30b8:	f04f 0201 	mov.w	r2, #1
    30bc:	fa02 f303 	lsl.w	r3, r2, r3
    30c0:	4618      	mov	r0, r3
    30c2:	f7fe f921 	bl	1308 <__aeabi_i2f>
    30c6:	4603      	mov	r3, r0
    30c8:	4618      	mov	r0, r3
    30ca:	f7fd fcfd 	bl	ac8 <__aeabi_f2d>
    30ce:	4602      	mov	r2, r0
    30d0:	460b      	mov	r3, r1
    30d2:	4620      	mov	r0, r4
    30d4:	4629      	mov	r1, r5
    30d6:	f7fd fe75 	bl	dc4 <__aeabi_ddiv>
    30da:	4602      	mov	r2, r0
    30dc:	460b      	mov	r3, r1
    30de:	4610      	mov	r0, r2
    30e0:	4619      	mov	r1, r3
    30e2:	f24e 0370 	movw	r3, #57456	; 0xe070
    30e6:	f6c1 73ff 	movt	r3, #8191	; 0x1fff
    30ea:	e9c3 0108 	strd	r0, r1, [r3, #32]
            b2 = b2/(float)(1<<C->PostShift);
    30ee:	f24e 0370 	movw	r3, #57456	; 0xe070
    30f2:	f6c1 73ff 	movt	r3, #8191	; 0x1fff
    30f6:	e9d3 450a 	ldrd	r4, r5, [r3, #40]	; 0x28
    30fa:	69fb      	ldr	r3, [r7, #28]
    30fc:	7d1b      	ldrb	r3, [r3, #20]
    30fe:	b25b      	sxtb	r3, r3
    3100:	f04f 0201 	mov.w	r2, #1
    3104:	fa02 f303 	lsl.w	r3, r2, r3
    3108:	4618      	mov	r0, r3
    310a:	f7fe f8fd 	bl	1308 <__aeabi_i2f>
    310e:	4603      	mov	r3, r0
    3110:	4618      	mov	r0, r3
    3112:	f7fd fcd9 	bl	ac8 <__aeabi_f2d>
    3116:	4602      	mov	r2, r0
    3118:	460b      	mov	r3, r1
    311a:	4620      	mov	r0, r4
    311c:	4629      	mov	r1, r5
    311e:	f7fd fe51 	bl	dc4 <__aeabi_ddiv>
    3122:	4602      	mov	r2, r0
    3124:	460b      	mov	r3, r1
    3126:	4610      	mov	r0, r2
    3128:	4619      	mov	r1, r3
    312a:	f24e 0370 	movw	r3, #57456	; 0xe070
    312e:	f6c1 73ff 	movt	r3, #8191	; 0x1fff
    3132:	e9c3 010a 	strd	r0, r1, [r3, #40]	; 0x28
            a1 = a1/(float)(1<<C->PostShift);
    3136:	f24e 0370 	movw	r3, #57456	; 0xe070
    313a:	f6c1 73ff 	movt	r3, #8191	; 0x1fff
    313e:	e9d3 4502 	ldrd	r4, r5, [r3, #8]
    3142:	69fb      	ldr	r3, [r7, #28]
    3144:	7d1b      	ldrb	r3, [r3, #20]
    3146:	b25b      	sxtb	r3, r3
    3148:	f04f 0201 	mov.w	r2, #1
    314c:	fa02 f303 	lsl.w	r3, r2, r3
    3150:	4618      	mov	r0, r3
    3152:	f7fe f8d9 	bl	1308 <__aeabi_i2f>
    3156:	4603      	mov	r3, r0
    3158:	4618      	mov	r0, r3
    315a:	f7fd fcb5 	bl	ac8 <__aeabi_f2d>
    315e:	4602      	mov	r2, r0
    3160:	460b      	mov	r3, r1
    3162:	4620      	mov	r0, r4
    3164:	4629      	mov	r1, r5
    3166:	f7fd fe2d 	bl	dc4 <__aeabi_ddiv>
    316a:	4602      	mov	r2, r0
    316c:	460b      	mov	r3, r1
    316e:	4610      	mov	r0, r2
    3170:	4619      	mov	r1, r3
    3172:	f24e 0370 	movw	r3, #57456	; 0xe070
    3176:	f6c1 73ff 	movt	r3, #8191	; 0x1fff
    317a:	e9c3 0102 	strd	r0, r1, [r3, #8]
            a2 = a2/(float)(1<<C->PostShift);
    317e:	f24e 0370 	movw	r3, #57456	; 0xe070
    3182:	f6c1 73ff 	movt	r3, #8191	; 0x1fff
    3186:	e9d3 4504 	ldrd	r4, r5, [r3, #16]
    318a:	69fb      	ldr	r3, [r7, #28]
    318c:	7d1b      	ldrb	r3, [r3, #20]
    318e:	b25b      	sxtb	r3, r3
    3190:	f04f 0201 	mov.w	r2, #1
    3194:	fa02 f303 	lsl.w	r3, r2, r3
    3198:	4618      	mov	r0, r3
    319a:	f7fe f8b5 	bl	1308 <__aeabi_i2f>
    319e:	4603      	mov	r3, r0
    31a0:	4618      	mov	r0, r3
    31a2:	f7fd fc91 	bl	ac8 <__aeabi_f2d>
    31a6:	4602      	mov	r2, r0
    31a8:	460b      	mov	r3, r1
    31aa:	4620      	mov	r0, r4
    31ac:	4629      	mov	r1, r5
    31ae:	f7fd fe09 	bl	dc4 <__aeabi_ddiv>
    31b2:	4602      	mov	r2, r0
    31b4:	460b      	mov	r3, r1
    31b6:	4610      	mov	r0, r2
    31b8:	4619      	mov	r1, r3
    31ba:	f24e 0370 	movw	r3, #57456	; 0xe070
    31be:	f6c1 73ff 	movt	r3, #8191	; 0x1fff
    31c2:	e9c3 0104 	strd	r0, r1, [r3, #16]
            a0 = a0/(float)(1<<C->PostShift);
    31c6:	f24e 0370 	movw	r3, #57456	; 0xe070
    31ca:	f6c1 73ff 	movt	r3, #8191	; 0x1fff
    31ce:	e9d3 4500 	ldrd	r4, r5, [r3]
    31d2:	69fb      	ldr	r3, [r7, #28]
    31d4:	7d1b      	ldrb	r3, [r3, #20]
    31d6:	b25b      	sxtb	r3, r3
    31d8:	f04f 0201 	mov.w	r2, #1
    31dc:	fa02 f303 	lsl.w	r3, r2, r3
    31e0:	4618      	mov	r0, r3
    31e2:	f7fe f891 	bl	1308 <__aeabi_i2f>
    31e6:	4603      	mov	r3, r0
    31e8:	4618      	mov	r0, r3
    31ea:	f7fd fc6d 	bl	ac8 <__aeabi_f2d>
    31ee:	4602      	mov	r2, r0
    31f0:	460b      	mov	r3, r1
    31f2:	4620      	mov	r0, r4
    31f4:	4629      	mov	r1, r5
    31f6:	f7fd fde5 	bl	dc4 <__aeabi_ddiv>
    31fa:	4602      	mov	r2, r0
    31fc:	460b      	mov	r3, r1
    31fe:	4610      	mov	r0, r2
    3200:	4619      	mov	r1, r3
    3202:	f24e 0370 	movw	r3, #57456	; 0xe070
    3206:	f6c1 73ff 	movt	r3, #8191	; 0x1fff
    320a:	e9c3 0100 	strd	r0, r1, [r3]
    a0 = 1.0;
    a1 = a1 * -1.0;
    a2 = a2 * -1.0;
    C->PostShift = 0;

    while(GetPeak(&coef[0],6) > 1.0)
    320e:	f24e 0070 	movw	r0, #57456	; 0xe070
    3212:	f6c1 70ff 	movt	r0, #8191	; 0x1fff
    3216:	f04f 0106 	mov.w	r1, #6
    321a:	f000 f889 	bl	3330 <GetPeak>
    321e:	4602      	mov	r2, r0
    3220:	460b      	mov	r3, r1
    3222:	4610      	mov	r0, r2
    3224:	4619      	mov	r1, r3
    3226:	f04f 0200 	mov.w	r2, #0
    322a:	f04f 0300 	mov.w	r3, #0
    322e:	f6c3 73f0 	movt	r3, #16368	; 0x3ff0
    3232:	f7fd ff2d 	bl	1090 <__aeabi_dcmpgt>
    3236:	4603      	mov	r3, r0
    3238:	2b00      	cmp	r3, #0
    323a:	f47f af09 	bne.w	3050 <DesignAudioBiquadIIR_q31_t+0x15a0>
            a1 = a1/(float)(1<<C->PostShift);
            a2 = a2/(float)(1<<C->PostShift);
            a0 = a0/(float)(1<<C->PostShift);
        }

    C->a[0] = (q31_t)(0x7FFFFFFF * a1); //a[0] in the IIR struct is actually a1
    323e:	f24e 0370 	movw	r3, #57456	; 0xe070
    3242:	f6c1 73ff 	movt	r3, #8191	; 0x1fff
    3246:	e9d3 2302 	ldrd	r2, r3, [r3, #8]
    324a:	4610      	mov	r0, r2
    324c:	4619      	mov	r1, r3
    324e:	a336      	add	r3, pc, #216	; (adr r3, 3328 <DesignAudioBiquadIIR_q31_t+0x1878>)
    3250:	e9d3 2300 	ldrd	r2, r3, [r3]
    3254:	f7fd fc8c 	bl	b70 <__aeabi_dmul>
    3258:	4602      	mov	r2, r0
    325a:	460b      	mov	r3, r1
    325c:	4610      	mov	r0, r2
    325e:	4619      	mov	r1, r3
    3260:	f7fd ff20 	bl	10a4 <__aeabi_d2iz>
    3264:	4602      	mov	r2, r0
    3266:	69fb      	ldr	r3, [r7, #28]
    3268:	60da      	str	r2, [r3, #12]
    C->a[1] = (q31_t)(0x7FFFFFFF * a2); //a[1] in the IIR struct is actually a2
    326a:	f24e 0370 	movw	r3, #57456	; 0xe070
    326e:	f6c1 73ff 	movt	r3, #8191	; 0x1fff
    3272:	e9d3 2304 	ldrd	r2, r3, [r3, #16]
    3276:	4610      	mov	r0, r2
    3278:	4619      	mov	r1, r3
    327a:	a32b      	add	r3, pc, #172	; (adr r3, 3328 <DesignAudioBiquadIIR_q31_t+0x1878>)
    327c:	e9d3 2300 	ldrd	r2, r3, [r3]
    3280:	f7fd fc76 	bl	b70 <__aeabi_dmul>
    3284:	4602      	mov	r2, r0
    3286:	460b      	mov	r3, r1
    3288:	4610      	mov	r0, r2
    328a:	4619      	mov	r1, r3
    328c:	f7fd ff0a 	bl	10a4 <__aeabi_d2iz>
    3290:	4602      	mov	r2, r0
    3292:	69fb      	ldr	r3, [r7, #28]
    3294:	611a      	str	r2, [r3, #16]
    C->b[0] = (q31_t)(0x7FFFFFFF * b0);
    3296:	f24e 0370 	movw	r3, #57456	; 0xe070
    329a:	f6c1 73ff 	movt	r3, #8191	; 0x1fff
    329e:	e9d3 2306 	ldrd	r2, r3, [r3, #24]
    32a2:	4610      	mov	r0, r2
    32a4:	4619      	mov	r1, r3
    32a6:	a320      	add	r3, pc, #128	; (adr r3, 3328 <DesignAudioBiquadIIR_q31_t+0x1878>)
    32a8:	e9d3 2300 	ldrd	r2, r3, [r3]
    32ac:	f7fd fc60 	bl	b70 <__aeabi_dmul>
    32b0:	4602      	mov	r2, r0
    32b2:	460b      	mov	r3, r1
    32b4:	4610      	mov	r0, r2
    32b6:	4619      	mov	r1, r3
    32b8:	f7fd fef4 	bl	10a4 <__aeabi_d2iz>
    32bc:	4602      	mov	r2, r0
    32be:	69fb      	ldr	r3, [r7, #28]
    32c0:	601a      	str	r2, [r3, #0]
    C->b[1] = (q31_t)(0x7FFFFFFF * b1);
    32c2:	f24e 0370 	movw	r3, #57456	; 0xe070
    32c6:	f6c1 73ff 	movt	r3, #8191	; 0x1fff
    32ca:	e9d3 2308 	ldrd	r2, r3, [r3, #32]
    32ce:	4610      	mov	r0, r2
    32d0:	4619      	mov	r1, r3
    32d2:	a315      	add	r3, pc, #84	; (adr r3, 3328 <DesignAudioBiquadIIR_q31_t+0x1878>)
    32d4:	e9d3 2300 	ldrd	r2, r3, [r3]
    32d8:	f7fd fc4a 	bl	b70 <__aeabi_dmul>
    32dc:	4602      	mov	r2, r0
    32de:	460b      	mov	r3, r1
    32e0:	4610      	mov	r0, r2
    32e2:	4619      	mov	r1, r3
    32e4:	f7fd fede 	bl	10a4 <__aeabi_d2iz>
    32e8:	4602      	mov	r2, r0
    32ea:	69fb      	ldr	r3, [r7, #28]
    32ec:	605a      	str	r2, [r3, #4]
    C->b[2] = (q31_t)(0x7FFFFFFF * b2);
    32ee:	f24e 0370 	movw	r3, #57456	; 0xe070
    32f2:	f6c1 73ff 	movt	r3, #8191	; 0x1fff
    32f6:	e9d3 230a 	ldrd	r2, r3, [r3, #40]	; 0x28
    32fa:	4610      	mov	r0, r2
    32fc:	4619      	mov	r1, r3
    32fe:	a30a      	add	r3, pc, #40	; (adr r3, 3328 <DesignAudioBiquadIIR_q31_t+0x1878>)
    3300:	e9d3 2300 	ldrd	r2, r3, [r3]
    3304:	f7fd fc34 	bl	b70 <__aeabi_dmul>
    3308:	4602      	mov	r2, r0
    330a:	460b      	mov	r3, r1
    330c:	4610      	mov	r0, r2
    330e:	4619      	mov	r1, r3
    3310:	f7fd fec8 	bl	10a4 <__aeabi_d2iz>
    3314:	4602      	mov	r2, r0
    3316:	69fb      	ldr	r3, [r7, #28]
    3318:	609a      	str	r2, [r3, #8]
    return;
    331a:	bf00      	nop
}
    331c:	f107 0720 	add.w	r7, r7, #32
    3320:	46bd      	mov	sp, r7
    3322:	e8bd 8fb0 	ldmia.w	sp!, {r4, r5, r7, r8, r9, sl, fp, pc}
    3326:	bf00      	nop
    3328:	ffc00000 	.word	0xffc00000
    332c:	41dfffff 	.word	0x41dfffff

00003330 <GetPeak>:



double GetPeak(double *Values,uint8_t Size)
{
    3330:	b580      	push	{r7, lr}
    3332:	b088      	sub	sp, #32
    3334:	af00      	add	r7, sp, #0
    3336:	6078      	str	r0, [r7, #4]
    3338:	460b      	mov	r3, r1
    333a:	70fb      	strb	r3, [r7, #3]
    double Peak = 0;
    333c:	f04f 0200 	mov.w	r2, #0
    3340:	f04f 0300 	mov.w	r3, #0
    3344:	e9c7 2306 	strd	r2, r3, [r7, #24]
    double Temp = 0;
    3348:	f04f 0200 	mov.w	r2, #0
    334c:	f04f 0300 	mov.w	r3, #0
    3350:	e9c7 2304 	strd	r2, r3, [r7, #16]
    uint8_t i;

    for(i=0; i<Size; i++)
    3354:	f04f 0300 	mov.w	r3, #0
    3358:	73fb      	strb	r3, [r7, #15]
    335a:	e038      	b.n	33ce <GetPeak+0x9e>
        {
            if(Values[i]<0)
    335c:	7bfb      	ldrb	r3, [r7, #15]
    335e:	ea4f 03c3 	mov.w	r3, r3, lsl #3
    3362:	687a      	ldr	r2, [r7, #4]
    3364:	18d3      	adds	r3, r2, r3
    3366:	e9d3 2300 	ldrd	r2, r3, [r3]
    336a:	4610      	mov	r0, r2
    336c:	4619      	mov	r1, r3
    336e:	f04f 0200 	mov.w	r2, #0
    3372:	f04f 0300 	mov.w	r3, #0
    3376:	f7fd fe6d 	bl	1054 <__aeabi_dcmplt>
    337a:	4603      	mov	r3, r0
    337c:	2b00      	cmp	r3, #0
    337e:	d00c      	beq.n	339a <GetPeak+0x6a>
                Temp= Values[i]*-1;
    3380:	7bfb      	ldrb	r3, [r7, #15]
    3382:	ea4f 03c3 	mov.w	r3, r3, lsl #3
    3386:	687a      	ldr	r2, [r7, #4]
    3388:	18d3      	adds	r3, r2, r3
    338a:	e9d3 2300 	ldrd	r2, r3, [r3]
    338e:	4611      	mov	r1, r2
    3390:	6139      	str	r1, [r7, #16]
    3392:	f083 4300 	eor.w	r3, r3, #2147483648	; 0x80000000
    3396:	617b      	str	r3, [r7, #20]
    3398:	e008      	b.n	33ac <GetPeak+0x7c>
            else
                Temp = Values[i];
    339a:	7bfb      	ldrb	r3, [r7, #15]
    339c:	ea4f 03c3 	mov.w	r3, r3, lsl #3
    33a0:	687a      	ldr	r2, [r7, #4]
    33a2:	18d3      	adds	r3, r2, r3
    33a4:	e9d3 2300 	ldrd	r2, r3, [r3]
    33a8:	e9c7 2304 	strd	r2, r3, [r7, #16]

            if(Temp>Peak)
    33ac:	e9d7 0104 	ldrd	r0, r1, [r7, #16]
    33b0:	e9d7 2306 	ldrd	r2, r3, [r7, #24]
    33b4:	f7fd fe6c 	bl	1090 <__aeabi_dcmpgt>
    33b8:	4603      	mov	r3, r0
    33ba:	2b00      	cmp	r3, #0
    33bc:	d003      	beq.n	33c6 <GetPeak+0x96>
                Peak = Temp;
    33be:	e9d7 2304 	ldrd	r2, r3, [r7, #16]
    33c2:	e9c7 2306 	strd	r2, r3, [r7, #24]
{
    double Peak = 0;
    double Temp = 0;
    uint8_t i;

    for(i=0; i<Size; i++)
    33c6:	7bfb      	ldrb	r3, [r7, #15]
    33c8:	f103 0301 	add.w	r3, r3, #1
    33cc:	73fb      	strb	r3, [r7, #15]
    33ce:	7bfa      	ldrb	r2, [r7, #15]
    33d0:	78fb      	ldrb	r3, [r7, #3]
    33d2:	429a      	cmp	r2, r3
    33d4:	d3c2      	bcc.n	335c <GetPeak+0x2c>

            if(Temp>Peak)
                Peak = Temp;
        }

    return Peak;
    33d6:	e9d7 2306 	ldrd	r2, r3, [r7, #24]
}
    33da:	4610      	mov	r0, r2
    33dc:	4619      	mov	r1, r3
    33de:	f107 0720 	add.w	r7, r7, #32
    33e2:	46bd      	mov	sp, r7
    33e4:	bd80      	pop	{r7, pc}
    33e6:	bf00      	nop

000033e8 <arm_linear_interp_q31>:

  static __INLINE q31_t arm_linear_interp_q31(
  q31_t * pYData,
  q31_t x,
  uint32_t nValues)
  {
    33e8:	e92d 0fb0 	stmdb	sp!, {r4, r5, r7, r8, r9, sl, fp}
    33ec:	b08b      	sub	sp, #44	; 0x2c
    33ee:	af00      	add	r7, sp, #0
    33f0:	60f8      	str	r0, [r7, #12]
    33f2:	60b9      	str	r1, [r7, #8]
    33f4:	607a      	str	r2, [r7, #4]
    int32_t index;                               /* Index to read nearest output values */

    /* Input is in 12.20 format */
    /* 12 bits for the table index */
    /* Index value calculation */
    index = ((x & 0xFFF00000) >> 20);
    33f6:	68bb      	ldr	r3, [r7, #8]
    33f8:	ea4f 5313 	mov.w	r3, r3, lsr #20
    33fc:	627b      	str	r3, [r7, #36]	; 0x24

    if(index >= (int32_t)(nValues - 1))
    33fe:	687b      	ldr	r3, [r7, #4]
    3400:	f103 33ff 	add.w	r3, r3, #4294967295
    3404:	461a      	mov	r2, r3
    3406:	6a7b      	ldr	r3, [r7, #36]	; 0x24
    3408:	429a      	cmp	r2, r3
    340a:	dc08      	bgt.n	341e <arm_linear_interp_q31+0x36>
    {
      return (pYData[nValues - 1]);
    340c:	687b      	ldr	r3, [r7, #4]
    340e:	f103 33ff 	add.w	r3, r3, #4294967295
    3412:	ea4f 0383 	mov.w	r3, r3, lsl #2
    3416:	68fa      	ldr	r2, [r7, #12]
    3418:	18d3      	adds	r3, r2, r3
    341a:	681b      	ldr	r3, [r3, #0]
    341c:	e053      	b.n	34c6 <arm_linear_interp_q31+0xde>
    }
    else if(index < 0)
    341e:	6a7b      	ldr	r3, [r7, #36]	; 0x24
    3420:	2b00      	cmp	r3, #0
    3422:	da02      	bge.n	342a <arm_linear_interp_q31+0x42>
    {
      return (pYData[0]);
    3424:	68fb      	ldr	r3, [r7, #12]
    3426:	681b      	ldr	r3, [r3, #0]
    3428:	e04d      	b.n	34c6 <arm_linear_interp_q31+0xde>
    else
    {

      /* 20 bits for the fractional part */
      /* shift left by 11 to keep fract in 1.31 format */
      fract = (x & 0x000FFFFF) << 11;
    342a:	68bb      	ldr	r3, [r7, #8]
    342c:	f023 437f 	bic.w	r3, r3, #4278190080	; 0xff000000
    3430:	f423 0370 	bic.w	r3, r3, #15728640	; 0xf00000
    3434:	ea4f 23c3 	mov.w	r3, r3, lsl #11
    3438:	623b      	str	r3, [r7, #32]

      /* Read two nearest output values from the index in 1.31(q31) format */
      y0 = pYData[index];
    343a:	6a7b      	ldr	r3, [r7, #36]	; 0x24
    343c:	ea4f 0383 	mov.w	r3, r3, lsl #2
    3440:	68fa      	ldr	r2, [r7, #12]
    3442:	18d3      	adds	r3, r2, r3
    3444:	681b      	ldr	r3, [r3, #0]
    3446:	61fb      	str	r3, [r7, #28]
      y1 = pYData[index + 1u];
    3448:	6a7b      	ldr	r3, [r7, #36]	; 0x24
    344a:	f103 0301 	add.w	r3, r3, #1
    344e:	ea4f 0383 	mov.w	r3, r3, lsl #2
    3452:	68fa      	ldr	r2, [r7, #12]
    3454:	18d3      	adds	r3, r2, r3
    3456:	681b      	ldr	r3, [r3, #0]
    3458:	61bb      	str	r3, [r7, #24]

      /* Calculation of y0 * (1-fract) and y is in 2.30 format */
      y = ((q31_t) ((q63_t) y0 * (0x7FFFFFFF - fract) >> 32));
    345a:	69fb      	ldr	r3, [r7, #28]
    345c:	4618      	mov	r0, r3
    345e:	ea4f 71e0 	mov.w	r1, r0, asr #31
    3462:	6a3b      	ldr	r3, [r7, #32]
    3464:	f64f 74ff 	movw	r4, #65535	; 0xffff
    3468:	f6c7 74ff 	movt	r4, #32767	; 0x7fff
    346c:	1ae4      	subs	r4, r4, r3
    346e:	4622      	mov	r2, r4
    3470:	ea4f 73e2 	mov.w	r3, r2, asr #31
    3474:	fb02 f501 	mul.w	r5, r2, r1
    3478:	fb00 f403 	mul.w	r4, r0, r3
    347c:	192c      	adds	r4, r5, r4
    347e:	fba0 2302 	umull	r2, r3, r0, r2
    3482:	18e1      	adds	r1, r4, r3
    3484:	460b      	mov	r3, r1
    3486:	469a      	mov	sl, r3
    3488:	ea4f 7be3 	mov.w	fp, r3, asr #31
    348c:	4653      	mov	r3, sl
    348e:	617b      	str	r3, [r7, #20]

      /* Calculation of y0 * (1-fract) + y1 *fract and y is in 2.30 format */
      y += ((q31_t) (((q63_t) y1 * fract) >> 32));
    3490:	69bb      	ldr	r3, [r7, #24]
    3492:	4618      	mov	r0, r3
    3494:	ea4f 71e0 	mov.w	r1, r0, asr #31
    3498:	6a3c      	ldr	r4, [r7, #32]
    349a:	4622      	mov	r2, r4
    349c:	ea4f 73e2 	mov.w	r3, r2, asr #31
    34a0:	fb02 f501 	mul.w	r5, r2, r1
    34a4:	fb00 f403 	mul.w	r4, r0, r3
    34a8:	192c      	adds	r4, r5, r4
    34aa:	fba0 2302 	umull	r2, r3, r0, r2
    34ae:	18e1      	adds	r1, r4, r3
    34b0:	460b      	mov	r3, r1
    34b2:	4698      	mov	r8, r3
    34b4:	ea4f 79e3 	mov.w	r9, r3, asr #31
    34b8:	4643      	mov	r3, r8
    34ba:	697a      	ldr	r2, [r7, #20]
    34bc:	18d3      	adds	r3, r2, r3
    34be:	617b      	str	r3, [r7, #20]

      /* Convert y to 1.31 format */
      return (y << 1u);
    34c0:	697b      	ldr	r3, [r7, #20]
    34c2:	ea4f 0343 	mov.w	r3, r3, lsl #1

    }

  }
    34c6:	4618      	mov	r0, r3
    34c8:	f107 072c 	add.w	r7, r7, #44	; 0x2c
    34cc:	46bd      	mov	sp, r7
    34ce:	e8bd 0fb0 	ldmia.w	sp!, {r4, r5, r7, r8, r9, sl, fp}
    34d2:	4770      	bx	lr

000034d4 <HardOverdrive>:

#ifndef OVERDRIVE_H_
#define OVERDRIVE_H_

inline q31_t HardOverdrive(q31_t In, q31_t OD_Level)
{
    34d4:	b5f0      	push	{r4, r5, r6, r7, lr}
    34d6:	b087      	sub	sp, #28
    34d8:	af00      	add	r7, sp, #0
    34da:	6078      	str	r0, [r7, #4]
    34dc:	6039      	str	r1, [r7, #0]
    uint32_t TableIndex;
    q31_t Out;
    Out = ((q63_t)In * OD_Level)>>26;
    34de:	687b      	ldr	r3, [r7, #4]
    34e0:	4618      	mov	r0, r3
    34e2:	ea4f 71e0 	mov.w	r1, r0, asr #31
    34e6:	683e      	ldr	r6, [r7, #0]
    34e8:	4632      	mov	r2, r6
    34ea:	ea4f 73e2 	mov.w	r3, r2, asr #31
    34ee:	fb02 fe01 	mul.w	lr, r2, r1
    34f2:	fb00 f603 	mul.w	r6, r0, r3
    34f6:	4476      	add	r6, lr
    34f8:	fba0 2302 	umull	r2, r3, r0, r2
    34fc:	18f1      	adds	r1, r6, r3
    34fe:	460b      	mov	r3, r1
    3500:	ea4f 1183 	mov.w	r1, r3, lsl #6
    3504:	ea4f 6492 	mov.w	r4, r2, lsr #26
    3508:	430c      	orrs	r4, r1
    350a:	ea4f 65a3 	mov.w	r5, r3, asr #26
    350e:	4623      	mov	r3, r4
    3510:	617b      	str	r3, [r7, #20]
    //Saturate the output to 24 bits
    Out = __SSAT(Out,24);
    3512:	697b      	ldr	r3, [r7, #20]
    3514:	613b      	str	r3, [r7, #16]
    3516:	693b      	ldr	r3, [r7, #16]
    3518:	f303 0417 	ssat	r4, #23, r3
    351c:	60fc      	str	r4, [r7, #12]
    351e:	68fb      	ldr	r3, [r7, #12]
    3520:	617b      	str	r3, [r7, #20]
    //We need the signal to be scaled up by 8 to drive the interpolation table (thighest 12 bits used as table index).
    Out <<= 8;
    3522:	697b      	ldr	r3, [r7, #20]
    3524:	ea4f 2303 	mov.w	r3, r3, lsl #8
    3528:	617b      	str	r3, [r7, #20]
    //make the input span 0 - 0xFFFFFFFF.  Convert from 2's complement to Offset Binary
    TableIndex = (uint32_t)Out + (uint32_t)0x80000000;
    352a:	697b      	ldr	r3, [r7, #20]
    352c:	f103 4300 	add.w	r3, r3, #2147483648	; 0x80000000
    3530:	60bb      	str	r3, [r7, #8]
    // Ram signal into Overdrive table
    Out = arm_linear_interp_q31((q31_t * )atan_24pi_q31_t,TableIndex,4096);
    3532:	68bb      	ldr	r3, [r7, #8]
    3534:	f649 50b4 	movw	r0, #40372	; 0x9db4
    3538:	f2c0 0000 	movt	r0, #0
    353c:	4619      	mov	r1, r3
    353e:	f44f 5280 	mov.w	r2, #4096	; 0x1000
    3542:	f7ff ff51 	bl	33e8 <arm_linear_interp_q31>
    3546:	6178      	str	r0, [r7, #20]
    return Out>>8; //We need to shift by 8 to get back to a value that fits in the lowest 24-bits
    3548:	697b      	ldr	r3, [r7, #20]
    354a:	ea4f 2323 	mov.w	r3, r3, asr #8
}
    354e:	4618      	mov	r0, r3
    3550:	f107 071c 	add.w	r7, r7, #28
    3554:	46bd      	mov	sp, r7
    3556:	bdf0      	pop	{r4, r5, r6, r7, pc}

00003558 <SoftOverdrive>:



//OD_level will be scaled by 2 so we can gain the signal up to 2.0
inline q31_t SoftOverdrive(q31_t In, q31_t OD_Level)
{
    3558:	b5f0      	push	{r4, r5, r6, r7, lr}
    355a:	b087      	sub	sp, #28
    355c:	af00      	add	r7, sp, #0
    355e:	6078      	str	r0, [r7, #4]
    3560:	6039      	str	r1, [r7, #0]
    uint32_t TableIndex;
    q31_t Out;
    //Scale in input. to adjust gain into the overdrive table
    Out = ((q63_t)In * OD_Level)>>30;
    3562:	687b      	ldr	r3, [r7, #4]
    3564:	4618      	mov	r0, r3
    3566:	ea4f 71e0 	mov.w	r1, r0, asr #31
    356a:	683e      	ldr	r6, [r7, #0]
    356c:	4632      	mov	r2, r6
    356e:	ea4f 73e2 	mov.w	r3, r2, asr #31
    3572:	fb02 fe01 	mul.w	lr, r2, r1
    3576:	fb00 f603 	mul.w	r6, r0, r3
    357a:	4476      	add	r6, lr
    357c:	fba0 2302 	umull	r2, r3, r0, r2
    3580:	18f1      	adds	r1, r6, r3
    3582:	460b      	mov	r3, r1
    3584:	ea4f 0183 	mov.w	r1, r3, lsl #2
    3588:	ea4f 7492 	mov.w	r4, r2, lsr #30
    358c:	430c      	orrs	r4, r1
    358e:	ea4f 75a3 	mov.w	r5, r3, asr #30
    3592:	4623      	mov	r3, r4
    3594:	617b      	str	r3, [r7, #20]
    //Saturate the output for se are not beyonf 24 bits
    Out = __SSAT(Out,24);
    3596:	697b      	ldr	r3, [r7, #20]
    3598:	613b      	str	r3, [r7, #16]
    359a:	693b      	ldr	r3, [r7, #16]
    359c:	f303 0417 	ssat	r4, #23, r3
    35a0:	60fc      	str	r4, [r7, #12]
    35a2:	68fb      	ldr	r3, [r7, #12]
    35a4:	617b      	str	r3, [r7, #20]
    //We need the signal to be scaled up by 8 to drive the interpolation table (thighest 12 bits used as table index).
    Out <<= 8;
    35a6:	697b      	ldr	r3, [r7, #20]
    35a8:	ea4f 2303 	mov.w	r3, r3, lsl #8
    35ac:	617b      	str	r3, [r7, #20]
    //make the input span 0 - 0xFFFFFFFF.  Convert from 2's complement to Offset Binary
    TableIndex = (uint32_t)Out + (uint32_t)0x80000000;
    35ae:	697b      	ldr	r3, [r7, #20]
    35b0:	f103 4300 	add.w	r3, r3, #2147483648	; 0x80000000
    35b4:	60bb      	str	r3, [r7, #8]
    // Ram signal into Overdrive table
    Out = arm_linear_interp_q31((q31_t * )atan_4pi_q31_t,TableIndex,4096);
    35b6:	68bb      	ldr	r3, [r7, #8]
    35b8:	f64d 50b4 	movw	r0, #56756	; 0xddb4
    35bc:	f2c0 0000 	movt	r0, #0
    35c0:	4619      	mov	r1, r3
    35c2:	f44f 5280 	mov.w	r2, #4096	; 0x1000
    35c6:	f7ff ff0f 	bl	33e8 <arm_linear_interp_q31>
    35ca:	6178      	str	r0, [r7, #20]
    return Out>>8; //We need to shift by 8 to get back to a value that fits in the lowest 24-bits
    35cc:	697b      	ldr	r3, [r7, #20]
    35ce:	ea4f 2323 	mov.w	r3, r3, asr #8
}
    35d2:	4618      	mov	r0, r3
    35d4:	f107 071c 	add.w	r7, r7, #28
    35d8:	46bd      	mov	sp, r7
    35da:	bdf0      	pop	{r4, r5, r6, r7, pc}

000035dc <ChangePatch>:

q31_t Signal; //Used for passing around Audio Data


void ChangePatch(uint8_t NewPatch)
{
    35dc:	b480      	push	{r7}
    35de:	b083      	sub	sp, #12
    35e0:	af00      	add	r7, sp, #0
    35e2:	4603      	mov	r3, r0
    35e4:	71fb      	strb	r3, [r7, #7]
    switch(NewPatch)
        {
            default:
                CurrentPatch = NewPatch;
    35e6:	f24e 0300 	movw	r3, #57344	; 0xe000
    35ea:	f6c1 73ff 	movt	r3, #8191	; 0x1fff
    35ee:	79fa      	ldrb	r2, [r7, #7]
    35f0:	701a      	strb	r2, [r3, #0]
                break;
    35f2:	bf00      	nop
        }
}
    35f4:	f107 070c 	add.w	r7, r7, #12
    35f8:	46bd      	mov	sp, r7
    35fa:	bc80      	pop	{r7}
    35fc:	4770      	bx	lr
    35fe:	bf00      	nop

00003600 <InitAudioProcess>:



void InitAudioProcess()
{
    3600:	b580      	push	{r7, lr}
    3602:	b082      	sub	sp, #8
    3604:	af00      	add	r7, sp, #0
    uint8_t i;

    for(i=0; i<NUM_IIR; i++)
    3606:	f04f 0300 	mov.w	r3, #0
    360a:	71fb      	strb	r3, [r7, #7]
    360c:	e012      	b.n	3634 <InitAudioProcess+0x34>
        Init_q31_t_IIR(&MyIIR[i]);
    360e:	79fa      	ldrb	r2, [r7, #7]
    3610:	4613      	mov	r3, r2
    3612:	ea4f 0383 	mov.w	r3, r3, lsl #2
    3616:	189b      	adds	r3, r3, r2
    3618:	ea4f 1303 	mov.w	r3, r3, lsl #4
    361c:	f24e 02b8 	movw	r2, #57528	; 0xe0b8
    3620:	f6c1 72ff 	movt	r2, #8191	; 0x1fff
    3624:	189b      	adds	r3, r3, r2
    3626:	4618      	mov	r0, r3
    3628:	f7fe f96a 	bl	1900 <Init_q31_t_IIR>

void InitAudioProcess()
{
    uint8_t i;

    for(i=0; i<NUM_IIR; i++)
    362c:	79fb      	ldrb	r3, [r7, #7]
    362e:	f103 0301 	add.w	r3, r3, #1
    3632:	71fb      	strb	r3, [r7, #7]
    3634:	79fb      	ldrb	r3, [r7, #7]
    3636:	2b01      	cmp	r3, #1
    3638:	d9e9      	bls.n	360e <InitAudioProcess+0xe>
        Init_q31_t_IIR(&MyIIR[i]);

}
    363a:	f107 0708 	add.w	r7, r7, #8
    363e:	46bd      	mov	sp, r7
    3640:	bd80      	pop	{r7, pc}
    3642:	bf00      	nop

00003644 <AudioProcess>:



void AudioProcess()
{
    3644:	b5b0      	push	{r4, r5, r7, lr}
    3646:	b084      	sub	sp, #16
    3648:	af00      	add	r7, sp, #0
	
	if(!IO_DELTA_IS_ON == 0) //Bypass the effect processing
    364a:	f24f 0380 	movw	r3, #61568	; 0xf080
    364e:	f2c4 030f 	movt	r3, #16399	; 0x400f
    3652:	691b      	ldr	r3, [r3, #16]
    3654:	f003 0310 	and.w	r3, r3, #16
    3658:	2b00      	cmp	r3, #0
    365a:	d014      	beq.n	3686 <AudioProcess+0x42>
	{
	    LeftOut = LeftIn;
    365c:	f24e 1358 	movw	r3, #57688	; 0xe158
    3660:	f6c1 73ff 	movt	r3, #8191	; 0x1fff
    3664:	681a      	ldr	r2, [r3, #0]
    3666:	f24e 03b0 	movw	r3, #57520	; 0xe0b0
    366a:	f6c1 73ff 	movt	r3, #8191	; 0x1fff
    366e:	601a      	str	r2, [r3, #0]
		RightOut = RightIn;
    3670:	f24e 03ac 	movw	r3, #57516	; 0xe0ac
    3674:	f6c1 73ff 	movt	r3, #8191	; 0x1fff
    3678:	681a      	ldr	r2, [r3, #0]
    367a:	f24e 1360 	movw	r3, #57696	; 0xe160
    367e:	f6c1 73ff 	movt	r3, #8191	; 0x1fff
    3682:	601a      	str	r2, [r3, #0]
    3684:	e1f9      	b.n	3a7a <AudioProcess+0x436>
	}
	else
	{
   
		//See what the current Patch is and do the appropriate processing!
		switch(CurrentPatch)
    3686:	f24e 0300 	movw	r3, #57344	; 0xe000
    368a:	f6c1 73ff 	movt	r3, #8191	; 0x1fff
    368e:	781b      	ldrb	r3, [r3, #0]
    3690:	f103 33ff 	add.w	r3, r3, #4294967295
    3694:	2b06      	cmp	r3, #6
    3696:	d811      	bhi.n	36bc <AudioProcess+0x78>
    3698:	a201      	add	r2, pc, #4	; (adr r2, 36a0 <AudioProcess+0x5c>)
    369a:	f852 f023 	ldr.w	pc, [r2, r3, lsl #2]
    369e:	bf00      	nop
    36a0:	000036e7 	.word	0x000036e7
    36a4:	00003923 	.word	0x00003923
    36a8:	000037cf 	.word	0x000037cf
    36ac:	000036bd 	.word	0x000036bd
    36b0:	000036bd 	.word	0x000036bd
    36b4:	000036bd 	.word	0x000036bd
    36b8:	0000373d 	.word	0x0000373d
        {
            default:
                    case PATCH_PASS_THROUGH:
            	
            	LeftOut = LeftIn;
    36bc:	f24e 1358 	movw	r3, #57688	; 0xe158
    36c0:	f6c1 73ff 	movt	r3, #8191	; 0x1fff
    36c4:	681a      	ldr	r2, [r3, #0]
    36c6:	f24e 03b0 	movw	r3, #57520	; 0xe0b0
    36ca:	f6c1 73ff 	movt	r3, #8191	; 0x1fff
    36ce:	601a      	str	r2, [r3, #0]
                RightOut = RightIn;
    36d0:	f24e 03ac 	movw	r3, #57516	; 0xe0ac
    36d4:	f6c1 73ff 	movt	r3, #8191	; 0x1fff
    36d8:	681a      	ldr	r2, [r3, #0]
    36da:	f24e 1360 	movw	r3, #57696	; 0xe160
    36de:	f6c1 73ff 	movt	r3, #8191	; 0x1fff
    36e2:	601a      	str	r2, [r3, #0]
                break;
    36e4:	e1c9      	b.n	3a7a <AudioProcess+0x436>

            case PATCH_SINE_TEST:
            
                RightOut = LeftOut = sine_q31_t[Idx & 0xFF]>>8;
    36e6:	f24e 03a8 	movw	r3, #57512	; 0xe0a8
    36ea:	f6c1 73ff 	movt	r3, #8191	; 0x1fff
    36ee:	781b      	ldrb	r3, [r3, #0]
    36f0:	461a      	mov	r2, r3
    36f2:	f641 53b4 	movw	r3, #7604	; 0x1db4
    36f6:	f2c0 0301 	movt	r3, #1
    36fa:	f853 3022 	ldr.w	r3, [r3, r2, lsl #2]
    36fe:	ea4f 2223 	mov.w	r2, r3, asr #8
    3702:	f24e 03b0 	movw	r3, #57520	; 0xe0b0
    3706:	f6c1 73ff 	movt	r3, #8191	; 0x1fff
    370a:	601a      	str	r2, [r3, #0]
    370c:	f24e 03b0 	movw	r3, #57520	; 0xe0b0
    3710:	f6c1 73ff 	movt	r3, #8191	; 0x1fff
    3714:	681a      	ldr	r2, [r3, #0]
    3716:	f24e 1360 	movw	r3, #57696	; 0xe160
    371a:	f6c1 73ff 	movt	r3, #8191	; 0x1fff
    371e:	601a      	str	r2, [r3, #0]
                Idx++;
    3720:	f24e 03a8 	movw	r3, #57512	; 0xe0a8
    3724:	f6c1 73ff 	movt	r3, #8191	; 0x1fff
    3728:	781b      	ldrb	r3, [r3, #0]
    372a:	f103 0301 	add.w	r3, r3, #1
    372e:	b2da      	uxtb	r2, r3
    3730:	f24e 03a8 	movw	r3, #57512	; 0xe0a8
    3734:	f6c1 73ff 	movt	r3, #8191	; 0x1fff
    3738:	701a      	strb	r2, [r3, #0]
                break;
    373a:	e19e      	b.n	3a7a <AudioProcess+0x436>
                
            case PATCH_OD_DEMO_SINE_TEST:
                       
                      
            			Signal = sine_q31_t[Idx & 0xFF]>>8;
    373c:	f24e 03a8 	movw	r3, #57512	; 0xe0a8
    3740:	f6c1 73ff 	movt	r3, #8191	; 0x1fff
    3744:	781b      	ldrb	r3, [r3, #0]
    3746:	461a      	mov	r2, r3
    3748:	f641 53b4 	movw	r3, #7604	; 0x1db4
    374c:	f2c0 0301 	movt	r3, #1
    3750:	f853 3022 	ldr.w	r3, [r3, r2, lsl #2]
    3754:	ea4f 2223 	mov.w	r2, r3, asr #8
    3758:	f24e 135c 	movw	r3, #57692	; 0xe15c
    375c:	f6c1 73ff 	movt	r3, #8191	; 0x1fff
    3760:	601a      	str	r2, [r3, #0]
            	
                        Idx++;
    3762:	f24e 03a8 	movw	r3, #57512	; 0xe0a8
    3766:	f6c1 73ff 	movt	r3, #8191	; 0x1fff
    376a:	781b      	ldrb	r3, [r3, #0]
    376c:	f103 0301 	add.w	r3, r3, #1
    3770:	b2da      	uxtb	r2, r3
    3772:	f24e 03a8 	movw	r3, #57512	; 0xe0a8
    3776:	f6c1 73ff 	movt	r3, #8191	; 0x1fff
    377a:	701a      	strb	r2, [r3, #0]
                        
                       Signal = SoftOverdrive(Signal, OD_Level);
    377c:	f24e 135c 	movw	r3, #57692	; 0xe15c
    3780:	f6c1 73ff 	movt	r3, #8191	; 0x1fff
    3784:	681a      	ldr	r2, [r3, #0]
    3786:	f24e 0334 	movw	r3, #57396	; 0xe034
    378a:	f6c1 73ff 	movt	r3, #8191	; 0x1fff
    378e:	681b      	ldr	r3, [r3, #0]
    3790:	4610      	mov	r0, r2
    3792:	4619      	mov	r1, r3
    3794:	f7ff fee0 	bl	3558 <SoftOverdrive>
    3798:	4602      	mov	r2, r0
    379a:	f24e 135c 	movw	r3, #57692	; 0xe15c
    379e:	f6c1 73ff 	movt	r3, #8191	; 0x1fff
    37a2:	601a      	str	r2, [r3, #0]
                          
                        RightOut = LeftOut =  Signal;         
    37a4:	f24e 135c 	movw	r3, #57692	; 0xe15c
    37a8:	f6c1 73ff 	movt	r3, #8191	; 0x1fff
    37ac:	681a      	ldr	r2, [r3, #0]
    37ae:	f24e 03b0 	movw	r3, #57520	; 0xe0b0
    37b2:	f6c1 73ff 	movt	r3, #8191	; 0x1fff
    37b6:	601a      	str	r2, [r3, #0]
    37b8:	f24e 03b0 	movw	r3, #57520	; 0xe0b0
    37bc:	f6c1 73ff 	movt	r3, #8191	; 0x1fff
    37c0:	681a      	ldr	r2, [r3, #0]
    37c2:	f24e 1360 	movw	r3, #57696	; 0xe160
    37c6:	f6c1 73ff 	movt	r3, #8191	; 0x1fff
    37ca:	601a      	str	r2, [r3, #0]
                break;
    37cc:	e155      	b.n	3a7a <AudioProcess+0x436>


            case PATCH_OVERDRIVE:
                if(MyIIR[0].Update>0)
    37ce:	f24e 03b8 	movw	r3, #57528	; 0xe0b8
    37d2:	f6c1 73ff 	movt	r3, #8191	; 0x1fff
    37d6:	f893 3048 	ldrb.w	r3, [r3, #72]	; 0x48
    37da:	2b00      	cmp	r3, #0
    37dc:	d018      	beq.n	3810 <AudioProcess+0x1cc>
                    {
                        MyIIR[0].Update = 0;
    37de:	f24e 03b8 	movw	r3, #57528	; 0xe0b8
    37e2:	f6c1 73ff 	movt	r3, #8191	; 0x1fff
    37e6:	f04f 0200 	mov.w	r2, #0
    37ea:	f883 2048 	strb.w	r2, [r3, #72]	; 0x48
                        MyIIR[0].Coef = MyIIR[0].Shadow_Coef;
    37ee:	f24e 02b8 	movw	r2, #57528	; 0xe0b8
    37f2:	f6c1 72ff 	movt	r2, #8191	; 0x1fff
    37f6:	f24e 03b8 	movw	r3, #57528	; 0xe0b8
    37fa:	f6c1 73ff 	movt	r3, #8191	; 0x1fff
    37fe:	4614      	mov	r4, r2
    3800:	f103 0530 	add.w	r5, r3, #48	; 0x30
    3804:	cd0f      	ldmia	r5!, {r0, r1, r2, r3}
    3806:	c40f      	stmia	r4!, {r0, r1, r2, r3}
    3808:	e895 0003 	ldmia.w	r5, {r0, r1}
    380c:	e884 0003 	stmia.w	r4, {r0, r1}
                    }

                if(MyIIR[1].Update>0)
    3810:	f24e 03b8 	movw	r3, #57528	; 0xe0b8
    3814:	f6c1 73ff 	movt	r3, #8191	; 0x1fff
    3818:	f893 3098 	ldrb.w	r3, [r3, #152]	; 0x98
    381c:	2b00      	cmp	r3, #0
    381e:	d019      	beq.n	3854 <AudioProcess+0x210>
                    {
                        MyIIR[1].Update = 0;
    3820:	f24e 03b8 	movw	r3, #57528	; 0xe0b8
    3824:	f6c1 73ff 	movt	r3, #8191	; 0x1fff
    3828:	f04f 0200 	mov.w	r2, #0
    382c:	f883 2098 	strb.w	r2, [r3, #152]	; 0x98
                        MyIIR[1].Coef = MyIIR[1].Shadow_Coef;
    3830:	f24e 02b8 	movw	r2, #57528	; 0xe0b8
    3834:	f6c1 72ff 	movt	r2, #8191	; 0x1fff
    3838:	f24e 03b8 	movw	r3, #57528	; 0xe0b8
    383c:	f6c1 73ff 	movt	r3, #8191	; 0x1fff
    3840:	f102 0450 	add.w	r4, r2, #80	; 0x50
    3844:	f103 0580 	add.w	r5, r3, #128	; 0x80
    3848:	cd0f      	ldmia	r5!, {r0, r1, r2, r3}
    384a:	c40f      	stmia	r4!, {r0, r1, r2, r3}
    384c:	e895 0003 	ldmia.w	r5, {r0, r1}
    3850:	e884 0003 	stmia.w	r4, {r0, r1}
                    }

                Signal = (LeftIn + RightIn);
    3854:	f24e 1358 	movw	r3, #57688	; 0xe158
    3858:	f6c1 73ff 	movt	r3, #8191	; 0x1fff
    385c:	681a      	ldr	r2, [r3, #0]
    385e:	f24e 03ac 	movw	r3, #57516	; 0xe0ac
    3862:	f6c1 73ff 	movt	r3, #8191	; 0x1fff
    3866:	681b      	ldr	r3, [r3, #0]
    3868:	18d2      	adds	r2, r2, r3
    386a:	f24e 135c 	movw	r3, #57692	; 0xe15c
    386e:	f6c1 73ff 	movt	r3, #8191	; 0x1fff
    3872:	601a      	str	r2, [r3, #0]
                
                Compute_q31_t_IIR(&MyIIR[0],Signal,&Signal);
    3874:	f24e 135c 	movw	r3, #57692	; 0xe15c
    3878:	f6c1 73ff 	movt	r3, #8191	; 0x1fff
    387c:	681b      	ldr	r3, [r3, #0]
    387e:	f24e 00b8 	movw	r0, #57528	; 0xe0b8
    3882:	f6c1 70ff 	movt	r0, #8191	; 0x1fff
    3886:	4619      	mov	r1, r3
    3888:	f24e 125c 	movw	r2, #57692	; 0xe15c
    388c:	f6c1 72ff 	movt	r2, #8191	; 0x1fff
    3890:	f7fe f852 	bl	1938 <Compute_q31_t_IIR>
                
                Signal = HardOverdrive(Signal, OD_Level);
    3894:	f24e 135c 	movw	r3, #57692	; 0xe15c
    3898:	f6c1 73ff 	movt	r3, #8191	; 0x1fff
    389c:	681a      	ldr	r2, [r3, #0]
    389e:	f24e 0334 	movw	r3, #57396	; 0xe034
    38a2:	f6c1 73ff 	movt	r3, #8191	; 0x1fff
    38a6:	681b      	ldr	r3, [r3, #0]
    38a8:	4610      	mov	r0, r2
    38aa:	4619      	mov	r1, r3
    38ac:	f7ff fe12 	bl	34d4 <HardOverdrive>
    38b0:	4602      	mov	r2, r0
    38b2:	f24e 135c 	movw	r3, #57692	; 0xe15c
    38b6:	f6c1 73ff 	movt	r3, #8191	; 0x1fff
    38ba:	601a      	str	r2, [r3, #0]
               
                Compute_q31_t_IIR(&MyIIR[1],Signal,&Signal);
    38bc:	f24e 135c 	movw	r3, #57692	; 0xe15c
    38c0:	f6c1 73ff 	movt	r3, #8191	; 0x1fff
    38c4:	681b      	ldr	r3, [r3, #0]
    38c6:	486f      	ldr	r0, [pc, #444]	; (3a84 <AudioProcess+0x440>)
    38c8:	4619      	mov	r1, r3
    38ca:	f24e 125c 	movw	r2, #57692	; 0xe15c
    38ce:	f6c1 72ff 	movt	r2, #8191	; 0x1fff
    38d2:	f7fe f831 	bl	1938 <Compute_q31_t_IIR>
                
                //Saturate the output to 24 bits
                   Signal = __SSAT(Signal,24);
    38d6:	f24e 135c 	movw	r3, #57692	; 0xe15c
    38da:	f6c1 73ff 	movt	r3, #8191	; 0x1fff
    38de:	681b      	ldr	r3, [r3, #0]
    38e0:	60fb      	str	r3, [r7, #12]
    38e2:	68fb      	ldr	r3, [r7, #12]
    38e4:	f303 0417 	ssat	r4, #23, r3
    38e8:	60bc      	str	r4, [r7, #8]
    38ea:	68bb      	ldr	r3, [r7, #8]
    38ec:	461a      	mov	r2, r3
    38ee:	f24e 135c 	movw	r3, #57692	; 0xe15c
    38f2:	f6c1 73ff 	movt	r3, #8191	; 0x1fff
    38f6:	601a      	str	r2, [r3, #0]
                
                LeftOut = Signal;
    38f8:	f24e 135c 	movw	r3, #57692	; 0xe15c
    38fc:	f6c1 73ff 	movt	r3, #8191	; 0x1fff
    3900:	681a      	ldr	r2, [r3, #0]
    3902:	f24e 03b0 	movw	r3, #57520	; 0xe0b0
    3906:	f6c1 73ff 	movt	r3, #8191	; 0x1fff
    390a:	601a      	str	r2, [r3, #0]
                RightOut = Signal;
    390c:	f24e 135c 	movw	r3, #57692	; 0xe15c
    3910:	f6c1 73ff 	movt	r3, #8191	; 0x1fff
    3914:	681a      	ldr	r2, [r3, #0]
    3916:	f24e 1360 	movw	r3, #57696	; 0xe160
    391a:	f6c1 73ff 	movt	r3, #8191	; 0x1fff
    391e:	601a      	str	r2, [r3, #0]
                break;
    3920:	e0ab      	b.n	3a7a <AudioProcess+0x436>

            case PATCH_TUBEY_CLEAN:
             
            	if(MyIIR[0].Update>0)
    3922:	f24e 03b8 	movw	r3, #57528	; 0xe0b8
    3926:	f6c1 73ff 	movt	r3, #8191	; 0x1fff
    392a:	f893 3048 	ldrb.w	r3, [r3, #72]	; 0x48
    392e:	2b00      	cmp	r3, #0
    3930:	d018      	beq.n	3964 <AudioProcess+0x320>
                    {
                        MyIIR[0].Update = 0;
    3932:	f24e 03b8 	movw	r3, #57528	; 0xe0b8
    3936:	f6c1 73ff 	movt	r3, #8191	; 0x1fff
    393a:	f04f 0200 	mov.w	r2, #0
    393e:	f883 2048 	strb.w	r2, [r3, #72]	; 0x48
                        MyIIR[0].Coef = MyIIR[0].Shadow_Coef;
    3942:	f24e 02b8 	movw	r2, #57528	; 0xe0b8
    3946:	f6c1 72ff 	movt	r2, #8191	; 0x1fff
    394a:	f24e 03b8 	movw	r3, #57528	; 0xe0b8
    394e:	f6c1 73ff 	movt	r3, #8191	; 0x1fff
    3952:	4614      	mov	r4, r2
    3954:	f103 0530 	add.w	r5, r3, #48	; 0x30
    3958:	cd0f      	ldmia	r5!, {r0, r1, r2, r3}
    395a:	c40f      	stmia	r4!, {r0, r1, r2, r3}
    395c:	e895 0003 	ldmia.w	r5, {r0, r1}
    3960:	e884 0003 	stmia.w	r4, {r0, r1}
                    }
         
            	if(MyIIR[1].Update>0)
    3964:	f24e 03b8 	movw	r3, #57528	; 0xe0b8
    3968:	f6c1 73ff 	movt	r3, #8191	; 0x1fff
    396c:	f893 3098 	ldrb.w	r3, [r3, #152]	; 0x98
    3970:	2b00      	cmp	r3, #0
    3972:	d019      	beq.n	39a8 <AudioProcess+0x364>
                    {
                         MyIIR[1].Update = 0;
    3974:	f24e 03b8 	movw	r3, #57528	; 0xe0b8
    3978:	f6c1 73ff 	movt	r3, #8191	; 0x1fff
    397c:	f04f 0200 	mov.w	r2, #0
    3980:	f883 2098 	strb.w	r2, [r3, #152]	; 0x98
                          MyIIR[1].Coef = MyIIR[1].Shadow_Coef;
    3984:	f24e 02b8 	movw	r2, #57528	; 0xe0b8
    3988:	f6c1 72ff 	movt	r2, #8191	; 0x1fff
    398c:	f24e 03b8 	movw	r3, #57528	; 0xe0b8
    3990:	f6c1 73ff 	movt	r3, #8191	; 0x1fff
    3994:	f102 0450 	add.w	r4, r2, #80	; 0x50
    3998:	f103 0580 	add.w	r5, r3, #128	; 0x80
    399c:	cd0f      	ldmia	r5!, {r0, r1, r2, r3}
    399e:	c40f      	stmia	r4!, {r0, r1, r2, r3}
    39a0:	e895 0003 	ldmia.w	r5, {r0, r1}
    39a4:	e884 0003 	stmia.w	r4, {r0, r1}
                   }
            	
                Signal = (LeftIn + RightIn)<<1;
    39a8:	f24e 1358 	movw	r3, #57688	; 0xe158
    39ac:	f6c1 73ff 	movt	r3, #8191	; 0x1fff
    39b0:	681a      	ldr	r2, [r3, #0]
    39b2:	f24e 03ac 	movw	r3, #57516	; 0xe0ac
    39b6:	f6c1 73ff 	movt	r3, #8191	; 0x1fff
    39ba:	681b      	ldr	r3, [r3, #0]
    39bc:	18d3      	adds	r3, r2, r3
    39be:	ea4f 0243 	mov.w	r2, r3, lsl #1
    39c2:	f24e 135c 	movw	r3, #57692	; 0xe15c
    39c6:	f6c1 73ff 	movt	r3, #8191	; 0x1fff
    39ca:	601a      	str	r2, [r3, #0]
                
                Compute_q31_t_IIR(&MyIIR[0],Signal,&Signal);
    39cc:	f24e 135c 	movw	r3, #57692	; 0xe15c
    39d0:	f6c1 73ff 	movt	r3, #8191	; 0x1fff
    39d4:	681b      	ldr	r3, [r3, #0]
    39d6:	f24e 00b8 	movw	r0, #57528	; 0xe0b8
    39da:	f6c1 70ff 	movt	r0, #8191	; 0x1fff
    39de:	4619      	mov	r1, r3
    39e0:	f24e 125c 	movw	r2, #57692	; 0xe15c
    39e4:	f6c1 72ff 	movt	r2, #8191	; 0x1fff
    39e8:	f7fd ffa6 	bl	1938 <Compute_q31_t_IIR>
                Signal = SoftOverdrive(Signal, OD_Level);
    39ec:	f24e 135c 	movw	r3, #57692	; 0xe15c
    39f0:	f6c1 73ff 	movt	r3, #8191	; 0x1fff
    39f4:	681a      	ldr	r2, [r3, #0]
    39f6:	f24e 0334 	movw	r3, #57396	; 0xe034
    39fa:	f6c1 73ff 	movt	r3, #8191	; 0x1fff
    39fe:	681b      	ldr	r3, [r3, #0]
    3a00:	4610      	mov	r0, r2
    3a02:	4619      	mov	r1, r3
    3a04:	f7ff fda8 	bl	3558 <SoftOverdrive>
    3a08:	4602      	mov	r2, r0
    3a0a:	f24e 135c 	movw	r3, #57692	; 0xe15c
    3a0e:	f6c1 73ff 	movt	r3, #8191	; 0x1fff
    3a12:	601a      	str	r2, [r3, #0]
                Compute_q31_t_IIR(&MyIIR[1],Signal,&Signal);
    3a14:	f24e 135c 	movw	r3, #57692	; 0xe15c
    3a18:	f6c1 73ff 	movt	r3, #8191	; 0x1fff
    3a1c:	681b      	ldr	r3, [r3, #0]
    3a1e:	4819      	ldr	r0, [pc, #100]	; (3a84 <AudioProcess+0x440>)
    3a20:	4619      	mov	r1, r3
    3a22:	f24e 125c 	movw	r2, #57692	; 0xe15c
    3a26:	f6c1 72ff 	movt	r2, #8191	; 0x1fff
    3a2a:	f7fd ff85 	bl	1938 <Compute_q31_t_IIR>
                      
                //Saturate the output to 24 bits
                Signal = __SSAT(Signal,24);
    3a2e:	f24e 135c 	movw	r3, #57692	; 0xe15c
    3a32:	f6c1 73ff 	movt	r3, #8191	; 0x1fff
    3a36:	681b      	ldr	r3, [r3, #0]
    3a38:	607b      	str	r3, [r7, #4]
    3a3a:	687b      	ldr	r3, [r7, #4]
    3a3c:	f303 0417 	ssat	r4, #23, r3
    3a40:	603c      	str	r4, [r7, #0]
    3a42:	683b      	ldr	r3, [r7, #0]
    3a44:	461a      	mov	r2, r3
    3a46:	f24e 135c 	movw	r3, #57692	; 0xe15c
    3a4a:	f6c1 73ff 	movt	r3, #8191	; 0x1fff
    3a4e:	601a      	str	r2, [r3, #0]
                
                LeftOut  = Signal;
    3a50:	f24e 135c 	movw	r3, #57692	; 0xe15c
    3a54:	f6c1 73ff 	movt	r3, #8191	; 0x1fff
    3a58:	681a      	ldr	r2, [r3, #0]
    3a5a:	f24e 03b0 	movw	r3, #57520	; 0xe0b0
    3a5e:	f6c1 73ff 	movt	r3, #8191	; 0x1fff
    3a62:	601a      	str	r2, [r3, #0]
                RightOut = Signal;
    3a64:	f24e 135c 	movw	r3, #57692	; 0xe15c
    3a68:	f6c1 73ff 	movt	r3, #8191	; 0x1fff
    3a6c:	681a      	ldr	r2, [r3, #0]
    3a6e:	f24e 1360 	movw	r3, #57696	; 0xe160
    3a72:	f6c1 73ff 	movt	r3, #8191	; 0x1fff
    3a76:	601a      	str	r2, [r3, #0]
                
                break;
    3a78:	bf00      	nop

           
        }
    
	}
}
    3a7a:	f107 0710 	add.w	r7, r7, #16
    3a7e:	46bd      	mov	sp, r7
    3a80:	bdb0      	pop	{r4, r5, r7, pc}
    3a82:	bf00      	nop
    3a84:	1fffe108 	.word	0x1fffe108

00003a88 <InitAudioIO>:

uint32_t InitAudioIO( uint32_t    BusClockIn,
                      uint32_t    SampleRate,
                      uint32_t    MCLK_Ratio)

{
    3a88:	b5b0      	push	{r4, r5, r7, lr}
    3a8a:	b08a      	sub	sp, #40	; 0x28
    3a8c:	af02      	add	r7, sp, #8
    3a8e:	60f8      	str	r0, [r7, #12]
    3a90:	60b9      	str	r1, [r7, #8]
    3a92:	607a      	str	r2, [r7, #4]
    float       TargetDivider;
    uint32_t    Frac;
    uint32_t    Div;
    SIM_SCGC6 |= SIM_SCGC6_I2S_MASK;    //Enable CLock to I2S Module
    3a94:	f44f 43e0 	mov.w	r3, #28672	; 0x7000
    3a98:	f2c4 0304 	movt	r3, #16388	; 0x4004
    3a9c:	f44f 42e0 	mov.w	r2, #28672	; 0x7000
    3aa0:	f2c4 0204 	movt	r2, #16388	; 0x4004
    3aa4:	f502 5281 	add.w	r2, r2, #4128	; 0x1020
    3aa8:	f102 021c 	add.w	r2, r2, #28
    3aac:	6812      	ldr	r2, [r2, #0]
    3aae:	f442 4200 	orr.w	r2, r2, #32768	; 0x8000
    3ab2:	f503 5381 	add.w	r3, r3, #4128	; 0x1020
    3ab6:	f103 031c 	add.w	r3, r3, #28
    3aba:	601a      	str	r2, [r3, #0]
    //blow away all the registers;
    sai_clear_reg(0);
    3abc:	f04f 0000 	mov.w	r0, #0
    3ac0:	f001 fe4c 	bl	575c <sai_clear_reg>
    //Setup the Master Clock
    AudioMasterClock = SampleRate *     //input Sample Rate
    3ac4:	68bb      	ldr	r3, [r7, #8]
    3ac6:	687a      	ldr	r2, [r7, #4]
    3ac8:	fb02 f203 	mul.w	r2, r2, r3
    3acc:	f24e 1364 	movw	r3, #57700	; 0xe164
    3ad0:	f6c1 73ff 	movt	r3, #8191	; 0x1fff
    3ad4:	601a      	str	r2, [r3, #0]
                       MCLK_Ratio; // Overclock Ration
    TargetDivider = (float)AudioMasterClock / (float)BusClockIn;
    3ad6:	f24e 1364 	movw	r3, #57700	; 0xe164
    3ada:	f6c1 73ff 	movt	r3, #8191	; 0x1fff
    3ade:	681b      	ldr	r3, [r3, #0]
    3ae0:	4618      	mov	r0, r3
    3ae2:	f7fd fc0d 	bl	1300 <__aeabi_ui2f>
    3ae6:	4604      	mov	r4, r0
    3ae8:	68f8      	ldr	r0, [r7, #12]
    3aea:	f7fd fc09 	bl	1300 <__aeabi_ui2f>
    3aee:	4603      	mov	r3, r0
    3af0:	4620      	mov	r0, r4
    3af2:	4619      	mov	r1, r3
    3af4:	f7fd fd10 	bl	1518 <__aeabi_fdiv>
    3af8:	4603      	mov	r3, r0
    3afa:	61bb      	str	r3, [r7, #24]
    //Iterate through all possibilities of the DIv/Frac to narrow in on a good diver
    Div = 8192; //1st operation is a halving which will put us at the maximum divider value
    3afc:	f44f 5300 	mov.w	r3, #8192	; 0x2000
    3b00:	61fb      	str	r3, [r7, #28]

    do
        {
            Div >>= 1;
    3b02:	69fb      	ldr	r3, [r7, #28]
    3b04:	ea4f 0353 	mov.w	r3, r3, lsr #1
    3b08:	61fb      	str	r3, [r7, #28]
            Frac = (uint32_t) ((float)Div * TargetDivider);
    3b0a:	69f8      	ldr	r0, [r7, #28]
    3b0c:	f7fd fbf8 	bl	1300 <__aeabi_ui2f>
    3b10:	4603      	mov	r3, r0
    3b12:	4618      	mov	r0, r3
    3b14:	69b9      	ldr	r1, [r7, #24]
    3b16:	f7fd fc4b 	bl	13b0 <__aeabi_fmul>
    3b1a:	4603      	mov	r3, r0
    3b1c:	4618      	mov	r0, r3
    3b1e:	f7fd fe33 	bl	1788 <__aeabi_f2uiz>
    3b22:	4603      	mov	r3, r0
    3b24:	617b      	str	r3, [r7, #20]
        }
    while(Frac > 256);
    3b26:	697b      	ldr	r3, [r7, #20]
    3b28:	f5b3 7f80 	cmp.w	r3, #256	; 0x100
    3b2c:	d8e9      	bhi.n	3b02 <InitAudioIO+0x7a>

    //Re compute based upon actual Values
    AudioMasterClock = (uint32_t) ((float)BusClockIn * (((float)Frac + 1) / ((float)Div + 1)));
    3b2e:	68f8      	ldr	r0, [r7, #12]
    3b30:	f7fd fbe6 	bl	1300 <__aeabi_ui2f>
    3b34:	4604      	mov	r4, r0
    3b36:	6978      	ldr	r0, [r7, #20]
    3b38:	f7fd fbe2 	bl	1300 <__aeabi_ui2f>
    3b3c:	4603      	mov	r3, r0
    3b3e:	4618      	mov	r0, r3
    3b40:	f04f 517e 	mov.w	r1, #1065353216	; 0x3f800000
    3b44:	f7fd fb2c 	bl	11a0 <__addsf3>
    3b48:	4603      	mov	r3, r0
    3b4a:	461d      	mov	r5, r3
    3b4c:	69f8      	ldr	r0, [r7, #28]
    3b4e:	f7fd fbd7 	bl	1300 <__aeabi_ui2f>
    3b52:	4603      	mov	r3, r0
    3b54:	4618      	mov	r0, r3
    3b56:	f04f 517e 	mov.w	r1, #1065353216	; 0x3f800000
    3b5a:	f7fd fb21 	bl	11a0 <__addsf3>
    3b5e:	4603      	mov	r3, r0
    3b60:	4628      	mov	r0, r5
    3b62:	4619      	mov	r1, r3
    3b64:	f7fd fcd8 	bl	1518 <__aeabi_fdiv>
    3b68:	4603      	mov	r3, r0
    3b6a:	4620      	mov	r0, r4
    3b6c:	4619      	mov	r1, r3
    3b6e:	f7fd fc1f 	bl	13b0 <__aeabi_fmul>
    3b72:	4603      	mov	r3, r0
    3b74:	4618      	mov	r0, r3
    3b76:	f7fd fe07 	bl	1788 <__aeabi_f2uiz>
    3b7a:	4602      	mov	r2, r0
    3b7c:	f24e 1364 	movw	r3, #57700	; 0xe164
    3b80:	f6c1 73ff 	movt	r3, #8191	; 0x1fff
    3b84:	601a      	str	r2, [r3, #0]
    SampleRate = (uint32_t) ((float)AudioMasterClock / (float)MCLK_Ratio);
    3b86:	f24e 1364 	movw	r3, #57700	; 0xe164
    3b8a:	f6c1 73ff 	movt	r3, #8191	; 0x1fff
    3b8e:	681b      	ldr	r3, [r3, #0]
    3b90:	4618      	mov	r0, r3
    3b92:	f7fd fbb5 	bl	1300 <__aeabi_ui2f>
    3b96:	4604      	mov	r4, r0
    3b98:	6878      	ldr	r0, [r7, #4]
    3b9a:	f7fd fbb1 	bl	1300 <__aeabi_ui2f>
    3b9e:	4603      	mov	r3, r0
    3ba0:	4620      	mov	r0, r4
    3ba2:	4619      	mov	r1, r3
    3ba4:	f7fd fcb8 	bl	1518 <__aeabi_fdiv>
    3ba8:	4603      	mov	r3, r0
    3baa:	4618      	mov	r0, r3
    3bac:	f7fd fdec 	bl	1788 <__aeabi_f2uiz>
    3bb0:	4603      	mov	r3, r0
    3bb2:	60bb      	str	r3, [r7, #8]
    sai_mclk_config(0, 0, 1, Frac - 1, Div - 1);
    3bb4:	697b      	ldr	r3, [r7, #20]
    3bb6:	b2db      	uxtb	r3, r3
    3bb8:	f103 33ff 	add.w	r3, r3, #4294967295
    3bbc:	b2db      	uxtb	r3, r3
    3bbe:	69fa      	ldr	r2, [r7, #28]
    3bc0:	f102 32ff 	add.w	r2, r2, #4294967295
    3bc4:	9200      	str	r2, [sp, #0]
    3bc6:	f04f 0000 	mov.w	r0, #0
    3bca:	f04f 0100 	mov.w	r1, #0
    3bce:	f04f 0201 	mov.w	r2, #1
    3bd2:	f001 fd0b 	bl	55ec <sai_mclk_config>
    //Set of the BitClock.  There always needs to be 64 bclocks per sample
    Div = AudioMasterClock / (SampleRate * 64);
    3bd6:	f24e 1364 	movw	r3, #57700	; 0xe164
    3bda:	f6c1 73ff 	movt	r3, #8191	; 0x1fff
    3bde:	681a      	ldr	r2, [r3, #0]
    3be0:	68bb      	ldr	r3, [r7, #8]
    3be2:	ea4f 1383 	mov.w	r3, r3, lsl #6
    3be6:	fbb2 f3f3 	udiv	r3, r2, r3
    3bea:	61fb      	str	r3, [r7, #28]
        0,      //Port 0
        1,      //Tx
        1,      //Set as MAster Clock
        1,      //Active High Polarity
        1,      //Direction is out
        Div / 2 - 1
    3bec:	69fb      	ldr	r3, [r7, #28]
    3bee:	ea4f 0353 	mov.w	r3, r3, lsr #1
    SampleRate = (uint32_t) ((float)AudioMasterClock / (float)MCLK_Ratio);
    sai_mclk_config(0, 0, 1, Frac - 1, Div - 1);
    //Set of the BitClock.  There always needs to be 64 bclocks per sample
    Div = AudioMasterClock / (SampleRate * 64);
    sai_bclk_config
    (
    3bf2:	b2db      	uxtb	r3, r3
    3bf4:	f103 33ff 	add.w	r3, r3, #4294967295
    3bf8:	b2db      	uxtb	r3, r3
    3bfa:	f04f 0201 	mov.w	r2, #1
    3bfe:	9200      	str	r2, [sp, #0]
    3c00:	9301      	str	r3, [sp, #4]
    3c02:	f04f 0000 	mov.w	r0, #0
    3c06:	f04f 0101 	mov.w	r1, #1
    3c0a:	f04f 0201 	mov.w	r2, #1
    3c0e:	f04f 0301 	mov.w	r3, #1
    3c12:	f001 f957 	bl	4ec4 <sai_bclk_config>
        0,      //Port 0
        0,      //Rx
        1,      //Set as MAster Clock
        1,      //Active High Polarity
        1,      //Direction is out
        Div / 2 - 1
    3c16:	69fb      	ldr	r3, [r7, #28]
    3c18:	ea4f 0353 	mov.w	r3, r3, lsr #1
        1,      //Active High Polarity
        1,      //Direction is out
        Div / 2 - 1
    );          //Set the Div value for the BIt CLock
    sai_bclk_config
    (
    3c1c:	b2db      	uxtb	r3, r3
    3c1e:	f103 33ff 	add.w	r3, r3, #4294967295
    3c22:	b2db      	uxtb	r3, r3
    3c24:	f04f 0201 	mov.w	r2, #1
    3c28:	9200      	str	r2, [sp, #0]
    3c2a:	9301      	str	r3, [sp, #4]
    3c2c:	f04f 0000 	mov.w	r0, #0
    3c30:	f04f 0100 	mov.w	r1, #0
    3c34:	f04f 0201 	mov.w	r2, #1
    3c38:	f04f 0301 	mov.w	r3, #1
    3c3c:	f001 f942 	bl	4ec4 <sai_bclk_config>
        1,      //Set as MAster Clock
        1,      //Active High Polarity
        1,      //Direction is out
        Div / 2 - 1
    );          //Set the Div value for the BIt CLock
    sai_bclk_en(0, //Port
    3c40:	f04f 0000 	mov.w	r0, #0
    3c44:	f04f 0101 	mov.w	r1, #1
    3c48:	f001 fa22 	bl	5090 <sai_bclk_en>
                1 //Tx
               );
    sai_bclk_en(0, //Port
    3c4c:	f04f 0000 	mov.w	r0, #0
    3c50:	f04f 0100 	mov.w	r1, #0
    3c54:	f001 fa1c 	bl	5090 <sai_bclk_en>
                0 //Rx
               );
    sai_mode_config(0, //Port 0
    3c58:	f04f 0300 	mov.w	r3, #0
    3c5c:	9300      	str	r3, [sp, #0]
    3c5e:	f04f 0000 	mov.w	r0, #0
    3c62:	f04f 0101 	mov.w	r1, #1
    3c66:	f04f 0200 	mov.w	r2, #0
    3c6a:	f04f 0300 	mov.w	r3, #0
    3c6e:	f001 f87f 	bl	4d70 <sai_mode_config>
                    1, //Tx
                    0,
                    0, //Not Bit Swap
                    0);  //No BCI
    sai_mode_config(0, //Port 0
    3c72:	f04f 0300 	mov.w	r3, #0
    3c76:	9300      	str	r3, [sp, #0]
    3c78:	f04f 0000 	mov.w	r0, #0
    3c7c:	f04f 0100 	mov.w	r1, #0
    3c80:	f04f 0201 	mov.w	r2, #1
    3c84:	f04f 0300 	mov.w	r3, #0
    3c88:	f001 f872 	bl	4d70 <sai_mode_config>
                    0, //Rx
                    1,
                    0, //Not Bit Swap
                    0);  //No BCI
    sai_word_flg_config(0, //port
    3c8c:	f04f 0000 	mov.w	r0, #0
    3c90:	f04f 0101 	mov.w	r1, #1
    3c94:	f04f 0200 	mov.w	r2, #0
    3c98:	f001 fa5e 	bl	5158 <sai_word_flg_config>
                        1, //tx
                        0 //first word starts word flag
                       );
    sai_word_flg_config(0, //port
    3c9c:	f04f 0000 	mov.w	r0, #0
    3ca0:	f04f 0100 	mov.w	r1, #0
    3ca4:	f04f 0200 	mov.w	r2, #0
    3ca8:	f001 fa56 	bl	5158 <sai_word_flg_config>
                        0, //rx
                        0 //first word starts word flag
                       );
    sai_frame_config(
    3cac:	f04f 0301 	mov.w	r3, #1
    3cb0:	9300      	str	r3, [sp, #0]
    3cb2:	f04f 0000 	mov.w	r0, #0
    3cb6:	f04f 0101 	mov.w	r1, #1
    3cba:	f04f 0201 	mov.w	r2, #1
    3cbe:	f04f 033f 	mov.w	r3, #63	; 0x3f
    3cc2:	f001 fa7d 	bl	51c0 <sai_frame_config>
        1,                  //Frame is 2 words - write one less than actual number
        63,                 //one less than the number of BClks per frame.  32 bclocks for each word
        1                   //MSB First
    );
    sai_frame_config
    (
    3cc6:	f04f 0301 	mov.w	r3, #1
    3cca:	9300      	str	r3, [sp, #0]
    3ccc:	f04f 0000 	mov.w	r0, #0
    3cd0:	f04f 0100 	mov.w	r1, #0
    3cd4:	f04f 0201 	mov.w	r2, #1
    3cd8:	f04f 033f 	mov.w	r3, #63	; 0x3f
    3cdc:	f001 fa70 	bl	51c0 <sai_frame_config>
        1,                  //Frame is 2 words
        63,                 //one less than the number of BClks per frame.  32 bclocks for each word
        1                   //MSB First
    );
    sai_frameclk_config
    (
    3ce0:	f04f 0301 	mov.w	r3, #1
    3ce4:	9300      	str	r3, [sp, #0]
    3ce6:	f04f 0000 	mov.w	r0, #0
    3cea:	f04f 0101 	mov.w	r1, #1
    3cee:	f04f 0200 	mov.w	r2, #0
    3cf2:	f04f 0300 	mov.w	r3, #0
    3cf6:	f001 fb15 	bl	5324 <sai_frameclk_config>
				
        0,                  //high active frame sync polarity
        1                   //Master mode generates frame sync
    );
    sai_frameclk_config
    (
    3cfa:	f04f 0301 	mov.w	r3, #1
    3cfe:	9300      	str	r3, [sp, #0]
    3d00:	f04f 0000 	mov.w	r0, #0
    3d04:	f04f 0100 	mov.w	r1, #0
    3d08:	f04f 0201 	mov.w	r2, #1
    3d0c:	f04f 0300 	mov.w	r3, #0
    3d10:	f001 fb08 	bl	5324 <sai_frameclk_config>
        0,                  //Rx
        1,                  //Frame Sync One bit Early.   This makes it I2S compatible
        0,                  //high active frame sync polarity
        1                   //Master mode generates frame sync
    );
    sai_wordlength_config(0, //Port
    3d14:	f04f 0317 	mov.w	r3, #23
    3d18:	9300      	str	r3, [sp, #0]
    3d1a:	f04f 0000 	mov.w	r0, #0
    3d1e:	f04f 0101 	mov.w	r1, #1
    3d22:	f04f 021f 	mov.w	r2, #31
    3d26:	f04f 031f 	mov.w	r3, #31
    3d2a:	f001 fbc3 	bl	54b4 <sai_wordlength_config>
                          1, //Tx
                          31, //32 bits per word N
                          31, //32 bits per word N
                          23 // first bit to shift
                         );
    sai_wordlength_config(0, //Port
    3d2e:	f04f 0317 	mov.w	r3, #23
    3d32:	9300      	str	r3, [sp, #0]
    3d34:	f04f 0000 	mov.w	r0, #0
    3d38:	f04f 0100 	mov.w	r1, #0
    3d3c:	f04f 021f 	mov.w	r2, #31
    3d40:	f04f 031f 	mov.w	r3, #31
    3d44:	f001 fbb6 	bl	54b4 <sai_wordlength_config>
                          0, //Rx
                          31, //32 bits per word N
                          31, //32 bits per word N
                          23 // first bit to shift
                         );
    sai_channel_enable(0, //Port 0
    3d48:	f04f 0000 	mov.w	r0, #0
    3d4c:	f04f 0101 	mov.w	r1, #1
    3d50:	f04f 0201 	mov.w	r2, #1
    3d54:	f001 f9c8 	bl	50e8 <sai_channel_enable>
                       1, //Tx
                       1 //Enable both Channel
                      );
    sai_channel_enable(0, //Port 0
    3d58:	f04f 0000 	mov.w	r0, #0
    3d5c:	f04f 0100 	mov.w	r1, #0
    3d60:	f04f 0201 	mov.w	r2, #1
    3d64:	f001 f9c0 	bl	50e8 <sai_channel_enable>
                       0, //Rx
                       1 //Enable both Channel
                      );
   // sai_pinmux_init(0, 0);  //Port C
    sai_stop_dbg_enable(0, 1, 0, 0);    //tx enabled in debug and stop
    3d68:	f04f 0000 	mov.w	r0, #0
    3d6c:	f04f 0101 	mov.w	r1, #1
    3d70:	f04f 0200 	mov.w	r2, #0
    3d74:	f04f 0300 	mov.w	r3, #0
    3d78:	f000 fea8 	bl	4acc <sai_stop_dbg_enable>
    sai_stop_dbg_enable(0, 0, 0, 0);    //RX enabled in debug and stop
    3d7c:	f04f 0000 	mov.w	r0, #0
    3d80:	f04f 0100 	mov.w	r1, #0
    3d84:	f04f 0200 	mov.w	r2, #0
    3d88:	f04f 0300 	mov.w	r3, #0
    3d8c:	f000 fe9e 	bl	4acc <sai_stop_dbg_enable>
    sai_watermark_config(0, //POrt 0
    3d90:	f04f 0000 	mov.w	r0, #0
    3d94:	f04f 0101 	mov.w	r1, #1
    3d98:	f04f 0201 	mov.w	r2, #1
    3d9c:	f000 ffc6 	bl	4d2c <sai_watermark_config>
                         1, //Recieve WaterMark
                         1 //anything greater than 1
                        );
    sai_watermark_config(0, //POrt 0
    3da0:	f04f 0000 	mov.w	r0, #0
    3da4:	f04f 0100 	mov.w	r1, #0
    3da8:	f04f 0201 	mov.w	r2, #1
    3dac:	f000 ffbe 	bl	4d2c <sai_watermark_config>
                         0, //tx WaterMark
                         1 //anything less than or equal to
                        );
    sai_enable(0, //port
    3db0:	f04f 0000 	mov.w	r0, #0
    3db4:	f04f 0100 	mov.w	r1, #0
    3db8:	f000 ff8a 	bl	4cd0 <sai_enable>
               0 //rx
              );
    sai_enable(0, //port
    3dbc:	f04f 0000 	mov.w	r0, #0
    3dc0:	f04f 0101 	mov.w	r1, #1
    3dc4:	f000 ff84 	bl	4cd0 <sai_enable>
               1 //tx
              );
    I2S0_TDR0 = 0;
    3dc8:	f44f 4370 	mov.w	r3, #61440	; 0xf000
    3dcc:	f2c4 0302 	movt	r3, #16386	; 0x4002
    3dd0:	f04f 0200 	mov.w	r2, #0
    3dd4:	621a      	str	r2, [r3, #32]
    I2S0_TDR0 = 0;
    3dd6:	f44f 4370 	mov.w	r3, #61440	; 0xf000
    3dda:	f2c4 0302 	movt	r3, #16386	; 0x4002
    3dde:	f04f 0200 	mov.w	r2, #0
    3de2:	621a      	str	r2, [r3, #32]
    I2S0_TDR0 = 0;
    3de4:	f44f 4370 	mov.w	r3, #61440	; 0xf000
    3de8:	f2c4 0302 	movt	r3, #16386	; 0x4002
    3dec:	f04f 0200 	mov.w	r2, #0
    3df0:	621a      	str	r2, [r3, #32]
    I2S0_TDR0 = 0;
    3df2:	f44f 4370 	mov.w	r3, #61440	; 0xf000
    3df6:	f2c4 0302 	movt	r3, #16386	; 0x4002
    3dfa:	f04f 0200 	mov.w	r2, #0
    3dfe:	621a      	str	r2, [r3, #32]

    sai_interrupt_enable(0, //Port
    3e00:	f04f 0000 	mov.w	r0, #0
    3e04:	f04f 0100 	mov.w	r1, #0
    3e08:	f000 ff34 	bl	4c74 <sai_interrupt_enable>
                         0 // Rx)
                        );
    sai_interrupt_enable(0, //Port
    3e0c:	f04f 0000 	mov.w	r0, #0
    3e10:	f04f 0101 	mov.w	r1, #1
    3e14:	f000 ff2e 	bl	4c74 <sai_interrupt_enable>
                         1 // tx)
                        );
    enable_irq(INT_I2S0_Rx - 16);
    3e18:	f04f 000e 	mov.w	r0, #14
    3e1c:	f000 f814 	bl	3e48 <enable_irq>
    enable_irq(INT_I2S0_Tx - 16);
    3e20:	f04f 000d 	mov.w	r0, #13
    3e24:	f000 f810 	bl	3e48 <enable_irq>
    AudioSampleRate = SampleRate;
    3e28:	f24e 1368 	movw	r3, #57704	; 0xe168
    3e2c:	f6c1 73ff 	movt	r3, #8191	; 0x1fff
    3e30:	68ba      	ldr	r2, [r7, #8]
    3e32:	601a      	str	r2, [r3, #0]
    return AudioMasterClock;
    3e34:	f24e 1364 	movw	r3, #57700	; 0xe164
    3e38:	f6c1 73ff 	movt	r3, #8191	; 0x1fff
    3e3c:	681b      	ldr	r3, [r3, #0]
}
    3e3e:	4618      	mov	r0, r3
    3e40:	f107 0720 	add.w	r7, r7, #32
    3e44:	46bd      	mov	sp, r7
    3e46:	bdb0      	pop	{r4, r5, r7, pc}

00003e48 <enable_irq>:
 * irq    irq number to be enabled (the irq number NOT the vector number)
 */

void enable_irq
(int irq)
{
    3e48:	b480      	push	{r7}
    3e4a:	b085      	sub	sp, #20
    3e4c:	af00      	add	r7, sp, #0
    3e4e:	6078      	str	r0, [r7, #4]
     * used.
     */
    /// if (irq > 61)
    //printf("\nERR! Invalid IRQ value passed to enable irq function!\n");
    /* Determine which of the NVICISERs corresponds to the irq */
    div = irq / 32;
    3e50:	687b      	ldr	r3, [r7, #4]
    3e52:	2b00      	cmp	r3, #0
    3e54:	da01      	bge.n	3e5a <enable_irq+0x12>
    3e56:	f103 031f 	add.w	r3, r3, #31
    3e5a:	ea4f 1363 	mov.w	r3, r3, asr #5
    3e5e:	60fb      	str	r3, [r7, #12]

    switch(div)
    3e60:	68fb      	ldr	r3, [r7, #12]
    3e62:	2b01      	cmp	r3, #1
    3e64:	d034      	beq.n	3ed0 <enable_irq+0x88>
    3e66:	2b02      	cmp	r3, #2
    3e68:	d062      	beq.n	3f30 <enable_irq+0xe8>
    3e6a:	2b00      	cmp	r3, #0
    3e6c:	f040 8090 	bne.w	3f90 <enable_irq+0x148>
        {
            case 0x0:
                NVICICPR0 = 1 << (irq % 32);
    3e70:	f44f 4261 	mov.w	r2, #57600	; 0xe100
    3e74:	f2ce 0200 	movt	r2, #57344	; 0xe000
    3e78:	6879      	ldr	r1, [r7, #4]
    3e7a:	f04f 031f 	mov.w	r3, #31
    3e7e:	f2c8 0300 	movt	r3, #32768	; 0x8000
    3e82:	400b      	ands	r3, r1
    3e84:	2b00      	cmp	r3, #0
    3e86:	da05      	bge.n	3e94 <enable_irq+0x4c>
    3e88:	f103 33ff 	add.w	r3, r3, #4294967295
    3e8c:	f063 031f 	orn	r3, r3, #31
    3e90:	f103 0301 	add.w	r3, r3, #1
    3e94:	f04f 0101 	mov.w	r1, #1
    3e98:	fa01 f303 	lsl.w	r3, r1, r3
    3e9c:	f8c2 3180 	str.w	r3, [r2, #384]	; 0x180
                NVICISER0 = 1 << (irq % 32);
    3ea0:	f44f 4261 	mov.w	r2, #57600	; 0xe100
    3ea4:	f2ce 0200 	movt	r2, #57344	; 0xe000
    3ea8:	6879      	ldr	r1, [r7, #4]
    3eaa:	f04f 031f 	mov.w	r3, #31
    3eae:	f2c8 0300 	movt	r3, #32768	; 0x8000
    3eb2:	400b      	ands	r3, r1
    3eb4:	2b00      	cmp	r3, #0
    3eb6:	da05      	bge.n	3ec4 <enable_irq+0x7c>
    3eb8:	f103 33ff 	add.w	r3, r3, #4294967295
    3ebc:	f063 031f 	orn	r3, r3, #31
    3ec0:	f103 0301 	add.w	r3, r3, #1
    3ec4:	f04f 0101 	mov.w	r1, #1
    3ec8:	fa01 f303 	lsl.w	r3, r1, r3
    3ecc:	6013      	str	r3, [r2, #0]
                break;
    3ece:	e05f      	b.n	3f90 <enable_irq+0x148>

            case 0x1:
                NVICICPR1 = 1 << (irq % 32);
    3ed0:	f44f 4261 	mov.w	r2, #57600	; 0xe100
    3ed4:	f2ce 0200 	movt	r2, #57344	; 0xe000
    3ed8:	6879      	ldr	r1, [r7, #4]
    3eda:	f04f 031f 	mov.w	r3, #31
    3ede:	f2c8 0300 	movt	r3, #32768	; 0x8000
    3ee2:	400b      	ands	r3, r1
    3ee4:	2b00      	cmp	r3, #0
    3ee6:	da05      	bge.n	3ef4 <enable_irq+0xac>
    3ee8:	f103 33ff 	add.w	r3, r3, #4294967295
    3eec:	f063 031f 	orn	r3, r3, #31
    3ef0:	f103 0301 	add.w	r3, r3, #1
    3ef4:	f04f 0101 	mov.w	r1, #1
    3ef8:	fa01 f303 	lsl.w	r3, r1, r3
    3efc:	f8c2 3184 	str.w	r3, [r2, #388]	; 0x184
                NVICISER1 = 1 << (irq % 32);
    3f00:	f44f 4261 	mov.w	r2, #57600	; 0xe100
    3f04:	f2ce 0200 	movt	r2, #57344	; 0xe000
    3f08:	6879      	ldr	r1, [r7, #4]
    3f0a:	f04f 031f 	mov.w	r3, #31
    3f0e:	f2c8 0300 	movt	r3, #32768	; 0x8000
    3f12:	400b      	ands	r3, r1
    3f14:	2b00      	cmp	r3, #0
    3f16:	da05      	bge.n	3f24 <enable_irq+0xdc>
    3f18:	f103 33ff 	add.w	r3, r3, #4294967295
    3f1c:	f063 031f 	orn	r3, r3, #31
    3f20:	f103 0301 	add.w	r3, r3, #1
    3f24:	f04f 0101 	mov.w	r1, #1
    3f28:	fa01 f303 	lsl.w	r3, r1, r3
    3f2c:	6053      	str	r3, [r2, #4]
                break;
    3f2e:	e02f      	b.n	3f90 <enable_irq+0x148>

            case 0x2:
                NVICICPR2 = 1 << (irq % 32);
    3f30:	f44f 4261 	mov.w	r2, #57600	; 0xe100
    3f34:	f2ce 0200 	movt	r2, #57344	; 0xe000
    3f38:	6879      	ldr	r1, [r7, #4]
    3f3a:	f04f 031f 	mov.w	r3, #31
    3f3e:	f2c8 0300 	movt	r3, #32768	; 0x8000
    3f42:	400b      	ands	r3, r1
    3f44:	2b00      	cmp	r3, #0
    3f46:	da05      	bge.n	3f54 <enable_irq+0x10c>
    3f48:	f103 33ff 	add.w	r3, r3, #4294967295
    3f4c:	f063 031f 	orn	r3, r3, #31
    3f50:	f103 0301 	add.w	r3, r3, #1
    3f54:	f04f 0101 	mov.w	r1, #1
    3f58:	fa01 f303 	lsl.w	r3, r1, r3
    3f5c:	f8c2 3188 	str.w	r3, [r2, #392]	; 0x188
                NVICISER2 = 1 << (irq % 32);
    3f60:	f44f 4261 	mov.w	r2, #57600	; 0xe100
    3f64:	f2ce 0200 	movt	r2, #57344	; 0xe000
    3f68:	6879      	ldr	r1, [r7, #4]
    3f6a:	f04f 031f 	mov.w	r3, #31
    3f6e:	f2c8 0300 	movt	r3, #32768	; 0x8000
    3f72:	400b      	ands	r3, r1
    3f74:	2b00      	cmp	r3, #0
    3f76:	da05      	bge.n	3f84 <enable_irq+0x13c>
    3f78:	f103 33ff 	add.w	r3, r3, #4294967295
    3f7c:	f063 031f 	orn	r3, r3, #31
    3f80:	f103 0301 	add.w	r3, r3, #1
    3f84:	f04f 0101 	mov.w	r1, #1
    3f88:	fa01 f303 	lsl.w	r3, r1, r3
    3f8c:	6093      	str	r3, [r2, #8]
                break;
    3f8e:	bf00      	nop
        }
}
    3f90:	f107 0714 	add.w	r7, r7, #20
    3f94:	46bd      	mov	sp, r7
    3f96:	bc80      	pop	{r7}
    3f98:	4770      	bx	lr
    3f9a:	bf00      	nop

00003f9c <ADC_Cal>:
                        after reset and before a conversion is initiated.
******************************************************************************/

uint8 ADC_Cal
(ADC_MemMapPtr   adcmap)
{
    3f9c:	b480      	push	{r7}
    3f9e:	b085      	sub	sp, #20
    3fa0:	af00      	add	r7, sp, #0
    3fa2:	6078      	str	r0, [r7, #4]
    /*~~~~~~~~~~~~~~~~~~~~*/
    /*~~~~~~~~~~~~~~~~~~~~*/
    /*~~~~~~~~~~~~~~~~~~~~*/
    /*~~~~~~~~~~~~~~~~~~~~*/
    /*~~~~~~~~~~~~~~~~~~~~*/
    ADC_SC2_REG(adcmap) &= ~ADC_SC2_ADTRG_MASK; // Enable Software Conversion Trigger for Calibration Process    - ADC0_SC2 = ADC0_SC2 | ADC_SC2_ADTRGW(0);
    3fa4:	687b      	ldr	r3, [r7, #4]
    3fa6:	6a1b      	ldr	r3, [r3, #32]
    3fa8:	f023 0240 	bic.w	r2, r3, #64	; 0x40
    3fac:	687b      	ldr	r3, [r7, #4]
    3fae:	621a      	str	r2, [r3, #32]
    ADC_SC3_REG(adcmap) &= (~ADC_SC3_ADCO_MASK &~ADC_SC3_AVGS_MASK);    // set single conversion, clear avgs bitfield for next writing
    3fb0:	687b      	ldr	r3, [r7, #4]
    3fb2:	6a5b      	ldr	r3, [r3, #36]	; 0x24
    3fb4:	f023 020b 	bic.w	r2, r3, #11
    3fb8:	687b      	ldr	r3, [r7, #4]
    3fba:	625a      	str	r2, [r3, #36]	; 0x24
    ADC_SC3_REG(adcmap) |= (ADC_SC3_AVGE_MASK | ADC_SC3_AVGS(AVGS_32)); // Turn averaging ON and set at max value ( 32 )
    3fbc:	687b      	ldr	r3, [r7, #4]
    3fbe:	6a5b      	ldr	r3, [r3, #36]	; 0x24
    3fc0:	f043 0207 	orr.w	r2, r3, #7
    3fc4:	687b      	ldr	r3, [r7, #4]
    3fc6:	625a      	str	r2, [r3, #36]	; 0x24
    ADC_SC3_REG(adcmap) |= ADC_SC3_CAL_MASK;    // Start CAL
    3fc8:	687b      	ldr	r3, [r7, #4]
    3fca:	6a5b      	ldr	r3, [r3, #36]	; 0x24
    3fcc:	f043 0280 	orr.w	r2, r3, #128	; 0x80
    3fd0:	687b      	ldr	r3, [r7, #4]
    3fd2:	625a      	str	r2, [r3, #36]	; 0x24

    while((ADC_SC1_REG(adcmap, A) & ADC_SC1_COCO_MASK) == COCO_NOT);
    3fd4:	bf00      	nop
    3fd6:	687b      	ldr	r3, [r7, #4]
    3fd8:	681b      	ldr	r3, [r3, #0]
    3fda:	f003 0380 	and.w	r3, r3, #128	; 0x80
    3fde:	2b00      	cmp	r3, #0
    3fe0:	d0f9      	beq.n	3fd6 <ADC_Cal+0x3a>

    // Wait calibration end

    if((ADC_SC3_REG(adcmap) & ADC_SC3_CALF_MASK) == CALF_FAIL)
    3fe2:	687b      	ldr	r3, [r7, #4]
    3fe4:	6a5b      	ldr	r3, [r3, #36]	; 0x24
    3fe6:	f003 0340 	and.w	r3, r3, #64	; 0x40
    3fea:	2b00      	cmp	r3, #0
    3fec:	d002      	beq.n	3ff4 <ADC_Cal+0x58>
        {
            return(1);      // Check for Calibration fail error and return
    3fee:	f04f 0301 	mov.w	r3, #1
    3ff2:	e069      	b.n	40c8 <ADC_Cal+0x12c>
        }

    // Calculate plus-side calibration
    cal_var = 0x00;
    3ff4:	f04f 0300 	mov.w	r3, #0
    3ff8:	81fb      	strh	r3, [r7, #14]
    cal_var = ADC_CLP0_REG(adcmap);
    3ffa:	687b      	ldr	r3, [r7, #4]
    3ffc:	6cdb      	ldr	r3, [r3, #76]	; 0x4c
    3ffe:	81fb      	strh	r3, [r7, #14]
    cal_var += ADC_CLP1_REG(adcmap);
    4000:	687b      	ldr	r3, [r7, #4]
    4002:	6c9b      	ldr	r3, [r3, #72]	; 0x48
    4004:	b29a      	uxth	r2, r3
    4006:	89fb      	ldrh	r3, [r7, #14]
    4008:	18d3      	adds	r3, r2, r3
    400a:	81fb      	strh	r3, [r7, #14]
    cal_var += ADC_CLP2_REG(adcmap);
    400c:	687b      	ldr	r3, [r7, #4]
    400e:	6c5b      	ldr	r3, [r3, #68]	; 0x44
    4010:	b29a      	uxth	r2, r3
    4012:	89fb      	ldrh	r3, [r7, #14]
    4014:	18d3      	adds	r3, r2, r3
    4016:	81fb      	strh	r3, [r7, #14]
    cal_var += ADC_CLP3_REG(adcmap);
    4018:	687b      	ldr	r3, [r7, #4]
    401a:	6c1b      	ldr	r3, [r3, #64]	; 0x40
    401c:	b29a      	uxth	r2, r3
    401e:	89fb      	ldrh	r3, [r7, #14]
    4020:	18d3      	adds	r3, r2, r3
    4022:	81fb      	strh	r3, [r7, #14]
    cal_var += ADC_CLP4_REG(adcmap);
    4024:	687b      	ldr	r3, [r7, #4]
    4026:	6bdb      	ldr	r3, [r3, #60]	; 0x3c
    4028:	b29a      	uxth	r2, r3
    402a:	89fb      	ldrh	r3, [r7, #14]
    402c:	18d3      	adds	r3, r2, r3
    402e:	81fb      	strh	r3, [r7, #14]
    cal_var += ADC_CLPS_REG(adcmap);
    4030:	687b      	ldr	r3, [r7, #4]
    4032:	6b9b      	ldr	r3, [r3, #56]	; 0x38
    4034:	b29a      	uxth	r2, r3
    4036:	89fb      	ldrh	r3, [r7, #14]
    4038:	18d3      	adds	r3, r2, r3
    403a:	81fb      	strh	r3, [r7, #14]
    cal_var = cal_var / 2;
    403c:	89fb      	ldrh	r3, [r7, #14]
    403e:	ea4f 0353 	mov.w	r3, r3, lsr #1
    4042:	81fb      	strh	r3, [r7, #14]
    cal_var |= 0x8000;  // Set MSB
    4044:	89fb      	ldrh	r3, [r7, #14]
    4046:	ea6f 4343 	mvn.w	r3, r3, lsl #17
    404a:	ea6f 4353 	mvn.w	r3, r3, lsr #17
    404e:	81fb      	strh	r3, [r7, #14]
    ADC_PG_REG(adcmap) = ADC_PG_PG(cal_var);
    4050:	89fa      	ldrh	r2, [r7, #14]
    4052:	687b      	ldr	r3, [r7, #4]
    4054:	62da      	str	r2, [r3, #44]	; 0x2c
    // Calculate minus-side calibration
    cal_var = 0x00;
    4056:	f04f 0300 	mov.w	r3, #0
    405a:	81fb      	strh	r3, [r7, #14]
    cal_var = ADC_CLM0_REG(adcmap);
    405c:	687b      	ldr	r3, [r7, #4]
    405e:	6edb      	ldr	r3, [r3, #108]	; 0x6c
    4060:	81fb      	strh	r3, [r7, #14]
    cal_var += ADC_CLM1_REG(adcmap);
    4062:	687b      	ldr	r3, [r7, #4]
    4064:	6e9b      	ldr	r3, [r3, #104]	; 0x68
    4066:	b29a      	uxth	r2, r3
    4068:	89fb      	ldrh	r3, [r7, #14]
    406a:	18d3      	adds	r3, r2, r3
    406c:	81fb      	strh	r3, [r7, #14]
    cal_var += ADC_CLM2_REG(adcmap);
    406e:	687b      	ldr	r3, [r7, #4]
    4070:	6e5b      	ldr	r3, [r3, #100]	; 0x64
    4072:	b29a      	uxth	r2, r3
    4074:	89fb      	ldrh	r3, [r7, #14]
    4076:	18d3      	adds	r3, r2, r3
    4078:	81fb      	strh	r3, [r7, #14]
    cal_var += ADC_CLM3_REG(adcmap);
    407a:	687b      	ldr	r3, [r7, #4]
    407c:	6e1b      	ldr	r3, [r3, #96]	; 0x60
    407e:	b29a      	uxth	r2, r3
    4080:	89fb      	ldrh	r3, [r7, #14]
    4082:	18d3      	adds	r3, r2, r3
    4084:	81fb      	strh	r3, [r7, #14]
    cal_var += ADC_CLM4_REG(adcmap);
    4086:	687b      	ldr	r3, [r7, #4]
    4088:	6ddb      	ldr	r3, [r3, #92]	; 0x5c
    408a:	b29a      	uxth	r2, r3
    408c:	89fb      	ldrh	r3, [r7, #14]
    408e:	18d3      	adds	r3, r2, r3
    4090:	81fb      	strh	r3, [r7, #14]
    cal_var += ADC_CLMS_REG(adcmap);
    4092:	687b      	ldr	r3, [r7, #4]
    4094:	6d9b      	ldr	r3, [r3, #88]	; 0x58
    4096:	b29a      	uxth	r2, r3
    4098:	89fb      	ldrh	r3, [r7, #14]
    409a:	18d3      	adds	r3, r2, r3
    409c:	81fb      	strh	r3, [r7, #14]
    cal_var = cal_var / 2;
    409e:	89fb      	ldrh	r3, [r7, #14]
    40a0:	ea4f 0353 	mov.w	r3, r3, lsr #1
    40a4:	81fb      	strh	r3, [r7, #14]
    cal_var |= 0x8000;  // Set MSB
    40a6:	89fb      	ldrh	r3, [r7, #14]
    40a8:	ea6f 4343 	mvn.w	r3, r3, lsl #17
    40ac:	ea6f 4353 	mvn.w	r3, r3, lsr #17
    40b0:	81fb      	strh	r3, [r7, #14]
    ADC_MG_REG(adcmap) = ADC_MG_MG(cal_var);
    40b2:	89fa      	ldrh	r2, [r7, #14]
    40b4:	687b      	ldr	r3, [r7, #4]
    40b6:	631a      	str	r2, [r3, #48]	; 0x30
    ADC_SC3_REG(adcmap) &= ~ADC_SC3_CAL_MASK;   /* Clear CAL bit */
    40b8:	687b      	ldr	r3, [r7, #4]
    40ba:	6a5b      	ldr	r3, [r3, #36]	; 0x24
    40bc:	f023 0280 	bic.w	r2, r3, #128	; 0x80
    40c0:	687b      	ldr	r3, [r7, #4]
    40c2:	625a      	str	r2, [r3, #36]	; 0x24
    return(0);
    40c4:	f04f 0300 	mov.w	r3, #0
}
    40c8:	4618      	mov	r0, r3
    40ca:	f107 0714 	add.w	r7, r7, #20
    40ce:	46bd      	mov	sp, r7
    40d0:	bc80      	pop	{r7}
    40d2:	4770      	bx	lr

000040d4 <ADC_Config_Alt>:
void ADC_Config_Alt
(
    ADC_MemMapPtr   adcmap,
    tADC_ConfigPtr  ADC_CfgPtr
)
{
    40d4:	b480      	push	{r7}
    40d6:	b083      	sub	sp, #12
    40d8:	af00      	add	r7, sp, #0
    40da:	6078      	str	r0, [r7, #4]
    40dc:	6039      	str	r1, [r7, #0]
    ADC_CFG1_REG(adcmap) = ADC_CfgPtr->CONFIG1;
    40de:	683b      	ldr	r3, [r7, #0]
    40e0:	781b      	ldrb	r3, [r3, #0]
    40e2:	461a      	mov	r2, r3
    40e4:	687b      	ldr	r3, [r7, #4]
    40e6:	609a      	str	r2, [r3, #8]
    ADC_CFG2_REG(adcmap) = ADC_CfgPtr->CONFIG2;
    40e8:	683b      	ldr	r3, [r7, #0]
    40ea:	785b      	ldrb	r3, [r3, #1]
    40ec:	461a      	mov	r2, r3
    40ee:	687b      	ldr	r3, [r7, #4]
    40f0:	60da      	str	r2, [r3, #12]
    ADC_CV1_REG(adcmap) = ADC_CfgPtr->COMPARE1;
    40f2:	683b      	ldr	r3, [r7, #0]
    40f4:	885b      	ldrh	r3, [r3, #2]
    40f6:	461a      	mov	r2, r3
    40f8:	687b      	ldr	r3, [r7, #4]
    40fa:	619a      	str	r2, [r3, #24]
    ADC_CV2_REG(adcmap) = ADC_CfgPtr->COMPARE2;
    40fc:	683b      	ldr	r3, [r7, #0]
    40fe:	889b      	ldrh	r3, [r3, #4]
    4100:	461a      	mov	r2, r3
    4102:	687b      	ldr	r3, [r7, #4]
    4104:	61da      	str	r2, [r3, #28]
    ADC_SC2_REG(adcmap) = ADC_CfgPtr->STATUS2;
    4106:	683b      	ldr	r3, [r7, #0]
    4108:	799b      	ldrb	r3, [r3, #6]
    410a:	461a      	mov	r2, r3
    410c:	687b      	ldr	r3, [r7, #4]
    410e:	621a      	str	r2, [r3, #32]
    ADC_SC3_REG(adcmap) = ADC_CfgPtr->STATUS3;
    4110:	683b      	ldr	r3, [r7, #0]
    4112:	79db      	ldrb	r3, [r3, #7]
    4114:	461a      	mov	r2, r3
    4116:	687b      	ldr	r3, [r7, #4]
    4118:	625a      	str	r2, [r3, #36]	; 0x24
    // ADC_PGA_REG(adcmap)  = ADC_CfgPtr->PGA;  //not one on P0
    ADC_SC1_REG(adcmap, A) = ADC_CfgPtr->STATUS1A;
    411a:	683b      	ldr	r3, [r7, #0]
    411c:	7a1b      	ldrb	r3, [r3, #8]
    411e:	461a      	mov	r2, r3
    4120:	687b      	ldr	r3, [r7, #4]
    4122:	601a      	str	r2, [r3, #0]
    ADC_SC1_REG(adcmap, B) = ADC_CfgPtr->STATUS1B;
    4124:	683b      	ldr	r3, [r7, #0]
    4126:	7a5b      	ldrb	r3, [r3, #9]
    4128:	461a      	mov	r2, r3
    412a:	687b      	ldr	r3, [r7, #4]
    412c:	605a      	str	r2, [r3, #4]
}
    412e:	f107 070c 	add.w	r7, r7, #12
    4132:	46bd      	mov	sp, r7
    4134:	bc80      	pop	{r7}
    4136:	4770      	bx	lr

00004138 <InitADC_12Bit>:


tADC_Config Master_Adc_Config;

void InitADC_12Bit()
{
    4138:	b580      	push	{r7, lr}
    413a:	af00      	add	r7, sp, #0
    SIM_SCGC6 |= SIM_SCGC6_ADC0_MASK;
    413c:	f44f 43e0 	mov.w	r3, #28672	; 0x7000
    4140:	f2c4 0304 	movt	r3, #16388	; 0x4004
    4144:	f44f 42e0 	mov.w	r2, #28672	; 0x7000
    4148:	f2c4 0204 	movt	r2, #16388	; 0x4004
    414c:	f502 5281 	add.w	r2, r2, #4128	; 0x1020
    4150:	f102 021c 	add.w	r2, r2, #28
    4154:	6812      	ldr	r2, [r2, #0]
    4156:	f042 6200 	orr.w	r2, r2, #134217728	; 0x8000000
    415a:	f503 5381 	add.w	r3, r3, #4128	; 0x1020
    415e:	f103 031c 	add.w	r3, r3, #28
    4162:	601a      	str	r2, [r3, #0]
    // setup the initial ADC default configuration to get setup for calibration
    Master_Adc_Config.CONFIG1  = ADLPC_NORMAL
    4164:	f24e 136c 	movw	r3, #57708	; 0xe16c
    4168:	f6c1 73ff 	movt	r3, #8191	; 0x1fff
    416c:	f04f 0254 	mov.w	r2, #84	; 0x54
    4170:	701a      	strb	r2, [r3, #0]
                                 | ADC_CFG1_ADIV(ADIV_4)
                                 | ADLSMP_LONG
                                 | ADC_CFG1_MODE(MODE_12)
                                 | ADC_CFG1_ADICLK(ADICLK_BUS);
    Master_Adc_Config.CONFIG2  = MUXSEL_ADCA
    4172:	f24e 136c 	movw	r3, #57708	; 0xe16c
    4176:	f6c1 73ff 	movt	r3, #8191	; 0x1fff
    417a:	f04f 0204 	mov.w	r2, #4
    417e:	705a      	strb	r2, [r3, #1]
                                 | ADACKEN_DISABLED
                                 | ADHSC_HISPEED
                                 | ADC_CFG2_ADLSTS(ADLSTS_20) ;
    Master_Adc_Config.COMPARE1 = 0x1234u ;                 // can be anything
    4180:	f24e 136c 	movw	r3, #57708	; 0xe16c
    4184:	f6c1 73ff 	movt	r3, #8191	; 0x1fff
    4188:	f241 2234 	movw	r2, #4660	; 0x1234
    418c:	805a      	strh	r2, [r3, #2]
    Master_Adc_Config.COMPARE2 = 0x5678u ;                 // can be anything
    418e:	f24e 136c 	movw	r3, #57708	; 0xe16c
    4192:	f6c1 73ff 	movt	r3, #8191	; 0x1fff
    4196:	f245 6278 	movw	r2, #22136	; 0x5678
    419a:	809a      	strh	r2, [r3, #4]
    // since not using
    // compare feature
    Master_Adc_Config.STATUS2  =
    419c:	f24e 136c 	movw	r3, #57708	; 0xe16c
    41a0:	f6c1 73ff 	movt	r3, #8191	; 0x1fff
    41a4:	f04f 0218 	mov.w	r2, #24
    41a8:	719a      	strb	r2, [r3, #6]
        ACFE_DISABLED
        | ACFGT_GREATER
        | ACREN_ENABLED
        | DMAEN_DISABLED
        | ADC_SC2_REFSEL(REFSEL_EXT);
    Master_Adc_Config.STATUS3  = CAL_OFF
    41aa:	f24e 136c 	movw	r3, #57708	; 0xe16c
    41ae:	f6c1 73ff 	movt	r3, #8191	; 0x1fff
    41b2:	f04f 0206 	mov.w	r2, #6
    41b6:	71da      	strb	r2, [r3, #7]
                                 | ADCO_SINGLE
                                 | AVGE_ENABLED
                                 | ADC_SC3_AVGS(AVGS_16);
    Master_Adc_Config.STATUS1A = AIEN_OFF | DIFF_SINGLE | ADC_SC1_ADCH(31);
    41b8:	f24e 136c 	movw	r3, #57708	; 0xe16c
    41bc:	f6c1 73ff 	movt	r3, #8191	; 0x1fff
    41c0:	f04f 021f 	mov.w	r2, #31
    41c4:	721a      	strb	r2, [r3, #8]
    Master_Adc_Config.STATUS1B = AIEN_OFF | DIFF_SINGLE | ADC_SC1_ADCH(31);
    41c6:	f24e 136c 	movw	r3, #57708	; 0xe16c
    41ca:	f6c1 73ff 	movt	r3, #8191	; 0x1fff
    41ce:	f04f 021f 	mov.w	r2, #31
    41d2:	725a      	strb	r2, [r3, #9]
    // Configure ADC as it will be used, but becuase ADC_SC1_ADCH is 31,
    // the ADC will be inactive.  Channel 31 is just disable function.
    // There really is no channel 31.
    ADC_Config_Alt(ADC0_BASE_PTR, &Master_Adc_Config);  // config ADC
    41d4:	f44f 4030 	mov.w	r0, #45056	; 0xb000
    41d8:	f2c4 0003 	movt	r0, #16387	; 0x4003
    41dc:	f24e 116c 	movw	r1, #57708	; 0xe16c
    41e0:	f6c1 71ff 	movt	r1, #8191	; 0x1fff
    41e4:	f7ff ff76 	bl	40d4 <ADC_Config_Alt>
    // Calibrate the ADC in the configuration in which it will be used:
    ADC_Cal(ADC0_BASE_PTR);                    // do the calibration
    41e8:	f44f 4030 	mov.w	r0, #45056	; 0xb000
    41ec:	f2c4 0003 	movt	r0, #16387	; 0x4003
    41f0:	f7ff fed4 	bl	3f9c <ADC_Cal>
    // The structure still has the desired configuration.  So restore it.
    // Why restore it?  The calibration makes some adjustments to the
    // configuration of the ADC.  The are now undone:
    // config the ADC again to desired conditions
    ADC_Config_Alt(ADC0_BASE_PTR, &Master_Adc_Config);
    41f4:	f44f 4030 	mov.w	r0, #45056	; 0xb000
    41f8:	f2c4 0003 	movt	r0, #16387	; 0x4003
    41fc:	f24e 116c 	movw	r1, #57708	; 0xe16c
    4200:	f6c1 71ff 	movt	r1, #8191	; 0x1fff
    4204:	f7ff ff66 	bl	40d4 <ADC_Config_Alt>
    // *****************************************************************************
    //      ADC0 using the PDB trigger in ping pong
    // *****************************************************************************
    // use interrupts, single ended mode, and real channel numbers now:
    ADC_Config_Alt(ADC0_BASE_PTR, &Master_Adc_Config);  // config ADC0
    4208:	f44f 4030 	mov.w	r0, #45056	; 0xb000
    420c:	f2c4 0003 	movt	r0, #16387	; 0x4003
    4210:	f24e 116c 	movw	r1, #57708	; 0xe16c
    4214:	f6c1 71ff 	movt	r1, #8191	; 0x1fff
    4218:	f7ff ff5c 	bl	40d4 <ADC_Config_Alt>
}
    421c:	bd80      	pop	{r7, pc}
    421e:	bf00      	nop

00004220 <StartADC0_SingleEnded>:




void StartADC0_SingleEnded(uint8_t Channel,uint8_t MuxSide)
{
    4220:	b480      	push	{r7}
    4222:	b083      	sub	sp, #12
    4224:	af00      	add	r7, sp, #0
    4226:	4602      	mov	r2, r0
    4228:	460b      	mov	r3, r1
    422a:	71fa      	strb	r2, [r7, #7]
    422c:	71bb      	strb	r3, [r7, #6]
    if(MuxSide == 0)
    422e:	79bb      	ldrb	r3, [r7, #6]
    4230:	2b00      	cmp	r3, #0
    4232:	d10c      	bne.n	424e <StartADC0_SingleEnded+0x2e>
        {
            //Select The a side of the MUX
            ADC0_CFG1 &= ~(ADC_CFG2_MUXSEL_MASK);
    4234:	f44f 4330 	mov.w	r3, #45056	; 0xb000
    4238:	f2c4 0303 	movt	r3, #16387	; 0x4003
    423c:	f44f 4230 	mov.w	r2, #45056	; 0xb000
    4240:	f2c4 0203 	movt	r2, #16387	; 0x4003
    4244:	6892      	ldr	r2, [r2, #8]
    4246:	f022 0210 	bic.w	r2, r2, #16
    424a:	609a      	str	r2, [r3, #8]
    424c:	e00b      	b.n	4266 <StartADC0_SingleEnded+0x46>
        }
    else
        {
            //Select The b side of the MUX
            ADC0_CFG1 |= (ADC_CFG2_MUXSEL_MASK);
    424e:	f44f 4330 	mov.w	r3, #45056	; 0xb000
    4252:	f2c4 0303 	movt	r3, #16387	; 0x4003
    4256:	f44f 4230 	mov.w	r2, #45056	; 0xb000
    425a:	f2c4 0203 	movt	r2, #16387	; 0x4003
    425e:	6892      	ldr	r2, [r2, #8]
    4260:	f042 0210 	orr.w	r2, r2, #16
    4264:	609a      	str	r2, [r3, #8]
        }

    ADC0_SC1A  = Channel;
    4266:	f44f 4330 	mov.w	r3, #45056	; 0xb000
    426a:	f2c4 0303 	movt	r3, #16387	; 0x4003
    426e:	79fa      	ldrb	r2, [r7, #7]
    4270:	601a      	str	r2, [r3, #0]
}
    4272:	f107 070c 	add.w	r7, r7, #12
    4276:	46bd      	mov	sp, r7
    4278:	bc80      	pop	{r7}
    427a:	4770      	bx	lr

0000427c <ReadADC0_SingleEnded>:

uint16_t ReadADC0_SingleEnded(uint8_t Channel,uint8_t MuxSide)
{
    427c:	b580      	push	{r7, lr}
    427e:	b082      	sub	sp, #8
    4280:	af00      	add	r7, sp, #0
    4282:	4602      	mov	r2, r0
    4284:	460b      	mov	r3, r1
    4286:	71fa      	strb	r2, [r7, #7]
    4288:	71bb      	strb	r3, [r7, #6]
    StartADC0_SingleEnded(Channel,MuxSide);
    428a:	79fa      	ldrb	r2, [r7, #7]
    428c:	79bb      	ldrb	r3, [r7, #6]
    428e:	4610      	mov	r0, r2
    4290:	4619      	mov	r1, r3
    4292:	f7ff ffc5 	bl	4220 <StartADC0_SingleEnded>

    while((ADC0_SC1A & ADC_SC1_COCO_MASK) == 0)
    4296:	bf00      	nop
    4298:	f44f 4330 	mov.w	r3, #45056	; 0xb000
    429c:	f2c4 0303 	movt	r3, #16387	; 0x4003
    42a0:	681b      	ldr	r3, [r3, #0]
    42a2:	f003 0380 	and.w	r3, r3, #128	; 0x80
    42a6:	2b00      	cmp	r3, #0
    42a8:	d0f6      	beq.n	4298 <ReadADC0_SingleEnded+0x1c>
        {
            //Wait For Conversion Complete
        }

    return ADC0_RA;
    42aa:	f44f 4330 	mov.w	r3, #45056	; 0xb000
    42ae:	f2c4 0303 	movt	r3, #16387	; 0x4003
    42b2:	691b      	ldr	r3, [r3, #16]
    42b4:	b29b      	uxth	r3, r3
}
    42b6:	4618      	mov	r0, r3
    42b8:	f107 0708 	add.w	r7, r7, #8
    42bc:	46bd      	mov	sp, r7
    42be:	bd80      	pop	{r7, pc}

000042c0 <InitIO>:
#include "IO.h"
#include "../DSP/AudioIF.h"
#include "adc16/adc16.h"

void InitIO()
{
    42c0:	b580      	push	{r7, lr}
    42c2:	af00      	add	r7, sp, #0
    //enable Clocks to All the Ports
    SIM_SCGC5 |= SIM_SCGC5_PORTA_MASK |
    42c4:	f44f 43e0 	mov.w	r3, #28672	; 0x7000
    42c8:	f2c4 0304 	movt	r3, #16388	; 0x4004
    42cc:	f44f 42e0 	mov.w	r2, #28672	; 0x7000
    42d0:	f2c4 0204 	movt	r2, #16388	; 0x4004
    42d4:	f502 5281 	add.w	r2, r2, #4128	; 0x1020
    42d8:	f102 0218 	add.w	r2, r2, #24
    42dc:	6812      	ldr	r2, [r2, #0]
    42de:	f442 5278 	orr.w	r2, r2, #15872	; 0x3e00
    42e2:	f503 5381 	add.w	r3, r3, #4128	; 0x1020
    42e6:	f103 0318 	add.w	r3, r3, #24
    42ea:	601a      	str	r2, [r3, #0]
                 SIM_SCGC5_PORTB_MASK |
                 SIM_SCGC5_PORTC_MASK |
                 SIM_SCGC5_PORTD_MASK |
                 SIM_SCGC5_PORTE_MASK;
      
    PORTC_PCR(0) = PORT_PCR_MUX(1)| PORT_PCR_PE_MASK | PORT_PCR_PS_MASK;  // Enable Pull-up;
    42ec:	f44f 4330 	mov.w	r3, #45056	; 0xb000
    42f0:	f2c4 0304 	movt	r3, #16388	; 0x4004
    42f4:	f240 1203 	movw	r2, #259	; 0x103
    42f8:	601a      	str	r2, [r3, #0]
    PORTC_PCR(4) = PORT_PCR_MUX(1)| PORT_PCR_PE_MASK | PORT_PCR_PS_MASK;  // Enable Pull-up;
    42fa:	f44f 4330 	mov.w	r3, #45056	; 0xb000
    42fe:	f2c4 0304 	movt	r3, #16388	; 0x4004
    4302:	f240 1203 	movw	r2, #259	; 0x103
    4306:	611a      	str	r2, [r3, #16]
   
    
    PORTC_PCR(3) = PORT_PCR_MUX(6);     //PTC3(ALT6), I2S0_TX_BCLK
    4308:	f44f 4330 	mov.w	r3, #45056	; 0xb000
    430c:	f2c4 0304 	movt	r3, #16388	; 0x4004
    4310:	f44f 62c0 	mov.w	r2, #1536	; 0x600
    4314:	60da      	str	r2, [r3, #12]
    PORTC_PCR(2) = PORT_PCR_MUX(6);     //PTC2(ALT6), I2S0_TX_FS	
    4316:	f44f 4330 	mov.w	r3, #45056	; 0xb000
    431a:	f2c4 0304 	movt	r3, #16388	; 0x4004
    431e:	f44f 62c0 	mov.w	r2, #1536	; 0x600
    4322:	609a      	str	r2, [r3, #8]
    PORTC_PCR(1) = PORT_PCR_MUX(6);     //PTC1(ALT6), I2S0_TXD0
    4324:	f44f 4330 	mov.w	r3, #45056	; 0xb000
    4328:	f2c4 0304 	movt	r3, #16388	; 0x4004
    432c:	f44f 62c0 	mov.w	r2, #1536	; 0x600
    4330:	605a      	str	r2, [r3, #4]
    
    
   PORTC_PCR(10) = PORT_PCR_MUX(4);    //PTC10(ALT4), I2S0_RX_FS
    4332:	f44f 4330 	mov.w	r3, #45056	; 0xb000
    4336:	f2c4 0304 	movt	r3, #16388	; 0x4004
    433a:	f44f 6280 	mov.w	r2, #1024	; 0x400
    433e:	629a      	str	r2, [r3, #40]	; 0x28
   PORTC_PCR(5) = PORT_PCR_MUX(4);     //PTC5(ALT4), I2S0_RXD0
    4340:	f44f 4330 	mov.w	r3, #45056	; 0xb000
    4344:	f2c4 0304 	movt	r3, #16388	; 0x4004
    4348:	f44f 6280 	mov.w	r2, #1024	; 0x400
    434c:	615a      	str	r2, [r3, #20]
                        
   PORTC_PCR(6) = PORT_PCR_MUX(6);     //PTC6(ALT6), I2S0_MCLK
    434e:	f44f 4330 	mov.w	r3, #45056	; 0xb000
    4352:	f2c4 0304 	movt	r3, #16388	; 0x4004
    4356:	f44f 62c0 	mov.w	r2, #1536	; 0x600
    435a:	619a      	str	r2, [r3, #24]
   PORTC_PCR(8) = PORT_PCR_MUX(4);     //PTC6(ALT6), I2S0_MCLK
    435c:	f44f 4330 	mov.w	r3, #45056	; 0xb000
    4360:	f2c4 0304 	movt	r3, #16388	; 0x4004
    4364:	f44f 6280 	mov.w	r2, #1024	; 0x400
    4368:	621a      	str	r2, [r3, #32]
  
    //for K64 compatibility
    PORTC_PCR(9) = PORT_PCR_MUX(1);    
    436a:	f44f 4330 	mov.w	r3, #45056	; 0xb000
    436e:	f2c4 0304 	movt	r3, #16388	; 0x4004
    4372:	f44f 7280 	mov.w	r2, #256	; 0x100
    4376:	625a      	str	r2, [r3, #36]	; 0x24
    GPIOC_PDDR &=~(1<<9);
    4378:	f24f 0380 	movw	r3, #61568	; 0xf080
    437c:	f2c4 030f 	movt	r3, #16399	; 0x400f
    4380:	f24f 0280 	movw	r2, #61568	; 0xf080
    4384:	f2c4 020f 	movt	r2, #16399	; 0x400f
    4388:	6952      	ldr	r2, [r2, #20]
    438a:	f422 7200 	bic.w	r2, r2, #512	; 0x200
    438e:	615a      	str	r2, [r3, #20]
                     
    PORTC_PCR(11) = PORT_PCR_MUX(1);   
    4390:	f44f 4330 	mov.w	r3, #45056	; 0xb000
    4394:	f2c4 0304 	movt	r3, #16388	; 0x4004
    4398:	f44f 7280 	mov.w	r2, #256	; 0x100
    439c:	62da      	str	r2, [r3, #44]	; 0x2c
    GPIOC_PDDR &=~(1<<11);
    439e:	f24f 0380 	movw	r3, #61568	; 0xf080
    43a2:	f2c4 030f 	movt	r3, #16399	; 0x400f
    43a6:	f24f 0280 	movw	r2, #61568	; 0xf080
    43aa:	f2c4 020f 	movt	r2, #16399	; 0x400f
    43ae:	6952      	ldr	r2, [r2, #20]
    43b0:	f422 6200 	bic.w	r2, r2, #2048	; 0x800
    43b4:	615a      	str	r2, [r3, #20]
    
    PORTD_PCR(7) = PORT_PCR_MUX(1);    
    43b6:	f44f 4340 	mov.w	r3, #49152	; 0xc000
    43ba:	f2c4 0304 	movt	r3, #16388	; 0x4004
    43be:	f44f 7280 	mov.w	r2, #256	; 0x100
    43c2:	61da      	str	r2, [r3, #28]
    GPIOD_PDDR &=~(1<<7);
    43c4:	f24f 03c0 	movw	r3, #61632	; 0xf0c0
    43c8:	f2c4 030f 	movt	r3, #16399	; 0x400f
    43cc:	f24f 02c0 	movw	r2, #61632	; 0xf0c0
    43d0:	f2c4 020f 	movt	r2, #16399	; 0x400f
    43d4:	6952      	ldr	r2, [r2, #20]
    43d6:	f022 0280 	bic.w	r2, r2, #128	; 0x80
    43da:	615a      	str	r2, [r3, #20]
     
     PORTD_PCR(0) = PORT_PCR_MUX(1);    
    43dc:	f44f 4340 	mov.w	r3, #49152	; 0xc000
    43e0:	f2c4 0304 	movt	r3, #16388	; 0x4004
    43e4:	f44f 7280 	mov.w	r2, #256	; 0x100
    43e8:	601a      	str	r2, [r3, #0]
     GPIOD_PDDR &=~(1<<0);
    43ea:	f24f 03c0 	movw	r3, #61632	; 0xf0c0
    43ee:	f2c4 030f 	movt	r3, #16399	; 0x400f
    43f2:	f24f 02c0 	movw	r2, #61632	; 0xf0c0
    43f6:	f2c4 020f 	movt	r2, #16399	; 0x400f
    43fa:	6952      	ldr	r2, [r2, #20]
    43fc:	f022 0201 	bic.w	r2, r2, #1
    4400:	615a      	str	r2, [r3, #20]
                       
   
    //for code profiling
      
     PORTD_PCR(3) = PORT_PCR_MUX(1);    
    4402:	f44f 4340 	mov.w	r3, #49152	; 0xc000
    4406:	f2c4 0304 	movt	r3, #16388	; 0x4004
    440a:	f44f 7280 	mov.w	r2, #256	; 0x100
    440e:	60da      	str	r2, [r3, #12]
     GPIOD_PDDR |=(1<<3);
    4410:	f24f 03c0 	movw	r3, #61632	; 0xf0c0
    4414:	f2c4 030f 	movt	r3, #16399	; 0x400f
    4418:	f24f 02c0 	movw	r2, #61632	; 0xf0c0
    441c:	f2c4 020f 	movt	r2, #16399	; 0x400f
    4420:	6952      	ldr	r2, [r2, #20]
    4422:	f042 0208 	orr.w	r2, r2, #8
    4426:	615a      	str	r2, [r3, #20]
            
      
    InitADC_12Bit();
    4428:	f7ff fe86 	bl	4138 <InitADC_12Bit>
    //This sets the SAI unit for 32MHz, 256x oversampling on the ADC/ Dacs
    InitAudioIO(50000000, 32000, 256);
    442c:	f24f 0080 	movw	r0, #61568	; 0xf080
    4430:	f2c0 20fa 	movt	r0, #762	; 0x2fa
    4434:	f44f 41fa 	mov.w	r1, #32000	; 0x7d00
    4438:	f44f 7280 	mov.w	r2, #256	; 0x100
    443c:	f7ff fb24 	bl	3a88 <InitAudioIO>
    

    IO_ZETA_IS_INPUT;
    4440:	f24f 0380 	movw	r3, #61568	; 0xf080
    4444:	f2c4 030f 	movt	r3, #16399	; 0x400f
    4448:	f24f 0280 	movw	r2, #61568	; 0xf080
    444c:	f2c4 020f 	movt	r2, #16399	; 0x400f
    4450:	6952      	ldr	r2, [r2, #20]
    4452:	f022 0201 	bic.w	r2, r2, #1
    4456:	615a      	str	r2, [r3, #20]
    IO_DELTA_IS_INPUT;
    4458:	f24f 0380 	movw	r3, #61568	; 0xf080
    445c:	f2c4 030f 	movt	r3, #16399	; 0x400f
    4460:	f24f 0280 	movw	r2, #61568	; 0xf080
    4464:	f2c4 020f 	movt	r2, #16399	; 0x400f
    4468:	6952      	ldr	r2, [r2, #20]
    446a:	f022 0210 	bic.w	r2, r2, #16
    446e:	615a      	str	r2, [r3, #20]
    
}
    4470:	bd80      	pop	{r7, pc}
    4472:	bf00      	nop

00004474 <SetPotLimits>:
float PotMax[3] = {1,1,1};


//THis function is used to set the maximum/minimum limits that will be returned by ReadPOT
void SetPotLimits(uint8_t Channel,float Min, float Max)
{
    4474:	b480      	push	{r7}
    4476:	b085      	sub	sp, #20
    4478:	af00      	add	r7, sp, #0
    447a:	4603      	mov	r3, r0
    447c:	60b9      	str	r1, [r7, #8]
    447e:	607a      	str	r2, [r7, #4]
    4480:	73fb      	strb	r3, [r7, #15]
    if(Channel>2)
    4482:	7bfb      	ldrb	r3, [r7, #15]
    4484:	2b02      	cmp	r3, #2
    4486:	d902      	bls.n	448e <SetPotLimits+0x1a>
        {
            Channel = 0;
    4488:	f04f 0300 	mov.w	r3, #0
    448c:	73fb      	strb	r3, [r7, #15]
        }

    PotMin[Channel] = Min;
    448e:	7bfa      	ldrb	r2, [r7, #15]
    4490:	f24e 0338 	movw	r3, #57400	; 0xe038
    4494:	f6c1 73ff 	movt	r3, #8191	; 0x1fff
    4498:	68b9      	ldr	r1, [r7, #8]
    449a:	f843 1022 	str.w	r1, [r3, r2, lsl #2]
    PotMax[Channel] = Max;
    449e:	7bfa      	ldrb	r2, [r7, #15]
    44a0:	f24e 0304 	movw	r3, #57348	; 0xe004
    44a4:	f6c1 73ff 	movt	r3, #8191	; 0x1fff
    44a8:	6879      	ldr	r1, [r7, #4]
    44aa:	f843 1022 	str.w	r1, [r3, r2, lsl #2]
}
    44ae:	f107 0714 	add.w	r7, r7, #20
    44b2:	46bd      	mov	sp, r7
    44b4:	bc80      	pop	{r7}
    44b6:	4770      	bx	lr

000044b8 <ReadPOT>:


//Returns potentiometer setting as a float between the values set by SetPotLimits(...)
float ReadPOT(uint8_t Channel)
{
    44b8:	b580      	push	{r7, lr}
    44ba:	b084      	sub	sp, #16
    44bc:	af00      	add	r7, sp, #0
    44be:	4603      	mov	r3, r0
    44c0:	71fb      	strb	r3, [r7, #7]
    float Pot_Value;

    switch (Channel)
    44c2:	79fb      	ldrb	r3, [r7, #7]
    44c4:	2b01      	cmp	r3, #1
    44c6:	d016      	beq.n	44f6 <ReadPOT+0x3e>
    44c8:	2b02      	cmp	r3, #2
    44ca:	d029      	beq.n	4520 <ReadPOT+0x68>
        {
            default:
            case POT_ALPHA:
                Pot_Value =  (float)ReadADC0_SingleEnded(ADC0_SE13) /  4095.0; //Alpha
    44cc:	f04f 000d 	mov.w	r0, #13
    44d0:	f04f 0100 	mov.w	r1, #0
    44d4:	f7ff fed2 	bl	427c <ReadADC0_SingleEnded>
    44d8:	4603      	mov	r3, r0
    44da:	4618      	mov	r0, r3
    44dc:	f7fc ff10 	bl	1300 <__aeabi_ui2f>
    44e0:	4603      	mov	r3, r0
    44e2:	4618      	mov	r0, r3
    44e4:	f44f 4170 	mov.w	r1, #61440	; 0xf000
    44e8:	f2c4 517f 	movt	r1, #17791	; 0x457f
    44ec:	f7fd f814 	bl	1518 <__aeabi_fdiv>
    44f0:	4603      	mov	r3, r0
    44f2:	60fb      	str	r3, [r7, #12]
                break;
    44f4:	e029      	b.n	454a <ReadPOT+0x92>

            case POT_BETA:
                Pot_Value =  (float)ReadADC0_SingleEnded(ADC0_SE23)	/  4095.0; //beta
    44f6:	f04f 0017 	mov.w	r0, #23
    44fa:	f04f 0100 	mov.w	r1, #0
    44fe:	f7ff febd 	bl	427c <ReadADC0_SingleEnded>
    4502:	4603      	mov	r3, r0
    4504:	4618      	mov	r0, r3
    4506:	f7fc fefb 	bl	1300 <__aeabi_ui2f>
    450a:	4603      	mov	r3, r0
    450c:	4618      	mov	r0, r3
    450e:	f44f 4170 	mov.w	r1, #61440	; 0xf000
    4512:	f2c4 517f 	movt	r1, #17791	; 0x457f
    4516:	f7fc ffff 	bl	1518 <__aeabi_fdiv>
    451a:	4603      	mov	r3, r0
    451c:	60fb      	str	r3, [r7, #12]
                break;
    451e:	e014      	b.n	454a <ReadPOT+0x92>

            case POT_GAMMA:
                Pot_Value =  (float)ReadADC0_SingleEnded(ADC0_SE12)	/  4095.0; //Gamma
    4520:	f04f 000c 	mov.w	r0, #12
    4524:	f04f 0100 	mov.w	r1, #0
    4528:	f7ff fea8 	bl	427c <ReadADC0_SingleEnded>
    452c:	4603      	mov	r3, r0
    452e:	4618      	mov	r0, r3
    4530:	f7fc fee6 	bl	1300 <__aeabi_ui2f>
    4534:	4603      	mov	r3, r0
    4536:	4618      	mov	r0, r3
    4538:	f44f 4170 	mov.w	r1, #61440	; 0xf000
    453c:	f2c4 517f 	movt	r1, #17791	; 0x457f
    4540:	f7fc ffea 	bl	1518 <__aeabi_fdiv>
    4544:	4603      	mov	r3, r0
    4546:	60fb      	str	r3, [r7, #12]
                break;
    4548:	bf00      	nop
        }

    //Rescale to Range
    Pot_Value = (Pot_Value * (PotMax[Channel] - PotMin[Channel])) + PotMin[Channel];
    454a:	79fa      	ldrb	r2, [r7, #7]
    454c:	f24e 0304 	movw	r3, #57348	; 0xe004
    4550:	f6c1 73ff 	movt	r3, #8191	; 0x1fff
    4554:	f853 2022 	ldr.w	r2, [r3, r2, lsl #2]
    4558:	79f9      	ldrb	r1, [r7, #7]
    455a:	f24e 0338 	movw	r3, #57400	; 0xe038
    455e:	f6c1 73ff 	movt	r3, #8191	; 0x1fff
    4562:	f853 3021 	ldr.w	r3, [r3, r1, lsl #2]
    4566:	4610      	mov	r0, r2
    4568:	4619      	mov	r1, r3
    456a:	f7fc fe17 	bl	119c <__aeabi_fsub>
    456e:	4603      	mov	r3, r0
    4570:	4618      	mov	r0, r3
    4572:	68f9      	ldr	r1, [r7, #12]
    4574:	f7fc ff1c 	bl	13b0 <__aeabi_fmul>
    4578:	4603      	mov	r3, r0
    457a:	461a      	mov	r2, r3
    457c:	79f9      	ldrb	r1, [r7, #7]
    457e:	f24e 0338 	movw	r3, #57400	; 0xe038
    4582:	f6c1 73ff 	movt	r3, #8191	; 0x1fff
    4586:	f853 3021 	ldr.w	r3, [r3, r1, lsl #2]
    458a:	4610      	mov	r0, r2
    458c:	4619      	mov	r1, r3
    458e:	f7fc fe07 	bl	11a0 <__addsf3>
    4592:	4603      	mov	r3, r0
    4594:	60fb      	str	r3, [r7, #12]
    return Pot_Value;
    4596:	68fb      	ldr	r3, [r7, #12]
}
    4598:	4618      	mov	r0, r3
    459a:	f107 0710 	add.w	r7, r7, #16
    459e:	46bd      	mov	sp, r7
    45a0:	bd80      	pop	{r7, pc}
    45a2:	bf00      	nop

000045a4 <pll_init>:
    unsigned char   erefs_val,
    signed char     prdiv_val,
    signed char     vdiv_val,
    unsigned char   mcgout_select
)
{
    45a4:	b480      	push	{r7}
    45a6:	b087      	sub	sp, #28
    45a8:	af00      	add	r7, sp, #0
    45aa:	6078      	str	r0, [r7, #4]
    45ac:	70f9      	strb	r1, [r7, #3]
    45ae:	70ba      	strb	r2, [r7, #2]
    45b0:	707b      	strb	r3, [r7, #1]

    // check if in FEI mode

    if
    (
        !((((MCG_S & MCG_S_CLKST_MASK) >> MCG_S_CLKST_SHIFT) == 0x0)    // check CLKS mux has selcted FLL output
    45b2:	f44f 4380 	mov.w	r3, #16384	; 0x4000
    45b6:	f2c4 0306 	movt	r3, #16390	; 0x4006
    45ba:	799b      	ldrb	r3, [r3, #6]
    45bc:	b2db      	uxtb	r3, r3
    45be:	f003 030c 	and.w	r3, r3, #12
    45c2:	ea4f 0393 	mov.w	r3, r3, lsr #2
    /*~~~~~~~~~~~~~~~~~~~~~~~~*/

    // check if in FEI mode

    if
    (
    45c6:	2b00      	cmp	r3, #0
    45c8:	d113      	bne.n	45f2 <pll_init+0x4e>
        !((((MCG_S & MCG_S_CLKST_MASK) >> MCG_S_CLKST_SHIFT) == 0x0)    // check CLKS mux has selcted FLL output
          &&  (MCG_S & MCG_S_IREFST_MASK) // check FLL ref is internal ref clk
    45ca:	f44f 4380 	mov.w	r3, #16384	; 0x4000
    45ce:	f2c4 0306 	movt	r3, #16390	; 0x4006
    45d2:	799b      	ldrb	r3, [r3, #6]
    45d4:	b2db      	uxtb	r3, r3
    45d6:	f003 0310 	and.w	r3, r3, #16
    45da:	2b00      	cmp	r3, #0
    45dc:	d009      	beq.n	45f2 <pll_init+0x4e>
          &&  (!(MCG_S & MCG_S_PLLST_MASK))
    45de:	f44f 4380 	mov.w	r3, #16384	; 0x4000
    45e2:	f2c4 0306 	movt	r3, #16390	; 0x4006
    45e6:	799b      	ldrb	r3, [r3, #6]
    45e8:	b2db      	uxtb	r3, r3
    45ea:	f003 0320 	and.w	r3, r3, #32

    // check if in FEI mode

    if
    (
        !((((MCG_S & MCG_S_CLKST_MASK) >> MCG_S_CLKST_SHIFT) == 0x0)    // check CLKS mux has selcted FLL output
    45ee:	2b00      	cmp	r3, #0
    45f0:	d002      	beq.n	45f8 <pll_init+0x54>
          &&  (MCG_S & MCG_S_IREFST_MASK) // check FLL ref is internal ref clk
          &&  (!(MCG_S & MCG_S_PLLST_MASK))
         )
    )                       // check PLLS mux has selected FLL
        {
            return 0x1;         // return error code
    45f2:	f04f 0301 	mov.w	r3, #1
    45f6:	e262      	b.n	4abe <pll_init+0x51a>
        }

    // check external frequency is less than the maximum frequency

    if(crystal_val > 50000000)
    45f8:	687a      	ldr	r2, [r7, #4]
    45fa:	f24f 0380 	movw	r3, #61568	; 0xf080
    45fe:	f2c0 23fa 	movt	r3, #762	; 0x2fa
    4602:	429a      	cmp	r2, r3
    4604:	dd02      	ble.n	460c <pll_init+0x68>
        {
            return 0x21;
    4606:	f04f 0321 	mov.w	r3, #33	; 0x21
    460a:	e258      	b.n	4abe <pll_init+0x51a>
        }

    // check crystal frequency is within spec. if crystal osc is being used as PLL ref

    if(erefs_val)
    460c:	78bb      	ldrb	r3, [r7, #2]
    460e:	2b00      	cmp	r3, #0
    4610:	d010      	beq.n	4634 <pll_init+0x90>
        {
            if((crystal_val < 3000000) || (crystal_val > 32000000))
    4612:	687a      	ldr	r2, [r7, #4]
    4614:	f24c 63bf 	movw	r3, #50879	; 0xc6bf
    4618:	f2c0 032d 	movt	r3, #45	; 0x2d
    461c:	429a      	cmp	r2, r3
    461e:	dd06      	ble.n	462e <pll_init+0x8a>
    4620:	687a      	ldr	r2, [r7, #4]
    4622:	f44f 4390 	mov.w	r3, #18432	; 0x4800
    4626:	f2c0 13e8 	movt	r3, #488	; 0x1e8
    462a:	429a      	cmp	r2, r3
    462c:	dd02      	ble.n	4634 <pll_init+0x90>
                {
                    return 0x22;    // return 1 if one of the available crystal options is not available
    462e:	f04f 0322 	mov.w	r3, #34	; 0x22
    4632:	e244      	b.n	4abe <pll_init+0x51a>
                }
        }

    // make sure HGO will never be greater than 1. Could return an error instead if desired.

    if(hgo_val > 0)
    4634:	78fb      	ldrb	r3, [r7, #3]
    4636:	2b00      	cmp	r3, #0
    4638:	d002      	beq.n	4640 <pll_init+0x9c>
        {
            hgo_val = 1;        // force hgo_val to 1 if > 0
    463a:	f04f 0301 	mov.w	r3, #1
    463e:	70fb      	strb	r3, [r7, #3]
        }

    // Check PLL divider settings are within spec.

    if((prdiv_val < 1) || (prdiv_val > 25))
    4640:	f997 3001 	ldrsb.w	r3, [r7, #1]
    4644:	2b00      	cmp	r3, #0
    4646:	dd03      	ble.n	4650 <pll_init+0xac>
    4648:	f997 3001 	ldrsb.w	r3, [r7, #1]
    464c:	2b19      	cmp	r3, #25
    464e:	dd02      	ble.n	4656 <pll_init+0xb2>
        {
            return 0x41;
    4650:	f04f 0341 	mov.w	r3, #65	; 0x41
    4654:	e233      	b.n	4abe <pll_init+0x51a>
        }

    if((vdiv_val < 24) || (vdiv_val > 50))
    4656:	f997 3020 	ldrsb.w	r3, [r7, #32]
    465a:	2b17      	cmp	r3, #23
    465c:	dd03      	ble.n	4666 <pll_init+0xc2>
    465e:	f997 3020 	ldrsb.w	r3, [r7, #32]
    4662:	2b32      	cmp	r3, #50	; 0x32
    4664:	dd02      	ble.n	466c <pll_init+0xc8>
        {
            return 0x42;
    4666:	f04f 0342 	mov.w	r3, #66	; 0x42
    466a:	e228      	b.n	4abe <pll_init+0x51a>
        }

    // Check PLL reference clock frequency is within spec.
    ref_freq = crystal_val / prdiv_val;
    466c:	f997 3001 	ldrsb.w	r3, [r7, #1]
    4670:	687a      	ldr	r2, [r7, #4]
    4672:	fb92 f3f3 	sdiv	r3, r2, r3
    4676:	613b      	str	r3, [r7, #16]

    if((ref_freq < 2000000) || (ref_freq > 4000000))
    4678:	693a      	ldr	r2, [r7, #16]
    467a:	f248 437f 	movw	r3, #33919	; 0x847f
    467e:	f2c0 031e 	movt	r3, #30
    4682:	429a      	cmp	r2, r3
    4684:	dd06      	ble.n	4694 <pll_init+0xf0>
    4686:	693a      	ldr	r2, [r7, #16]
    4688:	f44f 6310 	mov.w	r3, #2304	; 0x900
    468c:	f2c0 033d 	movt	r3, #61	; 0x3d
    4690:	429a      	cmp	r2, r3
    4692:	dd02      	ble.n	469a <pll_init+0xf6>
        {
            return 0x43;
    4694:	f04f 0343 	mov.w	r3, #67	; 0x43
    4698:	e211      	b.n	4abe <pll_init+0x51a>
        }

    // Check PLL output frequency is within spec.
    pll_freq = (crystal_val / prdiv_val) * vdiv_val;
    469a:	f997 3001 	ldrsb.w	r3, [r7, #1]
    469e:	687a      	ldr	r2, [r7, #4]
    46a0:	fb92 f3f3 	sdiv	r3, r2, r3
    46a4:	f997 2020 	ldrsb.w	r2, [r7, #32]
    46a8:	fb02 f303 	mul.w	r3, r2, r3
    46ac:	60fb      	str	r3, [r7, #12]

    if((pll_freq < 48000000) || (pll_freq > 100000000))
    46ae:	68fa      	ldr	r2, [r7, #12]
    46b0:	f646 33ff 	movw	r3, #27647	; 0x6bff
    46b4:	f2c0 23dc 	movt	r3, #732	; 0x2dc
    46b8:	429a      	cmp	r2, r3
    46ba:	dd06      	ble.n	46ca <pll_init+0x126>
    46bc:	68fa      	ldr	r2, [r7, #12]
    46be:	f44f 4361 	mov.w	r3, #57600	; 0xe100
    46c2:	f2c0 53f5 	movt	r3, #1525	; 0x5f5
    46c6:	429a      	cmp	r2, r3
    46c8:	dd02      	ble.n	46d0 <pll_init+0x12c>
        {
            return 0x45;
    46ca:	f04f 0345 	mov.w	r3, #69	; 0x45
    46ce:	e1f6      	b.n	4abe <pll_init+0x51a>
        }

    // configure the MCG_C2 register
    // the RANGE value is determined by the external frequency. Since the RANGE parameter affects the FRDIV divide value
    // it still needs to be set correctly even if the oscillator is not being used
    temp_reg = MCG_C2;
    46d0:	f44f 4380 	mov.w	r3, #16384	; 0x4000
    46d4:	f2c4 0306 	movt	r3, #16390	; 0x4006
    46d8:	785b      	ldrb	r3, [r3, #1]
    46da:	75bb      	strb	r3, [r7, #22]
    temp_reg &= ~(MCG_C2_RANGE0_MASK | MCG_C2_HGO0_MASK | MCG_C2_EREFS0_MASK);  // clear fields before writing new values
    46dc:	7dbb      	ldrb	r3, [r7, #22]
    46de:	f023 033c 	bic.w	r3, r3, #60	; 0x3c
    46e2:	75bb      	strb	r3, [r7, #22]

    if(crystal_val <= 8000000)
    46e4:	687a      	ldr	r2, [r7, #4]
    46e6:	f44f 5390 	mov.w	r3, #4608	; 0x1200
    46ea:	f2c0 037a 	movt	r3, #122	; 0x7a
    46ee:	429a      	cmp	r2, r3
    46f0:	dc10      	bgt.n	4714 <pll_init+0x170>
        {
            temp_reg |= (MCG_C2_RANGE0(1) | (hgo_val << MCG_C2_HGO0_SHIFT) | (erefs_val << MCG_C2_EREFS0_SHIFT));
    46f2:	78fb      	ldrb	r3, [r7, #3]
    46f4:	ea4f 03c3 	mov.w	r3, r3, lsl #3
    46f8:	b2da      	uxtb	r2, r3
    46fa:	78bb      	ldrb	r3, [r7, #2]
    46fc:	ea4f 0383 	mov.w	r3, r3, lsl #2
    4700:	b2db      	uxtb	r3, r3
    4702:	4313      	orrs	r3, r2
    4704:	b2da      	uxtb	r2, r3
    4706:	7dbb      	ldrb	r3, [r7, #22]
    4708:	4313      	orrs	r3, r2
    470a:	b2db      	uxtb	r3, r3
    470c:	f043 0310 	orr.w	r3, r3, #16
    4710:	75bb      	strb	r3, [r7, #22]
    4712:	e00f      	b.n	4734 <pll_init+0x190>
        }
    else
        {
            temp_reg |= (MCG_C2_RANGE0(2) | (hgo_val << MCG_C2_HGO0_SHIFT) | (erefs_val << MCG_C2_EREFS0_SHIFT));
    4714:	78fb      	ldrb	r3, [r7, #3]
    4716:	ea4f 03c3 	mov.w	r3, r3, lsl #3
    471a:	b2da      	uxtb	r2, r3
    471c:	78bb      	ldrb	r3, [r7, #2]
    471e:	ea4f 0383 	mov.w	r3, r3, lsl #2
    4722:	b2db      	uxtb	r3, r3
    4724:	4313      	orrs	r3, r2
    4726:	b2da      	uxtb	r2, r3
    4728:	7dbb      	ldrb	r3, [r7, #22]
    472a:	4313      	orrs	r3, r2
    472c:	b2db      	uxtb	r3, r3
    472e:	f043 0320 	orr.w	r3, r3, #32
    4732:	75bb      	strb	r3, [r7, #22]
        }

    MCG_C2 = temp_reg;
    4734:	f44f 4380 	mov.w	r3, #16384	; 0x4000
    4738:	f2c4 0306 	movt	r3, #16390	; 0x4006
    473c:	7dba      	ldrb	r2, [r7, #22]
    473e:	705a      	strb	r2, [r3, #1]

    // determine FRDIV based on reference clock frequency
    // since the external frequency has already been checked only the maximum frequency for each FRDIV value needs to be compared here.

    if(crystal_val <= 1250000)
    4740:	687a      	ldr	r2, [r7, #4]
    4742:	f241 23d0 	movw	r3, #4816	; 0x12d0
    4746:	f2c0 0313 	movt	r3, #19
    474a:	429a      	cmp	r2, r3
    474c:	dc03      	bgt.n	4756 <pll_init+0x1b2>
        {
            frdiv_val = 0;
    474e:	f04f 0300 	mov.w	r3, #0
    4752:	75fb      	strb	r3, [r7, #23]
    4754:	e02e      	b.n	47b4 <pll_init+0x210>
        }
    else if(crystal_val <= 2500000)
    4756:	687a      	ldr	r2, [r7, #4]
    4758:	f242 53a0 	movw	r3, #9632	; 0x25a0
    475c:	f2c0 0326 	movt	r3, #38	; 0x26
    4760:	429a      	cmp	r2, r3
    4762:	dc03      	bgt.n	476c <pll_init+0x1c8>
        {
            frdiv_val = 1;
    4764:	f04f 0301 	mov.w	r3, #1
    4768:	75fb      	strb	r3, [r7, #23]
    476a:	e023      	b.n	47b4 <pll_init+0x210>
        }
    else if(crystal_val <= 5000000)
    476c:	687a      	ldr	r2, [r7, #4]
    476e:	f644 3340 	movw	r3, #19264	; 0x4b40
    4772:	f2c0 034c 	movt	r3, #76	; 0x4c
    4776:	429a      	cmp	r2, r3
    4778:	dc03      	bgt.n	4782 <pll_init+0x1de>
        {
            frdiv_val = 2;
    477a:	f04f 0302 	mov.w	r3, #2
    477e:	75fb      	strb	r3, [r7, #23]
    4780:	e018      	b.n	47b4 <pll_init+0x210>
        }
    else if(crystal_val <= 10000000)
    4782:	687a      	ldr	r2, [r7, #4]
    4784:	f249 6380 	movw	r3, #38528	; 0x9680
    4788:	f2c0 0398 	movt	r3, #152	; 0x98
    478c:	429a      	cmp	r2, r3
    478e:	dc03      	bgt.n	4798 <pll_init+0x1f4>
        {
            frdiv_val = 3;
    4790:	f04f 0303 	mov.w	r3, #3
    4794:	75fb      	strb	r3, [r7, #23]
    4796:	e00d      	b.n	47b4 <pll_init+0x210>
        }
    else if(crystal_val <= 20000000)
    4798:	687a      	ldr	r2, [r7, #4]
    479a:	f44f 5334 	mov.w	r3, #11520	; 0x2d00
    479e:	f2c0 1331 	movt	r3, #305	; 0x131
    47a2:	429a      	cmp	r2, r3
    47a4:	dc03      	bgt.n	47ae <pll_init+0x20a>
        {
            frdiv_val = 4;
    47a6:	f04f 0304 	mov.w	r3, #4
    47aa:	75fb      	strb	r3, [r7, #23]
    47ac:	e002      	b.n	47b4 <pll_init+0x210>
        }
    else
        {
            frdiv_val = 5;
    47ae:	f04f 0305 	mov.w	r3, #5
    47b2:	75fb      	strb	r3, [r7, #23]
        }

    // Select external oscillator and Reference Divider and clear IREFS to start ext osc
    // If IRCLK is required it must be enabled outside of this driver, existing state will be maintained
    // CLKS=2, FRDIV=frdiv_val, IREFS=0, IRCLKEN=0, IREFSTEN=0
    temp_reg = MCG_C1;
    47b4:	f44f 4380 	mov.w	r3, #16384	; 0x4000
    47b8:	f2c4 0306 	movt	r3, #16390	; 0x4006
    47bc:	781b      	ldrb	r3, [r3, #0]
    47be:	75bb      	strb	r3, [r7, #22]
    temp_reg &= ~(MCG_C1_CLKS_MASK | MCG_C1_FRDIV_MASK | MCG_C1_IREFS_MASK);    // Clear values in these fields
    47c0:	7dbb      	ldrb	r3, [r7, #22]
    47c2:	f003 0303 	and.w	r3, r3, #3
    47c6:	75bb      	strb	r3, [r7, #22]
    temp_reg |= (MCG_C1_CLKS(2) | MCG_C1_FRDIV(frdiv_val));                     // Set the required CLKS and FRDIV values
    47c8:	7dfb      	ldrb	r3, [r7, #23]
    47ca:	ea4f 03c3 	mov.w	r3, r3, lsl #3
    47ce:	b2db      	uxtb	r3, r3
    47d0:	f003 0338 	and.w	r3, r3, #56	; 0x38
    47d4:	b2da      	uxtb	r2, r3
    47d6:	7dbb      	ldrb	r3, [r7, #22]
    47d8:	4313      	orrs	r3, r2
    47da:	b2db      	uxtb	r3, r3
    47dc:	f063 037f 	orn	r3, r3, #127	; 0x7f
    47e0:	75bb      	strb	r3, [r7, #22]
    MCG_C1 = temp_reg;
    47e2:	f44f 4380 	mov.w	r3, #16384	; 0x4000
    47e6:	f2c4 0306 	movt	r3, #16390	; 0x4006
    47ea:	7dba      	ldrb	r2, [r7, #22]
    47ec:	701a      	strb	r2, [r3, #0]

    // if the external oscillator is used need to wait for OSCINIT to set

    if(erefs_val)
    47ee:	78bb      	ldrb	r3, [r7, #2]
    47f0:	2b00      	cmp	r3, #0
    47f2:	d026      	beq.n	4842 <pll_init+0x29e>
        {
            for(i = 0; i < 20000; i++)
    47f4:	f04f 0300 	mov.w	r3, #0
    47f8:	82bb      	strh	r3, [r7, #20]
    47fa:	e00d      	b.n	4818 <pll_init+0x274>
                {
                    if(MCG_S & MCG_S_OSCINIT0_MASK) break;                          // jump out early if OSCINIT sets before loop finishes
    47fc:	f44f 4380 	mov.w	r3, #16384	; 0x4000
    4800:	f2c4 0306 	movt	r3, #16390	; 0x4006
    4804:	799b      	ldrb	r3, [r3, #6]
    4806:	b2db      	uxtb	r3, r3
    4808:	f003 0302 	and.w	r3, r3, #2
    480c:	2b00      	cmp	r3, #0
    480e:	d10a      	bne.n	4826 <pll_init+0x282>

    // if the external oscillator is used need to wait for OSCINIT to set

    if(erefs_val)
        {
            for(i = 0; i < 20000; i++)
    4810:	8abb      	ldrh	r3, [r7, #20]
    4812:	f103 0301 	add.w	r3, r3, #1
    4816:	82bb      	strh	r3, [r7, #20]
    4818:	f9b7 2014 	ldrsh.w	r2, [r7, #20]
    481c:	f644 631f 	movw	r3, #19999	; 0x4e1f
    4820:	429a      	cmp	r2, r3
    4822:	ddeb      	ble.n	47fc <pll_init+0x258>
    4824:	e000      	b.n	4828 <pll_init+0x284>
                {
                    if(MCG_S & MCG_S_OSCINIT0_MASK) break;                          // jump out early if OSCINIT sets before loop finishes
    4826:	bf00      	nop
                }

            if(!(MCG_S & MCG_S_OSCINIT0_MASK)) return 0x23;                     // check bit is really set and return with error if not set
    4828:	f44f 4380 	mov.w	r3, #16384	; 0x4000
    482c:	f2c4 0306 	movt	r3, #16390	; 0x4006
    4830:	799b      	ldrb	r3, [r3, #6]
    4832:	b2db      	uxtb	r3, r3
    4834:	f003 0302 	and.w	r3, r3, #2
    4838:	2b00      	cmp	r3, #0
    483a:	d102      	bne.n	4842 <pll_init+0x29e>
    483c:	f04f 0323 	mov.w	r3, #35	; 0x23
    4840:	e13d      	b.n	4abe <pll_init+0x51a>
        }

    // wait for Reference clock Status bit to clear

    for(i = 0; i < 2000; i++)
    4842:	f04f 0300 	mov.w	r3, #0
    4846:	82bb      	strh	r3, [r7, #20]
    4848:	e00d      	b.n	4866 <pll_init+0x2c2>
        {
            if(!(MCG_S & MCG_S_IREFST_MASK)) break;                             // jump out early if IREFST clears before loop finishes
    484a:	f44f 4380 	mov.w	r3, #16384	; 0x4000
    484e:	f2c4 0306 	movt	r3, #16390	; 0x4006
    4852:	799b      	ldrb	r3, [r3, #6]
    4854:	b2db      	uxtb	r3, r3
    4856:	f003 0310 	and.w	r3, r3, #16
    485a:	2b00      	cmp	r3, #0
    485c:	d00a      	beq.n	4874 <pll_init+0x2d0>
            if(!(MCG_S & MCG_S_OSCINIT0_MASK)) return 0x23;                     // check bit is really set and return with error if not set
        }

    // wait for Reference clock Status bit to clear

    for(i = 0; i < 2000; i++)
    485e:	8abb      	ldrh	r3, [r7, #20]
    4860:	f103 0301 	add.w	r3, r3, #1
    4864:	82bb      	strh	r3, [r7, #20]
    4866:	f9b7 2014 	ldrsh.w	r2, [r7, #20]
    486a:	f240 73cf 	movw	r3, #1999	; 0x7cf
    486e:	429a      	cmp	r2, r3
    4870:	ddeb      	ble.n	484a <pll_init+0x2a6>
    4872:	e000      	b.n	4876 <pll_init+0x2d2>
        {
            if(!(MCG_S & MCG_S_IREFST_MASK)) break;                             // jump out early if IREFST clears before loop finishes
    4874:	bf00      	nop
        }

    if(MCG_S & MCG_S_IREFST_MASK) return 0x11;                              // check bit is really clear and return with error if not set
    4876:	f44f 4380 	mov.w	r3, #16384	; 0x4000
    487a:	f2c4 0306 	movt	r3, #16390	; 0x4006
    487e:	799b      	ldrb	r3, [r3, #6]
    4880:	b2db      	uxtb	r3, r3
    4882:	f003 0310 	and.w	r3, r3, #16
    4886:	2b00      	cmp	r3, #0
    4888:	d002      	beq.n	4890 <pll_init+0x2ec>
    488a:	f04f 0311 	mov.w	r3, #17
    488e:	e116      	b.n	4abe <pll_init+0x51a>

    // Wait for clock status bits to show clock source is ext ref clk

    for(i = 0; i < 2000; i++)
    4890:	f04f 0300 	mov.w	r3, #0
    4894:	82bb      	strh	r3, [r7, #20]
    4896:	e00f      	b.n	48b8 <pll_init+0x314>
        {
            if(((MCG_S & MCG_S_CLKST_MASK) >> MCG_S_CLKST_SHIFT) == 0x2) break; // jump out early if CLKST shows EXT CLK slected before loop finishes
    4898:	f44f 4380 	mov.w	r3, #16384	; 0x4000
    489c:	f2c4 0306 	movt	r3, #16390	; 0x4006
    48a0:	799b      	ldrb	r3, [r3, #6]
    48a2:	b2db      	uxtb	r3, r3
    48a4:	f003 030c 	and.w	r3, r3, #12
    48a8:	ea4f 0393 	mov.w	r3, r3, lsr #2
    48ac:	2b02      	cmp	r3, #2
    48ae:	d00a      	beq.n	48c6 <pll_init+0x322>

    if(MCG_S & MCG_S_IREFST_MASK) return 0x11;                              // check bit is really clear and return with error if not set

    // Wait for clock status bits to show clock source is ext ref clk

    for(i = 0; i < 2000; i++)
    48b0:	8abb      	ldrh	r3, [r7, #20]
    48b2:	f103 0301 	add.w	r3, r3, #1
    48b6:	82bb      	strh	r3, [r7, #20]
    48b8:	f9b7 2014 	ldrsh.w	r2, [r7, #20]
    48bc:	f240 73cf 	movw	r3, #1999	; 0x7cf
    48c0:	429a      	cmp	r2, r3
    48c2:	dde9      	ble.n	4898 <pll_init+0x2f4>
    48c4:	e000      	b.n	48c8 <pll_init+0x324>
        {
            if(((MCG_S & MCG_S_CLKST_MASK) >> MCG_S_CLKST_SHIFT) == 0x2) break; // jump out early if CLKST shows EXT CLK slected before loop finishes
    48c6:	bf00      	nop
        }

    if(((MCG_S & MCG_S_CLKST_MASK) >> MCG_S_CLKST_SHIFT) != 0x2) return 0x1A;   // check EXT CLK is really selected and return with error if not
    48c8:	f44f 4380 	mov.w	r3, #16384	; 0x4000
    48cc:	f2c4 0306 	movt	r3, #16390	; 0x4006
    48d0:	799b      	ldrb	r3, [r3, #6]
    48d2:	b2db      	uxtb	r3, r3
    48d4:	f003 030c 	and.w	r3, r3, #12
    48d8:	ea4f 0393 	mov.w	r3, r3, lsr #2
    48dc:	2b02      	cmp	r3, #2
    48de:	d002      	beq.n	48e6 <pll_init+0x342>
    48e0:	f04f 031a 	mov.w	r3, #26
    48e4:	e0eb      	b.n	4abe <pll_init+0x51a>

    // Now in FBE
    // It is recommended that the clock monitor is enabled when using an external clock as the clock source/reference.
    // It is enabled here but can be removed if this is not required.
    MCG_C6 |= MCG_C6_CME0_MASK;
    48e6:	f44f 4380 	mov.w	r3, #16384	; 0x4000
    48ea:	f2c4 0306 	movt	r3, #16390	; 0x4006
    48ee:	f44f 4280 	mov.w	r2, #16384	; 0x4000
    48f2:	f2c4 0206 	movt	r2, #16390	; 0x4006
    48f6:	7952      	ldrb	r2, [r2, #5]
    48f8:	b2d2      	uxtb	r2, r2
    48fa:	f042 0220 	orr.w	r2, r2, #32
    48fe:	b2d2      	uxtb	r2, r2
    4900:	715a      	strb	r2, [r3, #5]
    // Configure PLL
    // Configure MCG_C5
    // If the PLL is to run in STOP mode then the PLLSTEN bit needs to be OR'ed in here or in user code.
    temp_reg = MCG_C5;
    4902:	f44f 4380 	mov.w	r3, #16384	; 0x4000
    4906:	f2c4 0306 	movt	r3, #16390	; 0x4006
    490a:	791b      	ldrb	r3, [r3, #4]
    490c:	75bb      	strb	r3, [r7, #22]
    temp_reg &= ~MCG_C5_PRDIV0_MASK;
    490e:	7dbb      	ldrb	r3, [r7, #22]
    4910:	f023 031f 	bic.w	r3, r3, #31
    4914:	75bb      	strb	r3, [r7, #22]
    temp_reg |= MCG_C5_PRDIV0(prdiv_val - 1);   //set PLL ref divider
    4916:	787b      	ldrb	r3, [r7, #1]
    4918:	f103 33ff 	add.w	r3, r3, #4294967295
    491c:	b2db      	uxtb	r3, r3
    491e:	f003 031f 	and.w	r3, r3, #31
    4922:	b2da      	uxtb	r2, r3
    4924:	7dbb      	ldrb	r3, [r7, #22]
    4926:	4313      	orrs	r3, r2
    4928:	75bb      	strb	r3, [r7, #22]
    MCG_C5 = temp_reg;
    492a:	f44f 4380 	mov.w	r3, #16384	; 0x4000
    492e:	f2c4 0306 	movt	r3, #16390	; 0x4006
    4932:	7dba      	ldrb	r2, [r7, #22]
    4934:	711a      	strb	r2, [r3, #4]
    // Configure MCG_C6
    // The PLLS bit is set to enable the PLL, MCGOUT still sourced from ext ref clk
    // The loss of lock interrupt can be enabled by seperately OR'ing in the LOLIE bit in MCG_C6
    temp_reg = MCG_C6;              // store present C6 value
    4936:	f44f 4380 	mov.w	r3, #16384	; 0x4000
    493a:	f2c4 0306 	movt	r3, #16390	; 0x4006
    493e:	795b      	ldrb	r3, [r3, #5]
    4940:	75bb      	strb	r3, [r7, #22]
    temp_reg &= ~MCG_C6_VDIV0_MASK; // clear VDIV settings
    4942:	7dbb      	ldrb	r3, [r7, #22]
    4944:	f023 031f 	bic.w	r3, r3, #31
    4948:	75bb      	strb	r3, [r7, #22]
    temp_reg |= MCG_C6_PLLS_MASK | MCG_C6_VDIV0(vdiv_val - 24); // write new VDIV and enable PLL
    494a:	f897 3020 	ldrb.w	r3, [r7, #32]
    494e:	f1a3 0318 	sub.w	r3, r3, #24
    4952:	b2db      	uxtb	r3, r3
    4954:	f003 031f 	and.w	r3, r3, #31
    4958:	b2da      	uxtb	r2, r3
    495a:	7dbb      	ldrb	r3, [r7, #22]
    495c:	4313      	orrs	r3, r2
    495e:	b2db      	uxtb	r3, r3
    4960:	f043 0340 	orr.w	r3, r3, #64	; 0x40
    4964:	75bb      	strb	r3, [r7, #22]
    MCG_C6 = temp_reg;                      // update MCG_C6
    4966:	f44f 4380 	mov.w	r3, #16384	; 0x4000
    496a:	f2c4 0306 	movt	r3, #16390	; 0x4006
    496e:	7dba      	ldrb	r2, [r7, #22]
    4970:	715a      	strb	r2, [r3, #5]

    // wait for PLLST status bit to set

    for(i = 0; i < 2000; i++)
    4972:	f04f 0300 	mov.w	r3, #0
    4976:	82bb      	strh	r3, [r7, #20]
    4978:	e00d      	b.n	4996 <pll_init+0x3f2>
        {
            if(MCG_S & MCG_S_PLLST_MASK) break; // jump out early if PLLST sets before loop finishes
    497a:	f44f 4380 	mov.w	r3, #16384	; 0x4000
    497e:	f2c4 0306 	movt	r3, #16390	; 0x4006
    4982:	799b      	ldrb	r3, [r3, #6]
    4984:	b2db      	uxtb	r3, r3
    4986:	f003 0320 	and.w	r3, r3, #32
    498a:	2b00      	cmp	r3, #0
    498c:	d10a      	bne.n	49a4 <pll_init+0x400>
    temp_reg |= MCG_C6_PLLS_MASK | MCG_C6_VDIV0(vdiv_val - 24); // write new VDIV and enable PLL
    MCG_C6 = temp_reg;                      // update MCG_C6

    // wait for PLLST status bit to set

    for(i = 0; i < 2000; i++)
    498e:	8abb      	ldrh	r3, [r7, #20]
    4990:	f103 0301 	add.w	r3, r3, #1
    4994:	82bb      	strh	r3, [r7, #20]
    4996:	f9b7 2014 	ldrsh.w	r2, [r7, #20]
    499a:	f240 73cf 	movw	r3, #1999	; 0x7cf
    499e:	429a      	cmp	r2, r3
    49a0:	ddeb      	ble.n	497a <pll_init+0x3d6>
    49a2:	e000      	b.n	49a6 <pll_init+0x402>
        {
            if(MCG_S & MCG_S_PLLST_MASK) break; // jump out early if PLLST sets before loop finishes
    49a4:	bf00      	nop
        }

    if(!(MCG_S & MCG_S_PLLST_MASK)) return 0x16;    // check bit is really set and return with error if not set
    49a6:	f44f 4380 	mov.w	r3, #16384	; 0x4000
    49aa:	f2c4 0306 	movt	r3, #16390	; 0x4006
    49ae:	799b      	ldrb	r3, [r3, #6]
    49b0:	b2db      	uxtb	r3, r3
    49b2:	f003 0320 	and.w	r3, r3, #32
    49b6:	2b00      	cmp	r3, #0
    49b8:	d102      	bne.n	49c0 <pll_init+0x41c>
    49ba:	f04f 0316 	mov.w	r3, #22
    49be:	e07e      	b.n	4abe <pll_init+0x51a>

    // Wait for LOCK bit to set

    for(i = 0; i < 4000; i++)
    49c0:	f04f 0300 	mov.w	r3, #0
    49c4:	82bb      	strh	r3, [r7, #20]
    49c6:	e00d      	b.n	49e4 <pll_init+0x440>
        {
            if(MCG_S & MCG_S_LOCK0_MASK) break;         // jump out early if LOCK sets before loop finishes
    49c8:	f44f 4380 	mov.w	r3, #16384	; 0x4000
    49cc:	f2c4 0306 	movt	r3, #16390	; 0x4006
    49d0:	799b      	ldrb	r3, [r3, #6]
    49d2:	b2db      	uxtb	r3, r3
    49d4:	f003 0340 	and.w	r3, r3, #64	; 0x40
    49d8:	2b00      	cmp	r3, #0
    49da:	d10a      	bne.n	49f2 <pll_init+0x44e>

    if(!(MCG_S & MCG_S_PLLST_MASK)) return 0x16;    // check bit is really set and return with error if not set

    // Wait for LOCK bit to set

    for(i = 0; i < 4000; i++)
    49dc:	8abb      	ldrh	r3, [r7, #20]
    49de:	f103 0301 	add.w	r3, r3, #1
    49e2:	82bb      	strh	r3, [r7, #20]
    49e4:	f9b7 2014 	ldrsh.w	r2, [r7, #20]
    49e8:	f640 739f 	movw	r3, #3999	; 0xf9f
    49ec:	429a      	cmp	r2, r3
    49ee:	ddeb      	ble.n	49c8 <pll_init+0x424>
    49f0:	e000      	b.n	49f4 <pll_init+0x450>
        {
            if(MCG_S & MCG_S_LOCK0_MASK) break;         // jump out early if LOCK sets before loop finishes
    49f2:	bf00      	nop
        }

    if(!(MCG_S & MCG_S_LOCK0_MASK)) return 0x44;    // check bit is really set and return with error if not set
    49f4:	f44f 4380 	mov.w	r3, #16384	; 0x4000
    49f8:	f2c4 0306 	movt	r3, #16390	; 0x4006
    49fc:	799b      	ldrb	r3, [r3, #6]
    49fe:	b2db      	uxtb	r3, r3
    4a00:	f003 0340 	and.w	r3, r3, #64	; 0x40
    4a04:	2b00      	cmp	r3, #0
    4a06:	d102      	bne.n	4a0e <pll_init+0x46a>
    4a08:	f04f 0344 	mov.w	r3, #68	; 0x44
    4a0c:	e057      	b.n	4abe <pll_init+0x51a>

    // Use actual PLL settings to calculate PLL frequency
    prdiv = ((MCG_C5 & MCG_C5_PRDIV0_MASK) + 1);
    4a0e:	f44f 4380 	mov.w	r3, #16384	; 0x4000
    4a12:	f2c4 0306 	movt	r3, #16390	; 0x4006
    4a16:	791b      	ldrb	r3, [r3, #4]
    4a18:	b2db      	uxtb	r3, r3
    4a1a:	f003 031f 	and.w	r3, r3, #31
    4a1e:	b2db      	uxtb	r3, r3
    4a20:	f103 0301 	add.w	r3, r3, #1
    4a24:	72fb      	strb	r3, [r7, #11]
    vdiv = ((MCG_C6 & MCG_C6_VDIV0_MASK) + 24);
    4a26:	f44f 4380 	mov.w	r3, #16384	; 0x4000
    4a2a:	f2c4 0306 	movt	r3, #16390	; 0x4006
    4a2e:	795b      	ldrb	r3, [r3, #5]
    4a30:	b2db      	uxtb	r3, r3
    4a32:	f003 031f 	and.w	r3, r3, #31
    4a36:	b2db      	uxtb	r3, r3
    4a38:	f103 0318 	add.w	r3, r3, #24
    4a3c:	72bb      	strb	r3, [r7, #10]
    // now in PBE
    MCG_C1 &= ~MCG_C1_CLKS_MASK;                    // clear CLKS to switch CLKS mux to select PLL as MCG_OUT
    4a3e:	f44f 4380 	mov.w	r3, #16384	; 0x4000
    4a42:	f2c4 0306 	movt	r3, #16390	; 0x4006
    4a46:	f44f 4280 	mov.w	r2, #16384	; 0x4000
    4a4a:	f2c4 0206 	movt	r2, #16390	; 0x4006
    4a4e:	7812      	ldrb	r2, [r2, #0]
    4a50:	b2d2      	uxtb	r2, r2
    4a52:	f002 023f 	and.w	r2, r2, #63	; 0x3f
    4a56:	b2d2      	uxtb	r2, r2
    4a58:	701a      	strb	r2, [r3, #0]

    // Wait for clock status bits to update

    for(i = 0; i < 2000; i++)
    4a5a:	f04f 0300 	mov.w	r3, #0
    4a5e:	82bb      	strh	r3, [r7, #20]
    4a60:	e00f      	b.n	4a82 <pll_init+0x4de>
        {
            if(((MCG_S & MCG_S_CLKST_MASK) >> MCG_S_CLKST_SHIFT) == 0x3) break;     // jump out early if CLKST = 3 before loop finishes
    4a62:	f44f 4380 	mov.w	r3, #16384	; 0x4000
    4a66:	f2c4 0306 	movt	r3, #16390	; 0x4006
    4a6a:	799b      	ldrb	r3, [r3, #6]
    4a6c:	b2db      	uxtb	r3, r3
    4a6e:	f003 030c 	and.w	r3, r3, #12
    4a72:	ea4f 0393 	mov.w	r3, r3, lsr #2
    4a76:	2b03      	cmp	r3, #3
    4a78:	d00a      	beq.n	4a90 <pll_init+0x4ec>
    // now in PBE
    MCG_C1 &= ~MCG_C1_CLKS_MASK;                    // clear CLKS to switch CLKS mux to select PLL as MCG_OUT

    // Wait for clock status bits to update

    for(i = 0; i < 2000; i++)
    4a7a:	8abb      	ldrh	r3, [r7, #20]
    4a7c:	f103 0301 	add.w	r3, r3, #1
    4a80:	82bb      	strh	r3, [r7, #20]
    4a82:	f9b7 2014 	ldrsh.w	r2, [r7, #20]
    4a86:	f240 73cf 	movw	r3, #1999	; 0x7cf
    4a8a:	429a      	cmp	r2, r3
    4a8c:	dde9      	ble.n	4a62 <pll_init+0x4be>
    4a8e:	e000      	b.n	4a92 <pll_init+0x4ee>
        {
            if(((MCG_S & MCG_S_CLKST_MASK) >> MCG_S_CLKST_SHIFT) == 0x3) break;     // jump out early if CLKST = 3 before loop finishes
    4a90:	bf00      	nop
        }

    if(((MCG_S & MCG_S_CLKST_MASK) >> MCG_S_CLKST_SHIFT) != 0x3) return 0x1B;   // check CLKST is set correctly and return with error if not
    4a92:	f44f 4380 	mov.w	r3, #16384	; 0x4000
    4a96:	f2c4 0306 	movt	r3, #16390	; 0x4006
    4a9a:	799b      	ldrb	r3, [r3, #6]
    4a9c:	b2db      	uxtb	r3, r3
    4a9e:	f003 030c 	and.w	r3, r3, #12
    4aa2:	ea4f 0393 	mov.w	r3, r3, lsr #2
    4aa6:	2b03      	cmp	r3, #3
    4aa8:	d002      	beq.n	4ab0 <pll_init+0x50c>
    4aaa:	f04f 031b 	mov.w	r3, #27
    4aae:	e006      	b.n	4abe <pll_init+0x51a>

    // Now in PEE
    return((crystal_val / prdiv) * vdiv);   //MCGOUT equals PLL output frequency
    4ab0:	7afb      	ldrb	r3, [r7, #11]
    4ab2:	687a      	ldr	r2, [r7, #4]
    4ab4:	fb92 f3f3 	sdiv	r3, r2, r3
    4ab8:	7aba      	ldrb	r2, [r7, #10]
    4aba:	fb02 f303 	mul.w	r3, r2, r3
}   // pll_init
    4abe:	4618      	mov	r0, r3
    4ac0:	f107 071c 	add.w	r7, r7, #28
    4ac4:	46bd      	mov	sp, r7
    4ac6:	bc80      	pop	{r7}
    4ac8:	4770      	bx	lr
    4aca:	bf00      	nop

00004acc <sai_stop_dbg_enable>:
    unsigned char   port,
    unsigned char   tx,
    unsigned char   stope,
    unsigned char   dbge
)
{
    4acc:	b480      	push	{r7}
    4ace:	b083      	sub	sp, #12
    4ad0:	af00      	add	r7, sp, #0
    4ad2:	71f8      	strb	r0, [r7, #7]
    4ad4:	71b9      	strb	r1, [r7, #6]
    4ad6:	717a      	strb	r2, [r7, #5]
    4ad8:	713b      	strb	r3, [r7, #4]
    if(port == 0)
    4ada:	79fb      	ldrb	r3, [r7, #7]
    4adc:	2b00      	cmp	r3, #0
    4ade:	d17b      	bne.n	4bd8 <sai_stop_dbg_enable+0x10c>
        {
            if(tx)
    4ae0:	79bb      	ldrb	r3, [r7, #6]
    4ae2:	2b00      	cmp	r3, #0
    4ae4:	d038      	beq.n	4b58 <sai_stop_dbg_enable+0x8c>
                {
                    if(stope) I2S_TCSR_REG(I2S0_BASE_PTR) |= I2S_TCSR_STOPE_MASK;   //stop enable
    4ae6:	797b      	ldrb	r3, [r7, #5]
    4ae8:	2b00      	cmp	r3, #0
    4aea:	d00c      	beq.n	4b06 <sai_stop_dbg_enable+0x3a>
    4aec:	f44f 4370 	mov.w	r3, #61440	; 0xf000
    4af0:	f2c4 0302 	movt	r3, #16386	; 0x4002
    4af4:	f44f 4270 	mov.w	r2, #61440	; 0xf000
    4af8:	f2c4 0202 	movt	r2, #16386	; 0x4002
    4afc:	6812      	ldr	r2, [r2, #0]
    4afe:	f042 4280 	orr.w	r2, r2, #1073741824	; 0x40000000
    4b02:	601a      	str	r2, [r3, #0]
    4b04:	e00b      	b.n	4b1e <sai_stop_dbg_enable+0x52>
                    else
                        I2S_TCSR_REG(I2S0_BASE_PTR) &= ~I2S_TCSR_STOPE_MASK;        //stop disable
    4b06:	f44f 4370 	mov.w	r3, #61440	; 0xf000
    4b0a:	f2c4 0302 	movt	r3, #16386	; 0x4002
    4b0e:	f44f 4270 	mov.w	r2, #61440	; 0xf000
    4b12:	f2c4 0202 	movt	r2, #16386	; 0x4002
    4b16:	6812      	ldr	r2, [r2, #0]
    4b18:	f022 4280 	bic.w	r2, r2, #1073741824	; 0x40000000
    4b1c:	601a      	str	r2, [r3, #0]

                    if(dbge) I2S_TCSR_REG(I2S0_BASE_PTR) |= I2S_TCSR_DBGE_MASK;     //debug enable
    4b1e:	793b      	ldrb	r3, [r7, #4]
    4b20:	2b00      	cmp	r3, #0
    4b22:	d00c      	beq.n	4b3e <sai_stop_dbg_enable+0x72>
    4b24:	f44f 4370 	mov.w	r3, #61440	; 0xf000
    4b28:	f2c4 0302 	movt	r3, #16386	; 0x4002
    4b2c:	f44f 4270 	mov.w	r2, #61440	; 0xf000
    4b30:	f2c4 0202 	movt	r2, #16386	; 0x4002
    4b34:	6812      	ldr	r2, [r2, #0]
    4b36:	f042 5200 	orr.w	r2, r2, #536870912	; 0x20000000
    4b3a:	601a      	str	r2, [r3, #0]
    4b3c:	e04c      	b.n	4bd8 <sai_stop_dbg_enable+0x10c>
                    else
                        I2S_TCSR_REG(I2S0_BASE_PTR) &= ~I2S_TCSR_DBGE_MASK;         //debug disable
    4b3e:	f44f 4370 	mov.w	r3, #61440	; 0xf000
    4b42:	f2c4 0302 	movt	r3, #16386	; 0x4002
    4b46:	f44f 4270 	mov.w	r2, #61440	; 0xf000
    4b4a:	f2c4 0202 	movt	r2, #16386	; 0x4002
    4b4e:	6812      	ldr	r2, [r2, #0]
    4b50:	f022 5200 	bic.w	r2, r2, #536870912	; 0x20000000
    4b54:	601a      	str	r2, [r3, #0]
    4b56:	e03f      	b.n	4bd8 <sai_stop_dbg_enable+0x10c>
                }
            else
                {
                    if(stope) I2S_RCSR_REG(I2S0_BASE_PTR) |= I2S_RCSR_STOPE_MASK;   //stop enable
    4b58:	797b      	ldrb	r3, [r7, #5]
    4b5a:	2b00      	cmp	r3, #0
    4b5c:	d00e      	beq.n	4b7c <sai_stop_dbg_enable+0xb0>
    4b5e:	f44f 4370 	mov.w	r3, #61440	; 0xf000
    4b62:	f2c4 0302 	movt	r3, #16386	; 0x4002
    4b66:	f44f 4270 	mov.w	r2, #61440	; 0xf000
    4b6a:	f2c4 0202 	movt	r2, #16386	; 0x4002
    4b6e:	f8d2 2080 	ldr.w	r2, [r2, #128]	; 0x80
    4b72:	f042 4280 	orr.w	r2, r2, #1073741824	; 0x40000000
    4b76:	f8c3 2080 	str.w	r2, [r3, #128]	; 0x80
    4b7a:	e00d      	b.n	4b98 <sai_stop_dbg_enable+0xcc>
                    else
                        I2S_RCSR_REG(I2S0_BASE_PTR) &= ~I2S_RCSR_STOPE_MASK;        //stop disable
    4b7c:	f44f 4370 	mov.w	r3, #61440	; 0xf000
    4b80:	f2c4 0302 	movt	r3, #16386	; 0x4002
    4b84:	f44f 4270 	mov.w	r2, #61440	; 0xf000
    4b88:	f2c4 0202 	movt	r2, #16386	; 0x4002
    4b8c:	f8d2 2080 	ldr.w	r2, [r2, #128]	; 0x80
    4b90:	f022 4280 	bic.w	r2, r2, #1073741824	; 0x40000000
    4b94:	f8c3 2080 	str.w	r2, [r3, #128]	; 0x80

                    if(dbge) I2S_RCSR_REG(I2S0_BASE_PTR) |= I2S_RCSR_DBGE_MASK;     //debug enable
    4b98:	793b      	ldrb	r3, [r7, #4]
    4b9a:	2b00      	cmp	r3, #0
    4b9c:	d00e      	beq.n	4bbc <sai_stop_dbg_enable+0xf0>
    4b9e:	f44f 4370 	mov.w	r3, #61440	; 0xf000
    4ba2:	f2c4 0302 	movt	r3, #16386	; 0x4002
    4ba6:	f44f 4270 	mov.w	r2, #61440	; 0xf000
    4baa:	f2c4 0202 	movt	r2, #16386	; 0x4002
    4bae:	f8d2 2080 	ldr.w	r2, [r2, #128]	; 0x80
    4bb2:	f042 5200 	orr.w	r2, r2, #536870912	; 0x20000000
    4bb6:	f8c3 2080 	str.w	r2, [r3, #128]	; 0x80
    4bba:	e00d      	b.n	4bd8 <sai_stop_dbg_enable+0x10c>
                    else
                        I2S_RCSR_REG(I2S0_BASE_PTR) &= ~I2S_RCSR_DBGE_MASK;         //debug disable
    4bbc:	f44f 4370 	mov.w	r3, #61440	; 0xf000
    4bc0:	f2c4 0302 	movt	r3, #16386	; 0x4002
    4bc4:	f44f 4270 	mov.w	r2, #61440	; 0xf000
    4bc8:	f2c4 0202 	movt	r2, #16386	; 0x4002
    4bcc:	f8d2 2080 	ldr.w	r2, [r2, #128]	; 0x80
    4bd0:	f022 5200 	bic.w	r2, r2, #536870912	; 0x20000000
    4bd4:	f8c3 2080 	str.w	r2, [r3, #128]	; 0x80
        }
    else if(port == 1)
        {
            //	("Error: Port %d is not available yet.",port);
        }
}
    4bd8:	f107 070c 	add.w	r7, r7, #12
    4bdc:	46bd      	mov	sp, r7
    4bde:	bc80      	pop	{r7}
    4be0:	4770      	bx	lr
    4be2:	bf00      	nop

00004be4 <sai_soft_reset>:
void sai_soft_reset
(
    unsigned char   port,
    unsigned char   tx
)
{
    4be4:	b480      	push	{r7}
    4be6:	b083      	sub	sp, #12
    4be8:	af00      	add	r7, sp, #0
    4bea:	4602      	mov	r2, r0
    4bec:	460b      	mov	r3, r1
    4bee:	71fa      	strb	r2, [r7, #7]
    4bf0:	71bb      	strb	r3, [r7, #6]
    if(port == 0)
    4bf2:	79fb      	ldrb	r3, [r7, #7]
    4bf4:	2b00      	cmp	r3, #0
    4bf6:	d137      	bne.n	4c68 <sai_soft_reset+0x84>
        {
            if(tx)
    4bf8:	79bb      	ldrb	r3, [r7, #6]
    4bfa:	2b00      	cmp	r3, #0
    4bfc:	d018      	beq.n	4c30 <sai_soft_reset+0x4c>
                {
                    I2S_TCSR_REG(I2S0_BASE_PTR) |= I2S_TCSR_SR_MASK;    //software reset
    4bfe:	f44f 4370 	mov.w	r3, #61440	; 0xf000
    4c02:	f2c4 0302 	movt	r3, #16386	; 0x4002
    4c06:	f44f 4270 	mov.w	r2, #61440	; 0xf000
    4c0a:	f2c4 0202 	movt	r2, #16386	; 0x4002
    4c0e:	6812      	ldr	r2, [r2, #0]
    4c10:	f042 7280 	orr.w	r2, r2, #16777216	; 0x1000000
    4c14:	601a      	str	r2, [r3, #0]
                    I2S_TCSR_REG(I2S0_BASE_PTR) &= ~I2S_TCSR_SR_MASK;   //clear software reset bit since it's sticky
    4c16:	f44f 4370 	mov.w	r3, #61440	; 0xf000
    4c1a:	f2c4 0302 	movt	r3, #16386	; 0x4002
    4c1e:	f44f 4270 	mov.w	r2, #61440	; 0xf000
    4c22:	f2c4 0202 	movt	r2, #16386	; 0x4002
    4c26:	6812      	ldr	r2, [r2, #0]
    4c28:	f022 7280 	bic.w	r2, r2, #16777216	; 0x1000000
    4c2c:	601a      	str	r2, [r3, #0]
    4c2e:	e01b      	b.n	4c68 <sai_soft_reset+0x84>
                }
            else
                {
                    I2S_RCSR_REG(I2S0_BASE_PTR) |= I2S_RCSR_SR_MASK;    //software reset
    4c30:	f44f 4370 	mov.w	r3, #61440	; 0xf000
    4c34:	f2c4 0302 	movt	r3, #16386	; 0x4002
    4c38:	f44f 4270 	mov.w	r2, #61440	; 0xf000
    4c3c:	f2c4 0202 	movt	r2, #16386	; 0x4002
    4c40:	f8d2 2080 	ldr.w	r2, [r2, #128]	; 0x80
    4c44:	f042 7280 	orr.w	r2, r2, #16777216	; 0x1000000
    4c48:	f8c3 2080 	str.w	r2, [r3, #128]	; 0x80
                    I2S_RCSR_REG(I2S0_BASE_PTR) &= ~I2S_RCSR_SR_MASK;   //clear software reset bit since it's sticky
    4c4c:	f44f 4370 	mov.w	r3, #61440	; 0xf000
    4c50:	f2c4 0302 	movt	r3, #16386	; 0x4002
    4c54:	f44f 4270 	mov.w	r2, #61440	; 0xf000
    4c58:	f2c4 0202 	movt	r2, #16386	; 0x4002
    4c5c:	f8d2 2080 	ldr.w	r2, [r2, #128]	; 0x80
    4c60:	f022 7280 	bic.w	r2, r2, #16777216	; 0x1000000
    4c64:	f8c3 2080 	str.w	r2, [r3, #128]	; 0x80
                }
        }
    else if(port == 1)
        {
        }
}
    4c68:	f107 070c 	add.w	r7, r7, #12
    4c6c:	46bd      	mov	sp, r7
    4c6e:	bc80      	pop	{r7}
    4c70:	4770      	bx	lr
    4c72:	bf00      	nop

00004c74 <sai_interrupt_enable>:
void sai_interrupt_enable
(
    unsigned char   port,
    unsigned char   tx
)
{
    4c74:	b480      	push	{r7}
    4c76:	b083      	sub	sp, #12
    4c78:	af00      	add	r7, sp, #0
    4c7a:	4602      	mov	r2, r0
    4c7c:	460b      	mov	r3, r1
    4c7e:	71fa      	strb	r2, [r7, #7]
    4c80:	71bb      	strb	r3, [r7, #6]
    if(port == 0)
    4c82:	79fb      	ldrb	r3, [r7, #7]
    4c84:	2b00      	cmp	r3, #0
    4c86:	d11d      	bne.n	4cc4 <sai_interrupt_enable+0x50>
        {
            if(tx)
    4c88:	79bb      	ldrb	r3, [r7, #6]
    4c8a:	2b00      	cmp	r3, #0
    4c8c:	d00c      	beq.n	4ca8 <sai_interrupt_enable+0x34>
                {
                    I2S_TCSR_REG(I2S0_BASE_PTR) |= //I2S_TCSR_WSIE_MASK   //word start interrupt enable
    4c8e:	f44f 4370 	mov.w	r3, #61440	; 0xf000
    4c92:	f2c4 0302 	movt	r3, #16386	; 0x4002
    4c96:	f44f 4270 	mov.w	r2, #61440	; 0xf000
    4c9a:	f2c4 0202 	movt	r2, #16386	; 0x4002
    4c9e:	6812      	ldr	r2, [r2, #0]
    4ca0:	f442 7280 	orr.w	r2, r2, #256	; 0x100
    4ca4:	601a      	str	r2, [r3, #0]
    4ca6:	e00d      	b.n	4cc4 <sai_interrupt_enable+0x50>
                        I2S_TCSR_FRIE_MASK;    //FIFO request interrupt enable
                    ;
                }
            else
                {
                    I2S_RCSR_REG(I2S0_BASE_PTR) |= I2S_RCSR_FRIE_MASK;  //word start interrupt enabl	//FIFO request interrupt enable
    4ca8:	f44f 4370 	mov.w	r3, #61440	; 0xf000
    4cac:	f2c4 0302 	movt	r3, #16386	; 0x4002
    4cb0:	f44f 4270 	mov.w	r2, #61440	; 0xf000
    4cb4:	f2c4 0202 	movt	r2, #16386	; 0x4002
    4cb8:	f8d2 2080 	ldr.w	r2, [r2, #128]	; 0x80
    4cbc:	f442 7280 	orr.w	r2, r2, #256	; 0x100
    4cc0:	f8c3 2080 	str.w	r2, [r3, #128]	; 0x80
                }
        }
    else if(port == 1)
        {
        }
}
    4cc4:	f107 070c 	add.w	r7, r7, #12
    4cc8:	46bd      	mov	sp, r7
    4cca:	bc80      	pop	{r7}
    4ccc:	4770      	bx	lr
    4cce:	bf00      	nop

00004cd0 <sai_enable>:
void sai_enable
(
    unsigned char   port,
    unsigned char   tx
)
{
    4cd0:	b480      	push	{r7}
    4cd2:	b083      	sub	sp, #12
    4cd4:	af00      	add	r7, sp, #0
    4cd6:	4602      	mov	r2, r0
    4cd8:	460b      	mov	r3, r1
    4cda:	71fa      	strb	r2, [r7, #7]
    4cdc:	71bb      	strb	r3, [r7, #6]
    if(port == 0)
    4cde:	79fb      	ldrb	r3, [r7, #7]
    4ce0:	2b00      	cmp	r3, #0
    4ce2:	d11d      	bne.n	4d20 <sai_enable+0x50>
        {
            if(tx) I2S_TCSR_REG(I2S0_BASE_PTR) |= I2S_TCSR_TE_MASK; //transmit enable
    4ce4:	79bb      	ldrb	r3, [r7, #6]
    4ce6:	2b00      	cmp	r3, #0
    4ce8:	d00c      	beq.n	4d04 <sai_enable+0x34>
    4cea:	f44f 4370 	mov.w	r3, #61440	; 0xf000
    4cee:	f2c4 0302 	movt	r3, #16386	; 0x4002
    4cf2:	f44f 4270 	mov.w	r2, #61440	; 0xf000
    4cf6:	f2c4 0202 	movt	r2, #16386	; 0x4002
    4cfa:	6812      	ldr	r2, [r2, #0]
    4cfc:	f042 4200 	orr.w	r2, r2, #2147483648	; 0x80000000
    4d00:	601a      	str	r2, [r3, #0]
    4d02:	e00d      	b.n	4d20 <sai_enable+0x50>
            else
                I2S_RCSR_REG(I2S0_BASE_PTR) |= I2S_RCSR_RE_MASK;    //receive enable
    4d04:	f44f 4370 	mov.w	r3, #61440	; 0xf000
    4d08:	f2c4 0302 	movt	r3, #16386	; 0x4002
    4d0c:	f44f 4270 	mov.w	r2, #61440	; 0xf000
    4d10:	f2c4 0202 	movt	r2, #16386	; 0x4002
    4d14:	f8d2 2080 	ldr.w	r2, [r2, #128]	; 0x80
    4d18:	f042 4200 	orr.w	r2, r2, #2147483648	; 0x80000000
    4d1c:	f8c3 2080 	str.w	r2, [r3, #128]	; 0x80
        }
    else if(port == 1)
        {
            //("Error: Port %d is not available yet.",port);
        }
}
    4d20:	f107 070c 	add.w	r7, r7, #12
    4d24:	46bd      	mov	sp, r7
    4d26:	bc80      	pop	{r7}
    4d28:	4770      	bx	lr
    4d2a:	bf00      	nop

00004d2c <sai_watermark_config>:
(
    unsigned char   port,
    unsigned char   tx,
    unsigned char   watermark
)
{
    4d2c:	b480      	push	{r7}
    4d2e:	b083      	sub	sp, #12
    4d30:	af00      	add	r7, sp, #0
    4d32:	4613      	mov	r3, r2
    4d34:	4602      	mov	r2, r0
    4d36:	71fa      	strb	r2, [r7, #7]
    4d38:	460a      	mov	r2, r1
    4d3a:	71ba      	strb	r2, [r7, #6]
    4d3c:	717b      	strb	r3, [r7, #5]
    if(port == 0)
    4d3e:	79fb      	ldrb	r3, [r7, #7]
    4d40:	2b00      	cmp	r3, #0
    4d42:	d110      	bne.n	4d66 <sai_watermark_config+0x3a>
        {
            if(tx) I2S_TCR1_REG(I2S0_BASE_PTR) = watermark; //tx FIFO watermark
    4d44:	79bb      	ldrb	r3, [r7, #6]
    4d46:	2b00      	cmp	r3, #0
    4d48:	d006      	beq.n	4d58 <sai_watermark_config+0x2c>
    4d4a:	f44f 4370 	mov.w	r3, #61440	; 0xf000
    4d4e:	f2c4 0302 	movt	r3, #16386	; 0x4002
    4d52:	797a      	ldrb	r2, [r7, #5]
    4d54:	605a      	str	r2, [r3, #4]
    4d56:	e006      	b.n	4d66 <sai_watermark_config+0x3a>
            else
                I2S_RCR1_REG(I2S0_BASE_PTR) = watermark;    //rx FIFO watermark
    4d58:	f44f 4370 	mov.w	r3, #61440	; 0xf000
    4d5c:	f2c4 0302 	movt	r3, #16386	; 0x4002
    4d60:	797a      	ldrb	r2, [r7, #5]
    4d62:	f8c3 2084 	str.w	r2, [r3, #132]	; 0x84
        }
    else if(port == 1)
        {
        }
}
    4d66:	f107 070c 	add.w	r7, r7, #12
    4d6a:	46bd      	mov	sp, r7
    4d6c:	bc80      	pop	{r7}
    4d6e:	4770      	bx	lr

00004d70 <sai_mode_config>:
    unsigned char   tx,
    unsigned char   mode,
    unsigned char   bcs,
    unsigned char   bci
)
{
    4d70:	b480      	push	{r7}
    4d72:	b083      	sub	sp, #12
    4d74:	af00      	add	r7, sp, #0
    4d76:	71f8      	strb	r0, [r7, #7]
    4d78:	71b9      	strb	r1, [r7, #6]
    4d7a:	717a      	strb	r2, [r7, #5]
    4d7c:	713b      	strb	r3, [r7, #4]
    if(port == 0)
    4d7e:	79fb      	ldrb	r3, [r7, #7]
    4d80:	2b00      	cmp	r3, #0
    4d82:	f040 809a 	bne.w	4eba <sai_mode_config+0x14a>
        {
            if(tx)
    4d86:	79bb      	ldrb	r3, [r7, #6]
    4d88:	2b00      	cmp	r3, #0
    4d8a:	d046      	beq.n	4e1a <sai_mode_config+0xaa>
                {
                    I2S_TCR2_REG(I2S0_BASE_PTR) |= I2S_TCR2_SYNC(mode);         //configure SAI synchronous mode
    4d8c:	f44f 4370 	mov.w	r3, #61440	; 0xf000
    4d90:	f2c4 0302 	movt	r3, #16386	; 0x4002
    4d94:	f44f 4270 	mov.w	r2, #61440	; 0xf000
    4d98:	f2c4 0202 	movt	r2, #16386	; 0x4002
    4d9c:	6891      	ldr	r1, [r2, #8]
    4d9e:	797a      	ldrb	r2, [r7, #5]
    4da0:	ea4f 7282 	mov.w	r2, r2, lsl #30
    4da4:	430a      	orrs	r2, r1
    4da6:	609a      	str	r2, [r3, #8]

                    if(bcs) I2S_TCR2_REG(I2S0_BASE_PTR) |= I2S_TCR2_BCS_MASK;   //bit clock swap
    4da8:	793b      	ldrb	r3, [r7, #4]
    4daa:	2b00      	cmp	r3, #0
    4dac:	d00c      	beq.n	4dc8 <sai_mode_config+0x58>
    4dae:	f44f 4370 	mov.w	r3, #61440	; 0xf000
    4db2:	f2c4 0302 	movt	r3, #16386	; 0x4002
    4db6:	f44f 4270 	mov.w	r2, #61440	; 0xf000
    4dba:	f2c4 0202 	movt	r2, #16386	; 0x4002
    4dbe:	6892      	ldr	r2, [r2, #8]
    4dc0:	f042 5200 	orr.w	r2, r2, #536870912	; 0x20000000
    4dc4:	609a      	str	r2, [r3, #8]
    4dc6:	e00b      	b.n	4de0 <sai_mode_config+0x70>
                    else
                        I2S_TCR2_REG(I2S0_BASE_PTR) &= ~I2S_TCR2_BCS_MASK;
    4dc8:	f44f 4370 	mov.w	r3, #61440	; 0xf000
    4dcc:	f2c4 0302 	movt	r3, #16386	; 0x4002
    4dd0:	f44f 4270 	mov.w	r2, #61440	; 0xf000
    4dd4:	f2c4 0202 	movt	r2, #16386	; 0x4002
    4dd8:	6892      	ldr	r2, [r2, #8]
    4dda:	f022 5200 	bic.w	r2, r2, #536870912	; 0x20000000
    4dde:	609a      	str	r2, [r3, #8]

                    if(bci) I2S_TCR2_REG(I2S0_BASE_PTR) |= I2S_TCR2_BCI_MASK;   //internal logic clocked by external bit clock
    4de0:	7c3b      	ldrb	r3, [r7, #16]
    4de2:	2b00      	cmp	r3, #0
    4de4:	d00c      	beq.n	4e00 <sai_mode_config+0x90>
    4de6:	f44f 4370 	mov.w	r3, #61440	; 0xf000
    4dea:	f2c4 0302 	movt	r3, #16386	; 0x4002
    4dee:	f44f 4270 	mov.w	r2, #61440	; 0xf000
    4df2:	f2c4 0202 	movt	r2, #16386	; 0x4002
    4df6:	6892      	ldr	r2, [r2, #8]
    4df8:	f042 5280 	orr.w	r2, r2, #268435456	; 0x10000000
    4dfc:	609a      	str	r2, [r3, #8]
    4dfe:	e05c      	b.n	4eba <sai_mode_config+0x14a>
                    else
                        I2S_TCR2_REG(I2S0_BASE_PTR) &= ~I2S_TCR2_BCI_MASK;
    4e00:	f44f 4370 	mov.w	r3, #61440	; 0xf000
    4e04:	f2c4 0302 	movt	r3, #16386	; 0x4002
    4e08:	f44f 4270 	mov.w	r2, #61440	; 0xf000
    4e0c:	f2c4 0202 	movt	r2, #16386	; 0x4002
    4e10:	6892      	ldr	r2, [r2, #8]
    4e12:	f022 5280 	bic.w	r2, r2, #268435456	; 0x10000000
    4e16:	609a      	str	r2, [r3, #8]
    4e18:	e04f      	b.n	4eba <sai_mode_config+0x14a>
                }
            else
                {
                    I2S_RCR2_REG(I2S0_BASE_PTR) |= I2S_RCR2_SYNC(mode);         //configure SAI synchronous mode
    4e1a:	f44f 4370 	mov.w	r3, #61440	; 0xf000
    4e1e:	f2c4 0302 	movt	r3, #16386	; 0x4002
    4e22:	f44f 4270 	mov.w	r2, #61440	; 0xf000
    4e26:	f2c4 0202 	movt	r2, #16386	; 0x4002
    4e2a:	f8d2 1088 	ldr.w	r1, [r2, #136]	; 0x88
    4e2e:	797a      	ldrb	r2, [r7, #5]
    4e30:	ea4f 7282 	mov.w	r2, r2, lsl #30
    4e34:	430a      	orrs	r2, r1
    4e36:	f8c3 2088 	str.w	r2, [r3, #136]	; 0x88

                    if(bcs) I2S_RCR2_REG(I2S0_BASE_PTR) |= I2S_RCR2_BCS_MASK;   //bit clock swap
    4e3a:	793b      	ldrb	r3, [r7, #4]
    4e3c:	2b00      	cmp	r3, #0
    4e3e:	d00e      	beq.n	4e5e <sai_mode_config+0xee>
    4e40:	f44f 4370 	mov.w	r3, #61440	; 0xf000
    4e44:	f2c4 0302 	movt	r3, #16386	; 0x4002
    4e48:	f44f 4270 	mov.w	r2, #61440	; 0xf000
    4e4c:	f2c4 0202 	movt	r2, #16386	; 0x4002
    4e50:	f8d2 2088 	ldr.w	r2, [r2, #136]	; 0x88
    4e54:	f042 5200 	orr.w	r2, r2, #536870912	; 0x20000000
    4e58:	f8c3 2088 	str.w	r2, [r3, #136]	; 0x88
    4e5c:	e00d      	b.n	4e7a <sai_mode_config+0x10a>
                    else
                        I2S_RCR2_REG(I2S0_BASE_PTR) &= ~I2S_RCR2_BCS_MASK;
    4e5e:	f44f 4370 	mov.w	r3, #61440	; 0xf000
    4e62:	f2c4 0302 	movt	r3, #16386	; 0x4002
    4e66:	f44f 4270 	mov.w	r2, #61440	; 0xf000
    4e6a:	f2c4 0202 	movt	r2, #16386	; 0x4002
    4e6e:	f8d2 2088 	ldr.w	r2, [r2, #136]	; 0x88
    4e72:	f022 5200 	bic.w	r2, r2, #536870912	; 0x20000000
    4e76:	f8c3 2088 	str.w	r2, [r3, #136]	; 0x88

                    if(bci) I2S_RCR2_REG(I2S0_BASE_PTR) |= I2S_RCR2_BCI_MASK;   //internal logic clocked by external bit clock
    4e7a:	7c3b      	ldrb	r3, [r7, #16]
    4e7c:	2b00      	cmp	r3, #0
    4e7e:	d00e      	beq.n	4e9e <sai_mode_config+0x12e>
    4e80:	f44f 4370 	mov.w	r3, #61440	; 0xf000
    4e84:	f2c4 0302 	movt	r3, #16386	; 0x4002
    4e88:	f44f 4270 	mov.w	r2, #61440	; 0xf000
    4e8c:	f2c4 0202 	movt	r2, #16386	; 0x4002
    4e90:	f8d2 2088 	ldr.w	r2, [r2, #136]	; 0x88
    4e94:	f042 5280 	orr.w	r2, r2, #268435456	; 0x10000000
    4e98:	f8c3 2088 	str.w	r2, [r3, #136]	; 0x88
    4e9c:	e00d      	b.n	4eba <sai_mode_config+0x14a>
                    else
                        I2S_RCR2_REG(I2S0_BASE_PTR) &= ~I2S_RCR2_BCI_MASK;
    4e9e:	f44f 4370 	mov.w	r3, #61440	; 0xf000
    4ea2:	f2c4 0302 	movt	r3, #16386	; 0x4002
    4ea6:	f44f 4270 	mov.w	r2, #61440	; 0xf000
    4eaa:	f2c4 0202 	movt	r2, #16386	; 0x4002
    4eae:	f8d2 2088 	ldr.w	r2, [r2, #136]	; 0x88
    4eb2:	f022 5280 	bic.w	r2, r2, #268435456	; 0x10000000
    4eb6:	f8c3 2088 	str.w	r2, [r3, #136]	; 0x88
                }
        }
    else if(port == 1)
        {
        }
}
    4eba:	f107 070c 	add.w	r7, r7, #12
    4ebe:	46bd      	mov	sp, r7
    4ec0:	bc80      	pop	{r7}
    4ec2:	4770      	bx	lr

00004ec4 <sai_bclk_config>:
    unsigned char   mclksel,
    unsigned char   bclkpol,
    unsigned char   bclkdir,
    unsigned char   bclkdiv
)
{
    4ec4:	b480      	push	{r7}
    4ec6:	b083      	sub	sp, #12
    4ec8:	af00      	add	r7, sp, #0
    4eca:	71f8      	strb	r0, [r7, #7]
    4ecc:	71b9      	strb	r1, [r7, #6]
    4ece:	717a      	strb	r2, [r7, #5]
    4ed0:	713b      	strb	r3, [r7, #4]
    if(port == 0)
    4ed2:	79fb      	ldrb	r3, [r7, #7]
    4ed4:	2b00      	cmp	r3, #0
    4ed6:	f040 80d6 	bne.w	5086 <sai_bclk_config+0x1c2>
        {
            /* SAI0 init */
            if(tx)
    4eda:	79bb      	ldrb	r3, [r7, #6]
    4edc:	2b00      	cmp	r3, #0
    4ede:	d062      	beq.n	4fa6 <sai_bclk_config+0xe2>
                {
                    I2S_TCR2_REG(I2S0_BASE_PTR) &= ~I2S_TCR2_MSEL_MASK;     //clear master clock select
    4ee0:	f44f 4370 	mov.w	r3, #61440	; 0xf000
    4ee4:	f2c4 0302 	movt	r3, #16386	; 0x4002
    4ee8:	f44f 4270 	mov.w	r2, #61440	; 0xf000
    4eec:	f2c4 0202 	movt	r2, #16386	; 0x4002
    4ef0:	6892      	ldr	r2, [r2, #8]
    4ef2:	f022 6240 	bic.w	r2, r2, #201326592	; 0xc000000
    4ef6:	609a      	str	r2, [r3, #8]
                    I2S_TCR2_REG(I2S0_BASE_PTR) &= ~I2S_TCR2_DIV_MASK;      //divide down master clock to generate bit clock
    4ef8:	f44f 4370 	mov.w	r3, #61440	; 0xf000
    4efc:	f2c4 0302 	movt	r3, #16386	; 0x4002
    4f00:	f44f 4270 	mov.w	r2, #61440	; 0xf000
    4f04:	f2c4 0202 	movt	r2, #16386	; 0x4002
    4f08:	6892      	ldr	r2, [r2, #8]
    4f0a:	f022 02ff 	bic.w	r2, r2, #255	; 0xff
    4f0e:	609a      	str	r2, [r3, #8]
                    I2S_TCR2_REG(I2S0_BASE_PTR) |= I2S_TCR2_MSEL(mclksel)   //master clock select
    4f10:	f44f 4370 	mov.w	r3, #61440	; 0xf000
    4f14:	f2c4 0302 	movt	r3, #16386	; 0x4002
    4f18:	f44f 4270 	mov.w	r2, #61440	; 0xf000
    4f1c:	f2c4 0202 	movt	r2, #16386	; 0x4002
    4f20:	6891      	ldr	r1, [r2, #8]
    4f22:	797a      	ldrb	r2, [r7, #5]
    4f24:	ea4f 6282 	mov.w	r2, r2, lsl #26
    4f28:	f002 6040 	and.w	r0, r2, #201326592	; 0xc000000
                                                   | I2S_TCR2_DIV(bclkdiv) //divide down master clock to generate bit clock
    4f2c:	7d3a      	ldrb	r2, [r7, #20]
    4f2e:	4302      	orrs	r2, r0
            /* SAI0 init */
            if(tx)
                {
                    I2S_TCR2_REG(I2S0_BASE_PTR) &= ~I2S_TCR2_MSEL_MASK;     //clear master clock select
                    I2S_TCR2_REG(I2S0_BASE_PTR) &= ~I2S_TCR2_DIV_MASK;      //divide down master clock to generate bit clock
                    I2S_TCR2_REG(I2S0_BASE_PTR) |= I2S_TCR2_MSEL(mclksel)   //master clock select
    4f30:	430a      	orrs	r2, r1
    4f32:	609a      	str	r2, [r3, #8]
                                                   | I2S_TCR2_DIV(bclkdiv) //divide down master clock to generate bit clock
                                                   ;

                    if(bclkpol) I2S_TCR2_REG(I2S0_BASE_PTR) |= I2S_TCR2_BCP_MASK;   //bit clock is active low
    4f34:	793b      	ldrb	r3, [r7, #4]
    4f36:	2b00      	cmp	r3, #0
    4f38:	d00c      	beq.n	4f54 <sai_bclk_config+0x90>
    4f3a:	f44f 4370 	mov.w	r3, #61440	; 0xf000
    4f3e:	f2c4 0302 	movt	r3, #16386	; 0x4002
    4f42:	f44f 4270 	mov.w	r2, #61440	; 0xf000
    4f46:	f2c4 0202 	movt	r2, #16386	; 0x4002
    4f4a:	6892      	ldr	r2, [r2, #8]
    4f4c:	f042 7200 	orr.w	r2, r2, #33554432	; 0x2000000
    4f50:	609a      	str	r2, [r3, #8]
    4f52:	e00b      	b.n	4f6c <sai_bclk_config+0xa8>
                    else
                        I2S_TCR2_REG(I2S0_BASE_PTR) &= ~I2S_TCR2_BCP_MASK;          //bit clock is active high
    4f54:	f44f 4370 	mov.w	r3, #61440	; 0xf000
    4f58:	f2c4 0302 	movt	r3, #16386	; 0x4002
    4f5c:	f44f 4270 	mov.w	r2, #61440	; 0xf000
    4f60:	f2c4 0202 	movt	r2, #16386	; 0x4002
    4f64:	6892      	ldr	r2, [r2, #8]
    4f66:	f022 7200 	bic.w	r2, r2, #33554432	; 0x2000000
    4f6a:	609a      	str	r2, [r3, #8]

                    if(bclkdir) I2S_TCR2_REG(I2S0_BASE_PTR) |= I2S_TCR2_BCD_MASK;   //bit clock generated internally, master mode
    4f6c:	7c3b      	ldrb	r3, [r7, #16]
    4f6e:	2b00      	cmp	r3, #0
    4f70:	d00c      	beq.n	4f8c <sai_bclk_config+0xc8>
    4f72:	f44f 4370 	mov.w	r3, #61440	; 0xf000
    4f76:	f2c4 0302 	movt	r3, #16386	; 0x4002
    4f7a:	f44f 4270 	mov.w	r2, #61440	; 0xf000
    4f7e:	f2c4 0202 	movt	r2, #16386	; 0x4002
    4f82:	6892      	ldr	r2, [r2, #8]
    4f84:	f042 7280 	orr.w	r2, r2, #16777216	; 0x1000000
    4f88:	609a      	str	r2, [r3, #8]
    4f8a:	e07c      	b.n	5086 <sai_bclk_config+0x1c2>
                    else
                        I2S_TCR2_REG(I2S0_BASE_PTR) &= ~I2S_TCR2_BCD_MASK;          //bit clock generated externally, slave mode
    4f8c:	f44f 4370 	mov.w	r3, #61440	; 0xf000
    4f90:	f2c4 0302 	movt	r3, #16386	; 0x4002
    4f94:	f44f 4270 	mov.w	r2, #61440	; 0xf000
    4f98:	f2c4 0202 	movt	r2, #16386	; 0x4002
    4f9c:	6892      	ldr	r2, [r2, #8]
    4f9e:	f022 7280 	bic.w	r2, r2, #16777216	; 0x1000000
    4fa2:	609a      	str	r2, [r3, #8]
    4fa4:	e06f      	b.n	5086 <sai_bclk_config+0x1c2>
                }
            else
                {
                    I2S_RCR2_REG(I2S0_BASE_PTR) &= ~I2S_RCR2_MSEL_MASK;             //clear master clock select
    4fa6:	f44f 4370 	mov.w	r3, #61440	; 0xf000
    4faa:	f2c4 0302 	movt	r3, #16386	; 0x4002
    4fae:	f44f 4270 	mov.w	r2, #61440	; 0xf000
    4fb2:	f2c4 0202 	movt	r2, #16386	; 0x4002
    4fb6:	f8d2 2088 	ldr.w	r2, [r2, #136]	; 0x88
    4fba:	f022 6240 	bic.w	r2, r2, #201326592	; 0xc000000
    4fbe:	f8c3 2088 	str.w	r2, [r3, #136]	; 0x88
                    I2S_RCR2_REG(I2S0_BASE_PTR) &= ~I2S_RCR2_DIV_MASK;              //divide down master clock to generate bit clock
    4fc2:	f44f 4370 	mov.w	r3, #61440	; 0xf000
    4fc6:	f2c4 0302 	movt	r3, #16386	; 0x4002
    4fca:	f44f 4270 	mov.w	r2, #61440	; 0xf000
    4fce:	f2c4 0202 	movt	r2, #16386	; 0x4002
    4fd2:	f8d2 2088 	ldr.w	r2, [r2, #136]	; 0x88
    4fd6:	f022 02ff 	bic.w	r2, r2, #255	; 0xff
    4fda:	f8c3 2088 	str.w	r2, [r3, #136]	; 0x88
                    I2S_RCR2_REG(I2S0_BASE_PTR) |= I2S_RCR2_MSEL(mclksel)           //master clock select
    4fde:	f44f 4370 	mov.w	r3, #61440	; 0xf000
    4fe2:	f2c4 0302 	movt	r3, #16386	; 0x4002
    4fe6:	f44f 4270 	mov.w	r2, #61440	; 0xf000
    4fea:	f2c4 0202 	movt	r2, #16386	; 0x4002
    4fee:	f8d2 1088 	ldr.w	r1, [r2, #136]	; 0x88
    4ff2:	797a      	ldrb	r2, [r7, #5]
    4ff4:	ea4f 6282 	mov.w	r2, r2, lsl #26
    4ff8:	f002 6040 	and.w	r0, r2, #201326592	; 0xc000000
                                                   | I2S_RCR2_DIV(bclkdiv) //divide down master clock to generate bit clock
    4ffc:	7d3a      	ldrb	r2, [r7, #20]
    4ffe:	4302      	orrs	r2, r0
                }
            else
                {
                    I2S_RCR2_REG(I2S0_BASE_PTR) &= ~I2S_RCR2_MSEL_MASK;             //clear master clock select
                    I2S_RCR2_REG(I2S0_BASE_PTR) &= ~I2S_RCR2_DIV_MASK;              //divide down master clock to generate bit clock
                    I2S_RCR2_REG(I2S0_BASE_PTR) |= I2S_RCR2_MSEL(mclksel)           //master clock select
    5000:	430a      	orrs	r2, r1
    5002:	f8c3 2088 	str.w	r2, [r3, #136]	; 0x88
                                                   | I2S_RCR2_DIV(bclkdiv) //divide down master clock to generate bit clock
                                                   ;

                    if(bclkpol) I2S_RCR2_REG(I2S0_BASE_PTR) |= I2S_RCR2_BCP_MASK;   //bit clock is active low
    5006:	793b      	ldrb	r3, [r7, #4]
    5008:	2b00      	cmp	r3, #0
    500a:	d00e      	beq.n	502a <sai_bclk_config+0x166>
    500c:	f44f 4370 	mov.w	r3, #61440	; 0xf000
    5010:	f2c4 0302 	movt	r3, #16386	; 0x4002
    5014:	f44f 4270 	mov.w	r2, #61440	; 0xf000
    5018:	f2c4 0202 	movt	r2, #16386	; 0x4002
    501c:	f8d2 2088 	ldr.w	r2, [r2, #136]	; 0x88
    5020:	f042 7200 	orr.w	r2, r2, #33554432	; 0x2000000
    5024:	f8c3 2088 	str.w	r2, [r3, #136]	; 0x88
    5028:	e00d      	b.n	5046 <sai_bclk_config+0x182>
                    else
                        I2S_RCR2_REG(I2S0_BASE_PTR) &= ~I2S_RCR2_BCP_MASK;          //bit clock is active high
    502a:	f44f 4370 	mov.w	r3, #61440	; 0xf000
    502e:	f2c4 0302 	movt	r3, #16386	; 0x4002
    5032:	f44f 4270 	mov.w	r2, #61440	; 0xf000
    5036:	f2c4 0202 	movt	r2, #16386	; 0x4002
    503a:	f8d2 2088 	ldr.w	r2, [r2, #136]	; 0x88
    503e:	f022 7200 	bic.w	r2, r2, #33554432	; 0x2000000
    5042:	f8c3 2088 	str.w	r2, [r3, #136]	; 0x88

                    if(bclkdir) I2S_RCR2_REG(I2S0_BASE_PTR) |= I2S_RCR2_BCD_MASK;   //bit clock generated internally, master mode
    5046:	7c3b      	ldrb	r3, [r7, #16]
    5048:	2b00      	cmp	r3, #0
    504a:	d00e      	beq.n	506a <sai_bclk_config+0x1a6>
    504c:	f44f 4370 	mov.w	r3, #61440	; 0xf000
    5050:	f2c4 0302 	movt	r3, #16386	; 0x4002
    5054:	f44f 4270 	mov.w	r2, #61440	; 0xf000
    5058:	f2c4 0202 	movt	r2, #16386	; 0x4002
    505c:	f8d2 2088 	ldr.w	r2, [r2, #136]	; 0x88
    5060:	f042 7280 	orr.w	r2, r2, #16777216	; 0x1000000
    5064:	f8c3 2088 	str.w	r2, [r3, #136]	; 0x88
    5068:	e00d      	b.n	5086 <sai_bclk_config+0x1c2>
                    else
                        I2S_RCR2_REG(I2S0_BASE_PTR) &= ~I2S_RCR2_BCD_MASK;          //bit clock generated externally, slave mode
    506a:	f44f 4370 	mov.w	r3, #61440	; 0xf000
    506e:	f2c4 0302 	movt	r3, #16386	; 0x4002
    5072:	f44f 4270 	mov.w	r2, #61440	; 0xf000
    5076:	f2c4 0202 	movt	r2, #16386	; 0x4002
    507a:	f8d2 2088 	ldr.w	r2, [r2, #136]	; 0x88
    507e:	f022 7280 	bic.w	r2, r2, #16777216	; 0x1000000
    5082:	f8c3 2088 	str.w	r2, [r3, #136]	; 0x88
    else if(port == 1)
        {
            /* SAI1 init */
            //("Error: Port %d is not available yet.",port);
        }
}
    5086:	f107 070c 	add.w	r7, r7, #12
    508a:	46bd      	mov	sp, r7
    508c:	bc80      	pop	{r7}
    508e:	4770      	bx	lr

00005090 <sai_bclk_en>:
void sai_bclk_en
(
    unsigned char   port,
    unsigned        tx
)
{
    5090:	b480      	push	{r7}
    5092:	b083      	sub	sp, #12
    5094:	af00      	add	r7, sp, #0
    5096:	4603      	mov	r3, r0
    5098:	6039      	str	r1, [r7, #0]
    509a:	71fb      	strb	r3, [r7, #7]
    if(port == 0)
    509c:	79fb      	ldrb	r3, [r7, #7]
    509e:	2b00      	cmp	r3, #0
    50a0:	d11d      	bne.n	50de <sai_bclk_en+0x4e>
        {
            if(tx) I2S_TCSR_REG(I2S0_BASE_PTR) |= I2S_TCSR_BCE_MASK;    //transmit enable
    50a2:	683b      	ldr	r3, [r7, #0]
    50a4:	2b00      	cmp	r3, #0
    50a6:	d00c      	beq.n	50c2 <sai_bclk_en+0x32>
    50a8:	f44f 4370 	mov.w	r3, #61440	; 0xf000
    50ac:	f2c4 0302 	movt	r3, #16386	; 0x4002
    50b0:	f44f 4270 	mov.w	r2, #61440	; 0xf000
    50b4:	f2c4 0202 	movt	r2, #16386	; 0x4002
    50b8:	6812      	ldr	r2, [r2, #0]
    50ba:	f042 5280 	orr.w	r2, r2, #268435456	; 0x10000000
    50be:	601a      	str	r2, [r3, #0]
    50c0:	e00d      	b.n	50de <sai_bclk_en+0x4e>
            else
                I2S_RCSR_REG(I2S0_BASE_PTR) |= I2S_RCSR_BCE_MASK;       //receive enable
    50c2:	f44f 4370 	mov.w	r3, #61440	; 0xf000
    50c6:	f2c4 0302 	movt	r3, #16386	; 0x4002
    50ca:	f44f 4270 	mov.w	r2, #61440	; 0xf000
    50ce:	f2c4 0202 	movt	r2, #16386	; 0x4002
    50d2:	f8d2 2080 	ldr.w	r2, [r2, #128]	; 0x80
    50d6:	f042 5280 	orr.w	r2, r2, #268435456	; 0x10000000
    50da:	f8c3 2080 	str.w	r2, [r3, #128]	; 0x80
        }
    else if(port == 1)
        {
            //("Error: Port %d is not available yet.",port);
        }
}
    50de:	f107 070c 	add.w	r7, r7, #12
    50e2:	46bd      	mov	sp, r7
    50e4:	bc80      	pop	{r7}
    50e6:	4770      	bx	lr

000050e8 <sai_channel_enable>:
(
    unsigned char   port,
    unsigned char   tx,
    unsigned char   chen
)
{
    50e8:	b480      	push	{r7}
    50ea:	b083      	sub	sp, #12
    50ec:	af00      	add	r7, sp, #0
    50ee:	4613      	mov	r3, r2
    50f0:	4602      	mov	r2, r0
    50f2:	71fa      	strb	r2, [r7, #7]
    50f4:	460a      	mov	r2, r1
    50f6:	71ba      	strb	r2, [r7, #6]
    50f8:	717b      	strb	r3, [r7, #5]
    if(port == 0)
    50fa:	79fb      	ldrb	r3, [r7, #7]
    50fc:	2b00      	cmp	r3, #0
    50fe:	d125      	bne.n	514c <sai_channel_enable+0x64>
        {
            if(tx) I2S_TCR3_REG(I2S0_BASE_PTR) |= I2S_TCR3_TCE(chen);   //tx channel enable
    5100:	79bb      	ldrb	r3, [r7, #6]
    5102:	2b00      	cmp	r3, #0
    5104:	d010      	beq.n	5128 <sai_channel_enable+0x40>
    5106:	f44f 4370 	mov.w	r3, #61440	; 0xf000
    510a:	f2c4 0302 	movt	r3, #16386	; 0x4002
    510e:	f44f 4270 	mov.w	r2, #61440	; 0xf000
    5112:	f2c4 0202 	movt	r2, #16386	; 0x4002
    5116:	68d1      	ldr	r1, [r2, #12]
    5118:	797a      	ldrb	r2, [r7, #5]
    511a:	ea4f 4202 	mov.w	r2, r2, lsl #16
    511e:	f402 3240 	and.w	r2, r2, #196608	; 0x30000
    5122:	430a      	orrs	r2, r1
    5124:	60da      	str	r2, [r3, #12]
    5126:	e011      	b.n	514c <sai_channel_enable+0x64>
            else
                I2S_RCR3_REG(I2S0_BASE_PTR) |= I2S_RCR3_RCE(chen);      //rx channel enable
    5128:	f44f 4370 	mov.w	r3, #61440	; 0xf000
    512c:	f2c4 0302 	movt	r3, #16386	; 0x4002
    5130:	f44f 4270 	mov.w	r2, #61440	; 0xf000
    5134:	f2c4 0202 	movt	r2, #16386	; 0x4002
    5138:	f8d2 108c 	ldr.w	r1, [r2, #140]	; 0x8c
    513c:	797a      	ldrb	r2, [r7, #5]
    513e:	ea4f 4202 	mov.w	r2, r2, lsl #16
    5142:	f402 3240 	and.w	r2, r2, #196608	; 0x30000
    5146:	430a      	orrs	r2, r1
    5148:	f8c3 208c 	str.w	r2, [r3, #140]	; 0x8c
        }
    else if(port == 1)
        {
            //	("Error: Port %d is not available yet.",port);
        }
}
    514c:	f107 070c 	add.w	r7, r7, #12
    5150:	46bd      	mov	sp, r7
    5152:	bc80      	pop	{r7}
    5154:	4770      	bx	lr
    5156:	bf00      	nop

00005158 <sai_word_flg_config>:
(
    unsigned char   port,
    unsigned char   tx,
    unsigned char   wdfl
)
{
    5158:	b480      	push	{r7}
    515a:	b083      	sub	sp, #12
    515c:	af00      	add	r7, sp, #0
    515e:	4613      	mov	r3, r2
    5160:	4602      	mov	r2, r0
    5162:	71fa      	strb	r2, [r7, #7]
    5164:	460a      	mov	r2, r1
    5166:	71ba      	strb	r2, [r7, #6]
    5168:	717b      	strb	r3, [r7, #5]
    if(port == 0)
    516a:	79fb      	ldrb	r3, [r7, #7]
    516c:	2b00      	cmp	r3, #0
    516e:	d121      	bne.n	51b4 <sai_word_flg_config+0x5c>
        {
            if(tx) I2S_TCR3_REG(I2S0_BASE_PTR) |= I2S_TCR3_WDFL(wdfl);  //word flag config
    5170:	79bb      	ldrb	r3, [r7, #6]
    5172:	2b00      	cmp	r3, #0
    5174:	d00e      	beq.n	5194 <sai_word_flg_config+0x3c>
    5176:	f44f 4370 	mov.w	r3, #61440	; 0xf000
    517a:	f2c4 0302 	movt	r3, #16386	; 0x4002
    517e:	f44f 4270 	mov.w	r2, #61440	; 0xf000
    5182:	f2c4 0202 	movt	r2, #16386	; 0x4002
    5186:	68d1      	ldr	r1, [r2, #12]
    5188:	797a      	ldrb	r2, [r7, #5]
    518a:	f002 021f 	and.w	r2, r2, #31
    518e:	430a      	orrs	r2, r1
    5190:	60da      	str	r2, [r3, #12]
    5192:	e00f      	b.n	51b4 <sai_word_flg_config+0x5c>
            else
                I2S_RCR3_REG(I2S0_BASE_PTR) |= I2S_RCR3_WDFL(wdfl);     //word flag config
    5194:	f44f 4370 	mov.w	r3, #61440	; 0xf000
    5198:	f2c4 0302 	movt	r3, #16386	; 0x4002
    519c:	f44f 4270 	mov.w	r2, #61440	; 0xf000
    51a0:	f2c4 0202 	movt	r2, #16386	; 0x4002
    51a4:	f8d2 108c 	ldr.w	r1, [r2, #140]	; 0x8c
    51a8:	797a      	ldrb	r2, [r7, #5]
    51aa:	f002 021f 	and.w	r2, r2, #31
    51ae:	430a      	orrs	r2, r1
    51b0:	f8c3 208c 	str.w	r2, [r3, #140]	; 0x8c
        }
    else if(port == 1)
        {
        }
}
    51b4:	f107 070c 	add.w	r7, r7, #12
    51b8:	46bd      	mov	sp, r7
    51ba:	bc80      	pop	{r7}
    51bc:	4770      	bx	lr
    51be:	bf00      	nop

000051c0 <sai_frame_config>:
    unsigned char   tx,
    unsigned char   framesize,
    unsigned char   sywd,
    unsigned char   mf
)
{
    51c0:	b480      	push	{r7}
    51c2:	b083      	sub	sp, #12
    51c4:	af00      	add	r7, sp, #0
    51c6:	71f8      	strb	r0, [r7, #7]
    51c8:	71b9      	strb	r1, [r7, #6]
    51ca:	717a      	strb	r2, [r7, #5]
    51cc:	713b      	strb	r3, [r7, #4]
    if(port == 0)
    51ce:	79fb      	ldrb	r3, [r7, #7]
    51d0:	2b00      	cmp	r3, #0
    51d2:	f040 80a2 	bne.w	531a <sai_frame_config+0x15a>
        {
            if(tx)
    51d6:	79bb      	ldrb	r3, [r7, #6]
    51d8:	2b00      	cmp	r3, #0
    51da:	d04a      	beq.n	5272 <sai_frame_config+0xb2>
                {
                    I2S_TCR4_REG(I2S0_BASE_PTR) &= ~I2S_TCR4_FRSZ_MASK;
    51dc:	f44f 4370 	mov.w	r3, #61440	; 0xf000
    51e0:	f2c4 0302 	movt	r3, #16386	; 0x4002
    51e4:	f44f 4270 	mov.w	r2, #61440	; 0xf000
    51e8:	f2c4 0202 	movt	r2, #16386	; 0x4002
    51ec:	6912      	ldr	r2, [r2, #16]
    51ee:	f422 12f8 	bic.w	r2, r2, #2031616	; 0x1f0000
    51f2:	611a      	str	r2, [r3, #16]
                    I2S_TCR4_REG(I2S0_BASE_PTR) &= ~I2S_TCR4_SYWD_MASK;
    51f4:	f44f 4370 	mov.w	r3, #61440	; 0xf000
    51f8:	f2c4 0302 	movt	r3, #16386	; 0x4002
    51fc:	f44f 4270 	mov.w	r2, #61440	; 0xf000
    5200:	f2c4 0202 	movt	r2, #16386	; 0x4002
    5204:	6912      	ldr	r2, [r2, #16]
    5206:	f422 52f8 	bic.w	r2, r2, #7936	; 0x1f00
    520a:	611a      	str	r2, [r3, #16]
                    I2S_TCR4_REG(I2S0_BASE_PTR) |= I2S_TCR4_FRSZ(framesize) //configure number of words in each frame
    520c:	f44f 4370 	mov.w	r3, #61440	; 0xf000
    5210:	f2c4 0302 	movt	r3, #16386	; 0x4002
    5214:	f44f 4270 	mov.w	r2, #61440	; 0xf000
    5218:	f2c4 0202 	movt	r2, #16386	; 0x4002
    521c:	6911      	ldr	r1, [r2, #16]
    521e:	797a      	ldrb	r2, [r7, #5]
    5220:	ea4f 4202 	mov.w	r2, r2, lsl #16
    5224:	f402 10f8 	and.w	r0, r2, #2031616	; 0x1f0000
                                                   | I2S_TCR4_SYWD(sywd)   //configure length of the frame sync in number of bit clocks
    5228:	793a      	ldrb	r2, [r7, #4]
    522a:	ea4f 2202 	mov.w	r2, r2, lsl #8
    522e:	f402 52f8 	and.w	r2, r2, #7936	; 0x1f00
    5232:	4302      	orrs	r2, r0
        {
            if(tx)
                {
                    I2S_TCR4_REG(I2S0_BASE_PTR) &= ~I2S_TCR4_FRSZ_MASK;
                    I2S_TCR4_REG(I2S0_BASE_PTR) &= ~I2S_TCR4_SYWD_MASK;
                    I2S_TCR4_REG(I2S0_BASE_PTR) |= I2S_TCR4_FRSZ(framesize) //configure number of words in each frame
    5234:	430a      	orrs	r2, r1
    5236:	611a      	str	r2, [r3, #16]
                                                   | I2S_TCR4_SYWD(sywd)   //configure length of the frame sync in number of bit clocks
                                                   ;

                    if(mf) I2S_TCR4_REG(I2S0_BASE_PTR) |= I2S_TCR4_MF_MASK; //MSB transmit first
    5238:	7c3b      	ldrb	r3, [r7, #16]
    523a:	2b00      	cmp	r3, #0
    523c:	d00c      	beq.n	5258 <sai_frame_config+0x98>
    523e:	f44f 4370 	mov.w	r3, #61440	; 0xf000
    5242:	f2c4 0302 	movt	r3, #16386	; 0x4002
    5246:	f44f 4270 	mov.w	r2, #61440	; 0xf000
    524a:	f2c4 0202 	movt	r2, #16386	; 0x4002
    524e:	6912      	ldr	r2, [r2, #16]
    5250:	f042 0210 	orr.w	r2, r2, #16
    5254:	611a      	str	r2, [r3, #16]
    5256:	e060      	b.n	531a <sai_frame_config+0x15a>
                    else
                        I2S_TCR4_REG(I2S0_BASE_PTR) &= ~I2S_TCR4_MF_MASK;   //LSB transmit first
    5258:	f44f 4370 	mov.w	r3, #61440	; 0xf000
    525c:	f2c4 0302 	movt	r3, #16386	; 0x4002
    5260:	f44f 4270 	mov.w	r2, #61440	; 0xf000
    5264:	f2c4 0202 	movt	r2, #16386	; 0x4002
    5268:	6912      	ldr	r2, [r2, #16]
    526a:	f022 0210 	bic.w	r2, r2, #16
    526e:	611a      	str	r2, [r3, #16]
    5270:	e053      	b.n	531a <sai_frame_config+0x15a>
                }
            else
                {
                    I2S_RCR4_REG(I2S0_BASE_PTR) &= ~I2S_RCR4_FRSZ_MASK;
    5272:	f44f 4370 	mov.w	r3, #61440	; 0xf000
    5276:	f2c4 0302 	movt	r3, #16386	; 0x4002
    527a:	f44f 4270 	mov.w	r2, #61440	; 0xf000
    527e:	f2c4 0202 	movt	r2, #16386	; 0x4002
    5282:	f8d2 2090 	ldr.w	r2, [r2, #144]	; 0x90
    5286:	f422 12f8 	bic.w	r2, r2, #2031616	; 0x1f0000
    528a:	f8c3 2090 	str.w	r2, [r3, #144]	; 0x90
                    I2S_RCR4_REG(I2S0_BASE_PTR) &= ~I2S_RCR4_SYWD_MASK;
    528e:	f44f 4370 	mov.w	r3, #61440	; 0xf000
    5292:	f2c4 0302 	movt	r3, #16386	; 0x4002
    5296:	f44f 4270 	mov.w	r2, #61440	; 0xf000
    529a:	f2c4 0202 	movt	r2, #16386	; 0x4002
    529e:	f8d2 2090 	ldr.w	r2, [r2, #144]	; 0x90
    52a2:	f422 52f8 	bic.w	r2, r2, #7936	; 0x1f00
    52a6:	f8c3 2090 	str.w	r2, [r3, #144]	; 0x90
                    I2S_RCR4_REG(I2S0_BASE_PTR) |= I2S_RCR4_FRSZ(framesize) //configure number of words in each frame
    52aa:	f44f 4370 	mov.w	r3, #61440	; 0xf000
    52ae:	f2c4 0302 	movt	r3, #16386	; 0x4002
    52b2:	f44f 4270 	mov.w	r2, #61440	; 0xf000
    52b6:	f2c4 0202 	movt	r2, #16386	; 0x4002
    52ba:	f8d2 1090 	ldr.w	r1, [r2, #144]	; 0x90
    52be:	797a      	ldrb	r2, [r7, #5]
    52c0:	ea4f 4202 	mov.w	r2, r2, lsl #16
    52c4:	f402 10f8 	and.w	r0, r2, #2031616	; 0x1f0000
                                                   | I2S_RCR4_SYWD(sywd)   //configure length of the frame sync in number of bit clocks
    52c8:	793a      	ldrb	r2, [r7, #4]
    52ca:	ea4f 2202 	mov.w	r2, r2, lsl #8
    52ce:	f402 52f8 	and.w	r2, r2, #7936	; 0x1f00
    52d2:	4302      	orrs	r2, r0
                }
            else
                {
                    I2S_RCR4_REG(I2S0_BASE_PTR) &= ~I2S_RCR4_FRSZ_MASK;
                    I2S_RCR4_REG(I2S0_BASE_PTR) &= ~I2S_RCR4_SYWD_MASK;
                    I2S_RCR4_REG(I2S0_BASE_PTR) |= I2S_RCR4_FRSZ(framesize) //configure number of words in each frame
    52d4:	430a      	orrs	r2, r1
    52d6:	f8c3 2090 	str.w	r2, [r3, #144]	; 0x90
                                                   | I2S_RCR4_SYWD(sywd)   //configure length of the frame sync in number of bit clocks
                                                   ;

                    if(mf) I2S_RCR4_REG(I2S0_BASE_PTR) |= I2S_RCR4_MF_MASK; //MSB transmit first
    52da:	7c3b      	ldrb	r3, [r7, #16]
    52dc:	2b00      	cmp	r3, #0
    52de:	d00e      	beq.n	52fe <sai_frame_config+0x13e>
    52e0:	f44f 4370 	mov.w	r3, #61440	; 0xf000
    52e4:	f2c4 0302 	movt	r3, #16386	; 0x4002
    52e8:	f44f 4270 	mov.w	r2, #61440	; 0xf000
    52ec:	f2c4 0202 	movt	r2, #16386	; 0x4002
    52f0:	f8d2 2090 	ldr.w	r2, [r2, #144]	; 0x90
    52f4:	f042 0210 	orr.w	r2, r2, #16
    52f8:	f8c3 2090 	str.w	r2, [r3, #144]	; 0x90
    52fc:	e00d      	b.n	531a <sai_frame_config+0x15a>
                    else
                        I2S_RCR4_REG(I2S0_BASE_PTR) &= ~I2S_RCR4_MF_MASK;   //LSB transmit first
    52fe:	f44f 4370 	mov.w	r3, #61440	; 0xf000
    5302:	f2c4 0302 	movt	r3, #16386	; 0x4002
    5306:	f44f 4270 	mov.w	r2, #61440	; 0xf000
    530a:	f2c4 0202 	movt	r2, #16386	; 0x4002
    530e:	f8d2 2090 	ldr.w	r2, [r2, #144]	; 0x90
    5312:	f022 0210 	bic.w	r2, r2, #16
    5316:	f8c3 2090 	str.w	r2, [r3, #144]	; 0x90
                }
        }
    else if(port == 1)
        {
        }
}
    531a:	f107 070c 	add.w	r7, r7, #12
    531e:	46bd      	mov	sp, r7
    5320:	bc80      	pop	{r7}
    5322:	4770      	bx	lr

00005324 <sai_frameclk_config>:
    unsigned char   tx,
    unsigned char   fse,
    unsigned char   fsp,
    unsigned char   fsd
)
{
    5324:	b480      	push	{r7}
    5326:	b083      	sub	sp, #12
    5328:	af00      	add	r7, sp, #0
    532a:	71f8      	strb	r0, [r7, #7]
    532c:	71b9      	strb	r1, [r7, #6]
    532e:	717a      	strb	r2, [r7, #5]
    5330:	713b      	strb	r3, [r7, #4]
    if(port == 0)
    5332:	79fb      	ldrb	r3, [r7, #7]
    5334:	2b00      	cmp	r3, #0
    5336:	f040 80b8 	bne.w	54aa <sai_frameclk_config+0x186>
        {
            if(tx)
    533a:	79bb      	ldrb	r3, [r7, #6]
    533c:	2b00      	cmp	r3, #0
    533e:	d054      	beq.n	53ea <sai_frameclk_config+0xc6>
                {
                    if(fse) I2S_TCR4_REG(I2S0_BASE_PTR) |= I2S_TCR4_FSE_MASK;   //frame sync early
    5340:	797b      	ldrb	r3, [r7, #5]
    5342:	2b00      	cmp	r3, #0
    5344:	d00c      	beq.n	5360 <sai_frameclk_config+0x3c>
    5346:	f44f 4370 	mov.w	r3, #61440	; 0xf000
    534a:	f2c4 0302 	movt	r3, #16386	; 0x4002
    534e:	f44f 4270 	mov.w	r2, #61440	; 0xf000
    5352:	f2c4 0202 	movt	r2, #16386	; 0x4002
    5356:	6912      	ldr	r2, [r2, #16]
    5358:	f042 0208 	orr.w	r2, r2, #8
    535c:	611a      	str	r2, [r3, #16]
    535e:	e00b      	b.n	5378 <sai_frameclk_config+0x54>
                    else
                        I2S_TCR4_REG(I2S0_BASE_PTR) &= ~I2S_TCR4_FSE_MASK;
    5360:	f44f 4370 	mov.w	r3, #61440	; 0xf000
    5364:	f2c4 0302 	movt	r3, #16386	; 0x4002
    5368:	f44f 4270 	mov.w	r2, #61440	; 0xf000
    536c:	f2c4 0202 	movt	r2, #16386	; 0x4002
    5370:	6912      	ldr	r2, [r2, #16]
    5372:	f022 0208 	bic.w	r2, r2, #8
    5376:	611a      	str	r2, [r3, #16]

                    if(fsp) I2S_TCR4_REG(I2S0_BASE_PTR) |= I2S_TCR4_FSP_MASK;   //frame sync active low
    5378:	793b      	ldrb	r3, [r7, #4]
    537a:	2b00      	cmp	r3, #0
    537c:	d00c      	beq.n	5398 <sai_frameclk_config+0x74>
    537e:	f44f 4370 	mov.w	r3, #61440	; 0xf000
    5382:	f2c4 0302 	movt	r3, #16386	; 0x4002
    5386:	f44f 4270 	mov.w	r2, #61440	; 0xf000
    538a:	f2c4 0202 	movt	r2, #16386	; 0x4002
    538e:	6912      	ldr	r2, [r2, #16]
    5390:	f042 0202 	orr.w	r2, r2, #2
    5394:	611a      	str	r2, [r3, #16]
    5396:	e00b      	b.n	53b0 <sai_frameclk_config+0x8c>
                    else
                        I2S_TCR4_REG(I2S0_BASE_PTR) &= ~I2S_TCR4_FSP_MASK;      //frame sync active high
    5398:	f44f 4370 	mov.w	r3, #61440	; 0xf000
    539c:	f2c4 0302 	movt	r3, #16386	; 0x4002
    53a0:	f44f 4270 	mov.w	r2, #61440	; 0xf000
    53a4:	f2c4 0202 	movt	r2, #16386	; 0x4002
    53a8:	6912      	ldr	r2, [r2, #16]
    53aa:	f022 0202 	bic.w	r2, r2, #2
    53ae:	611a      	str	r2, [r3, #16]

                    if(fsd) I2S_TCR4_REG(I2S0_BASE_PTR) |= I2S_TCR4_FSD_MASK;   //frame sync generated internally, master mode
    53b0:	7c3b      	ldrb	r3, [r7, #16]
    53b2:	2b00      	cmp	r3, #0
    53b4:	d00c      	beq.n	53d0 <sai_frameclk_config+0xac>
    53b6:	f44f 4370 	mov.w	r3, #61440	; 0xf000
    53ba:	f2c4 0302 	movt	r3, #16386	; 0x4002
    53be:	f44f 4270 	mov.w	r2, #61440	; 0xf000
    53c2:	f2c4 0202 	movt	r2, #16386	; 0x4002
    53c6:	6912      	ldr	r2, [r2, #16]
    53c8:	f042 0201 	orr.w	r2, r2, #1
    53cc:	611a      	str	r2, [r3, #16]
    53ce:	e06c      	b.n	54aa <sai_frameclk_config+0x186>
                    else
                        I2S_TCR4_REG(I2S0_BASE_PTR) &= ~I2S_TCR4_FSD_MASK;      //frame sync generated externally, slave mode
    53d0:	f44f 4370 	mov.w	r3, #61440	; 0xf000
    53d4:	f2c4 0302 	movt	r3, #16386	; 0x4002
    53d8:	f44f 4270 	mov.w	r2, #61440	; 0xf000
    53dc:	f2c4 0202 	movt	r2, #16386	; 0x4002
    53e0:	6912      	ldr	r2, [r2, #16]
    53e2:	f022 0201 	bic.w	r2, r2, #1
    53e6:	611a      	str	r2, [r3, #16]
    53e8:	e05f      	b.n	54aa <sai_frameclk_config+0x186>
                }
            else
                {
                    if(fse) I2S_RCR4_REG(I2S0_BASE_PTR) |= I2S_RCR4_FSE_MASK;   //frame sync early
    53ea:	797b      	ldrb	r3, [r7, #5]
    53ec:	2b00      	cmp	r3, #0
    53ee:	d00e      	beq.n	540e <sai_frameclk_config+0xea>
    53f0:	f44f 4370 	mov.w	r3, #61440	; 0xf000
    53f4:	f2c4 0302 	movt	r3, #16386	; 0x4002
    53f8:	f44f 4270 	mov.w	r2, #61440	; 0xf000
    53fc:	f2c4 0202 	movt	r2, #16386	; 0x4002
    5400:	f8d2 2090 	ldr.w	r2, [r2, #144]	; 0x90
    5404:	f042 0208 	orr.w	r2, r2, #8
    5408:	f8c3 2090 	str.w	r2, [r3, #144]	; 0x90
    540c:	e00d      	b.n	542a <sai_frameclk_config+0x106>
                    else
                        I2S_RCR4_REG(I2S0_BASE_PTR) &= ~I2S_RCR4_FSE_MASK;
    540e:	f44f 4370 	mov.w	r3, #61440	; 0xf000
    5412:	f2c4 0302 	movt	r3, #16386	; 0x4002
    5416:	f44f 4270 	mov.w	r2, #61440	; 0xf000
    541a:	f2c4 0202 	movt	r2, #16386	; 0x4002
    541e:	f8d2 2090 	ldr.w	r2, [r2, #144]	; 0x90
    5422:	f022 0208 	bic.w	r2, r2, #8
    5426:	f8c3 2090 	str.w	r2, [r3, #144]	; 0x90

                    if(fsp) I2S_RCR4_REG(I2S0_BASE_PTR) |= I2S_RCR4_FSP_MASK;   //frame sync active low
    542a:	793b      	ldrb	r3, [r7, #4]
    542c:	2b00      	cmp	r3, #0
    542e:	d00e      	beq.n	544e <sai_frameclk_config+0x12a>
    5430:	f44f 4370 	mov.w	r3, #61440	; 0xf000
    5434:	f2c4 0302 	movt	r3, #16386	; 0x4002
    5438:	f44f 4270 	mov.w	r2, #61440	; 0xf000
    543c:	f2c4 0202 	movt	r2, #16386	; 0x4002
    5440:	f8d2 2090 	ldr.w	r2, [r2, #144]	; 0x90
    5444:	f042 0202 	orr.w	r2, r2, #2
    5448:	f8c3 2090 	str.w	r2, [r3, #144]	; 0x90
    544c:	e00d      	b.n	546a <sai_frameclk_config+0x146>
                    else
                        I2S_RCR4_REG(I2S0_BASE_PTR) &= ~I2S_RCR4_FSP_MASK;      //frame sync active high
    544e:	f44f 4370 	mov.w	r3, #61440	; 0xf000
    5452:	f2c4 0302 	movt	r3, #16386	; 0x4002
    5456:	f44f 4270 	mov.w	r2, #61440	; 0xf000
    545a:	f2c4 0202 	movt	r2, #16386	; 0x4002
    545e:	f8d2 2090 	ldr.w	r2, [r2, #144]	; 0x90
    5462:	f022 0202 	bic.w	r2, r2, #2
    5466:	f8c3 2090 	str.w	r2, [r3, #144]	; 0x90

                    if(fsd) I2S_RCR4_REG(I2S0_BASE_PTR) |= I2S_RCR4_FSD_MASK;   //frame sync generated internally, master mode
    546a:	7c3b      	ldrb	r3, [r7, #16]
    546c:	2b00      	cmp	r3, #0
    546e:	d00e      	beq.n	548e <sai_frameclk_config+0x16a>
    5470:	f44f 4370 	mov.w	r3, #61440	; 0xf000
    5474:	f2c4 0302 	movt	r3, #16386	; 0x4002
    5478:	f44f 4270 	mov.w	r2, #61440	; 0xf000
    547c:	f2c4 0202 	movt	r2, #16386	; 0x4002
    5480:	f8d2 2090 	ldr.w	r2, [r2, #144]	; 0x90
    5484:	f042 0201 	orr.w	r2, r2, #1
    5488:	f8c3 2090 	str.w	r2, [r3, #144]	; 0x90
    548c:	e00d      	b.n	54aa <sai_frameclk_config+0x186>
                    else
                        I2S_RCR4_REG(I2S0_BASE_PTR) &= ~I2S_RCR4_FSD_MASK;      //frame sync generated externally, slave mode
    548e:	f44f 4370 	mov.w	r3, #61440	; 0xf000
    5492:	f2c4 0302 	movt	r3, #16386	; 0x4002
    5496:	f44f 4270 	mov.w	r2, #61440	; 0xf000
    549a:	f2c4 0202 	movt	r2, #16386	; 0x4002
    549e:	f8d2 2090 	ldr.w	r2, [r2, #144]	; 0x90
    54a2:	f022 0201 	bic.w	r2, r2, #1
    54a6:	f8c3 2090 	str.w	r2, [r3, #144]	; 0x90
                }
        }
    else if(port == 1)
        {
        }
}
    54aa:	f107 070c 	add.w	r7, r7, #12
    54ae:	46bd      	mov	sp, r7
    54b0:	bc80      	pop	{r7}
    54b2:	4770      	bx	lr

000054b4 <sai_wordlength_config>:
    unsigned char   tx,
    unsigned char   wnw,
    unsigned char   w0w,
    unsigned char   fbt
)
{
    54b4:	b480      	push	{r7}
    54b6:	b083      	sub	sp, #12
    54b8:	af00      	add	r7, sp, #0
    54ba:	71f8      	strb	r0, [r7, #7]
    54bc:	71b9      	strb	r1, [r7, #6]
    54be:	717a      	strb	r2, [r7, #5]
    54c0:	713b      	strb	r3, [r7, #4]
    if(port == 0)
    54c2:	79fb      	ldrb	r3, [r7, #7]
    54c4:	2b00      	cmp	r3, #0
    54c6:	f040 808c 	bne.w	55e2 <sai_wordlength_config+0x12e>
        {
            if(tx)
    54ca:	79bb      	ldrb	r3, [r7, #6]
    54cc:	2b00      	cmp	r3, #0
    54ce:	d040      	beq.n	5552 <sai_wordlength_config+0x9e>
                {
                    I2S_TCR5_REG(I2S0_BASE_PTR) &= ~I2S_TCR5_WNW_MASK;
    54d0:	f44f 4370 	mov.w	r3, #61440	; 0xf000
    54d4:	f2c4 0302 	movt	r3, #16386	; 0x4002
    54d8:	f44f 4270 	mov.w	r2, #61440	; 0xf000
    54dc:	f2c4 0202 	movt	r2, #16386	; 0x4002
    54e0:	6952      	ldr	r2, [r2, #20]
    54e2:	f022 52f8 	bic.w	r2, r2, #520093696	; 0x1f000000
    54e6:	615a      	str	r2, [r3, #20]
                    I2S_TCR5_REG(I2S0_BASE_PTR) &= ~I2S_TCR5_W0W_MASK;
    54e8:	f44f 4370 	mov.w	r3, #61440	; 0xf000
    54ec:	f2c4 0302 	movt	r3, #16386	; 0x4002
    54f0:	f44f 4270 	mov.w	r2, #61440	; 0xf000
    54f4:	f2c4 0202 	movt	r2, #16386	; 0x4002
    54f8:	6952      	ldr	r2, [r2, #20]
    54fa:	f422 12f8 	bic.w	r2, r2, #2031616	; 0x1f0000
    54fe:	615a      	str	r2, [r3, #20]
                    I2S_TCR5_REG(I2S0_BASE_PTR) &= ~I2S_TCR5_FBT_MASK;
    5500:	f44f 4370 	mov.w	r3, #61440	; 0xf000
    5504:	f2c4 0302 	movt	r3, #16386	; 0x4002
    5508:	f44f 4270 	mov.w	r2, #61440	; 0xf000
    550c:	f2c4 0202 	movt	r2, #16386	; 0x4002
    5510:	6952      	ldr	r2, [r2, #20]
    5512:	f422 52f8 	bic.w	r2, r2, #7936	; 0x1f00
    5516:	615a      	str	r2, [r3, #20]
                    I2S_TCR5_REG(I2S0_BASE_PTR) |= I2S_TCR5_WNW(wnw)    //configure number of bits in each word except first in frame
    5518:	f44f 4370 	mov.w	r3, #61440	; 0xf000
    551c:	f2c4 0302 	movt	r3, #16386	; 0x4002
    5520:	f44f 4270 	mov.w	r2, #61440	; 0xf000
    5524:	f2c4 0202 	movt	r2, #16386	; 0x4002
    5528:	6951      	ldr	r1, [r2, #20]
    552a:	797a      	ldrb	r2, [r7, #5]
    552c:	ea4f 6202 	mov.w	r2, r2, lsl #24
    5530:	f002 50f8 	and.w	r0, r2, #520093696	; 0x1f000000
                                                   | I2S_TCR5_W0W(w0w) //configure number of bits for first word in each frame
    5534:	793a      	ldrb	r2, [r7, #4]
    5536:	ea4f 4202 	mov.w	r2, r2, lsl #16
    553a:	f402 12f8 	and.w	r2, r2, #2031616	; 0x1f0000
    553e:	4310      	orrs	r0, r2
                                                   | I2S_TCR5_FBT(fbt) //configure bit index of first bit transmitted of each word
    5540:	7c3a      	ldrb	r2, [r7, #16]
    5542:	ea4f 2202 	mov.w	r2, r2, lsl #8
    5546:	f402 52f8 	and.w	r2, r2, #7936	; 0x1f00
    554a:	4302      	orrs	r2, r0
            if(tx)
                {
                    I2S_TCR5_REG(I2S0_BASE_PTR) &= ~I2S_TCR5_WNW_MASK;
                    I2S_TCR5_REG(I2S0_BASE_PTR) &= ~I2S_TCR5_W0W_MASK;
                    I2S_TCR5_REG(I2S0_BASE_PTR) &= ~I2S_TCR5_FBT_MASK;
                    I2S_TCR5_REG(I2S0_BASE_PTR) |= I2S_TCR5_WNW(wnw)    //configure number of bits in each word except first in frame
    554c:	430a      	orrs	r2, r1
    554e:	615a      	str	r2, [r3, #20]
    5550:	e047      	b.n	55e2 <sai_wordlength_config+0x12e>
                                                   | I2S_TCR5_FBT(fbt) //configure bit index of first bit transmitted of each word
                                                   ;
                }
            else
                {
                    I2S_RCR5_REG(I2S0_BASE_PTR) &= ~I2S_RCR5_WNW_MASK;
    5552:	f44f 4370 	mov.w	r3, #61440	; 0xf000
    5556:	f2c4 0302 	movt	r3, #16386	; 0x4002
    555a:	f44f 4270 	mov.w	r2, #61440	; 0xf000
    555e:	f2c4 0202 	movt	r2, #16386	; 0x4002
    5562:	f8d2 2094 	ldr.w	r2, [r2, #148]	; 0x94
    5566:	f022 52f8 	bic.w	r2, r2, #520093696	; 0x1f000000
    556a:	f8c3 2094 	str.w	r2, [r3, #148]	; 0x94
                    I2S_RCR5_REG(I2S0_BASE_PTR) &= ~I2S_RCR5_W0W_MASK;
    556e:	f44f 4370 	mov.w	r3, #61440	; 0xf000
    5572:	f2c4 0302 	movt	r3, #16386	; 0x4002
    5576:	f44f 4270 	mov.w	r2, #61440	; 0xf000
    557a:	f2c4 0202 	movt	r2, #16386	; 0x4002
    557e:	f8d2 2094 	ldr.w	r2, [r2, #148]	; 0x94
    5582:	f422 12f8 	bic.w	r2, r2, #2031616	; 0x1f0000
    5586:	f8c3 2094 	str.w	r2, [r3, #148]	; 0x94
                    I2S_RCR5_REG(I2S0_BASE_PTR) &= ~I2S_RCR5_FBT_MASK;
    558a:	f44f 4370 	mov.w	r3, #61440	; 0xf000
    558e:	f2c4 0302 	movt	r3, #16386	; 0x4002
    5592:	f44f 4270 	mov.w	r2, #61440	; 0xf000
    5596:	f2c4 0202 	movt	r2, #16386	; 0x4002
    559a:	f8d2 2094 	ldr.w	r2, [r2, #148]	; 0x94
    559e:	f422 52f8 	bic.w	r2, r2, #7936	; 0x1f00
    55a2:	f8c3 2094 	str.w	r2, [r3, #148]	; 0x94
                    I2S_RCR5_REG(I2S0_BASE_PTR) |= I2S_RCR5_WNW(wnw)    //configure number of bits in each word except first in frame
    55a6:	f44f 4370 	mov.w	r3, #61440	; 0xf000
    55aa:	f2c4 0302 	movt	r3, #16386	; 0x4002
    55ae:	f44f 4270 	mov.w	r2, #61440	; 0xf000
    55b2:	f2c4 0202 	movt	r2, #16386	; 0x4002
    55b6:	f8d2 1094 	ldr.w	r1, [r2, #148]	; 0x94
    55ba:	797a      	ldrb	r2, [r7, #5]
    55bc:	ea4f 6202 	mov.w	r2, r2, lsl #24
    55c0:	f002 50f8 	and.w	r0, r2, #520093696	; 0x1f000000
                                                   | I2S_RCR5_W0W(w0w) //configure number of bits for first word in each frame
    55c4:	793a      	ldrb	r2, [r7, #4]
    55c6:	ea4f 4202 	mov.w	r2, r2, lsl #16
    55ca:	f402 12f8 	and.w	r2, r2, #2031616	; 0x1f0000
    55ce:	4310      	orrs	r0, r2
                                                   | I2S_RCR5_FBT(fbt) //configure bit index of first bit transmitted of each word
    55d0:	7c3a      	ldrb	r2, [r7, #16]
    55d2:	ea4f 2202 	mov.w	r2, r2, lsl #8
    55d6:	f402 52f8 	and.w	r2, r2, #7936	; 0x1f00
    55da:	4302      	orrs	r2, r0
            else
                {
                    I2S_RCR5_REG(I2S0_BASE_PTR) &= ~I2S_RCR5_WNW_MASK;
                    I2S_RCR5_REG(I2S0_BASE_PTR) &= ~I2S_RCR5_W0W_MASK;
                    I2S_RCR5_REG(I2S0_BASE_PTR) &= ~I2S_RCR5_FBT_MASK;
                    I2S_RCR5_REG(I2S0_BASE_PTR) |= I2S_RCR5_WNW(wnw)    //configure number of bits in each word except first in frame
    55dc:	430a      	orrs	r2, r1
    55de:	f8c3 2094 	str.w	r2, [r3, #148]	; 0x94
                }
        }
    else if(port == 1)
        {
        }
}
    55e2:	f107 070c 	add.w	r7, r7, #12
    55e6:	46bd      	mov	sp, r7
    55e8:	bc80      	pop	{r7}
    55ea:	4770      	bx	lr

000055ec <sai_mclk_config>:
    unsigned char   mics,
    unsigned char   moe,
    unsigned char   fract,
    uint32_t        divide
)
{
    55ec:	b480      	push	{r7}
    55ee:	b083      	sub	sp, #12
    55f0:	af00      	add	r7, sp, #0
    55f2:	71f8      	strb	r0, [r7, #7]
    55f4:	71b9      	strb	r1, [r7, #6]
    55f6:	717a      	strb	r2, [r7, #5]
    55f8:	713b      	strb	r3, [r7, #4]
    if(port == 0)
    55fa:	79fb      	ldrb	r3, [r7, #7]
    55fc:	2b00      	cmp	r3, #0
    55fe:	f040 80a7 	bne.w	5750 <sai_mclk_config+0x164>
                                                            *	01		OSC0ERCLK
                                                            *	10		OSC1ERCLK
                                                            *	11		MCGPLLCLK
                                                                    *	100		MCGFLLCLK
                                                            */
            I2S_MCR_REG(I2S0_BASE_PTR) &= ~I2S_MCR_MICS_MASK;
    5602:	f44f 4370 	mov.w	r3, #61440	; 0xf000
    5606:	f2c4 0302 	movt	r3, #16386	; 0x4002
    560a:	f44f 4270 	mov.w	r2, #61440	; 0xf000
    560e:	f2c4 0202 	movt	r2, #16386	; 0x4002
    5612:	f8d2 2100 	ldr.w	r2, [r2, #256]	; 0x100
    5616:	f022 7240 	bic.w	r2, r2, #50331648	; 0x3000000
    561a:	f8c3 2100 	str.w	r2, [r3, #256]	; 0x100

            if(mics == MCGPLLCLK) SIM_SOPT2 |= SIM_SOPT2_PLLFLLSEL_MASK;    //MCGPLLCLK is selected
    561e:	79bb      	ldrb	r3, [r7, #6]
    5620:	2b03      	cmp	r3, #3
    5622:	d113      	bne.n	564c <sai_mclk_config+0x60>
    5624:	f44f 43e0 	mov.w	r3, #28672	; 0x7000
    5628:	f2c4 0304 	movt	r3, #16388	; 0x4004
    562c:	f44f 42e0 	mov.w	r2, #28672	; 0x7000
    5630:	f2c4 0204 	movt	r2, #16388	; 0x4004
    5634:	f502 5280 	add.w	r2, r2, #4096	; 0x1000
    5638:	f102 0204 	add.w	r2, r2, #4
    563c:	6812      	ldr	r2, [r2, #0]
    563e:	f442 3280 	orr.w	r2, r2, #65536	; 0x10000
    5642:	f503 5380 	add.w	r3, r3, #4096	; 0x1000
    5646:	f103 0304 	add.w	r3, r3, #4
    564a:	601a      	str	r2, [r3, #0]

            if(mics == MCGFLLCLK)
    564c:	79bb      	ldrb	r3, [r7, #6]
    564e:	2b04      	cmp	r3, #4
    5650:	d116      	bne.n	5680 <sai_mclk_config+0x94>
                {
                    SIM_SOPT2 &= ~SIM_SOPT2_PLLFLLSEL_MASK;                     //MCGFLLCLK is selected
    5652:	f44f 43e0 	mov.w	r3, #28672	; 0x7000
    5656:	f2c4 0304 	movt	r3, #16388	; 0x4004
    565a:	f44f 42e0 	mov.w	r2, #28672	; 0x7000
    565e:	f2c4 0204 	movt	r2, #16388	; 0x4004
    5662:	f502 5280 	add.w	r2, r2, #4096	; 0x1000
    5666:	f102 0204 	add.w	r2, r2, #4
    566a:	6812      	ldr	r2, [r2, #0]
    566c:	f422 3280 	bic.w	r2, r2, #65536	; 0x10000
    5670:	f503 5380 	add.w	r3, r3, #4096	; 0x1000
    5674:	f103 0304 	add.w	r3, r3, #4
    5678:	601a      	str	r2, [r3, #0]
                    mics = MCGPLLCLK;
    567a:	f04f 0303 	mov.w	r3, #3
    567e:	71bb      	strb	r3, [r7, #6]
                }

            I2S_MCR_REG(I2S0_BASE_PTR) |= I2S_MCR_MICS(mics);               //MCLK divider input clock select
    5680:	f44f 4370 	mov.w	r3, #61440	; 0xf000
    5684:	f2c4 0302 	movt	r3, #16386	; 0x4002
    5688:	f44f 4270 	mov.w	r2, #61440	; 0xf000
    568c:	f2c4 0202 	movt	r2, #16386	; 0x4002
    5690:	f8d2 1100 	ldr.w	r1, [r2, #256]	; 0x100
    5694:	79ba      	ldrb	r2, [r7, #6]
    5696:	ea4f 6202 	mov.w	r2, r2, lsl #24
    569a:	f002 7240 	and.w	r2, r2, #50331648	; 0x3000000
    569e:	430a      	orrs	r2, r1
    56a0:	f8c3 2100 	str.w	r2, [r3, #256]	; 0x100
            /*
                                                            *	MCLK output = MCLK input * ((FRACT+1)/(DIVIDE+1))
                                                            */
            I2S_MDR_REG(I2S0_BASE_PTR) &= ~I2S_MDR_FRACT_MASK;
    56a4:	f44f 4370 	mov.w	r3, #61440	; 0xf000
    56a8:	f2c4 0302 	movt	r3, #16386	; 0x4002
    56ac:	f44f 4270 	mov.w	r2, #61440	; 0xf000
    56b0:	f2c4 0202 	movt	r2, #16386	; 0x4002
    56b4:	f8d2 2104 	ldr.w	r2, [r2, #260]	; 0x104
    56b8:	f422 227f 	bic.w	r2, r2, #1044480	; 0xff000
    56bc:	f8c3 2104 	str.w	r2, [r3, #260]	; 0x104
            I2S_MDR_REG(I2S0_BASE_PTR) &= ~I2S_MDR_DIVIDE_MASK;
    56c0:	f44f 4370 	mov.w	r3, #61440	; 0xf000
    56c4:	f2c4 0302 	movt	r3, #16386	; 0x4002
    56c8:	f44f 4270 	mov.w	r2, #61440	; 0xf000
    56cc:	f2c4 0202 	movt	r2, #16386	; 0x4002
    56d0:	f8d2 2104 	ldr.w	r2, [r2, #260]	; 0x104
    56d4:	f422 627f 	bic.w	r2, r2, #4080	; 0xff0
    56d8:	f022 020f 	bic.w	r2, r2, #15
    56dc:	f8c3 2104 	str.w	r2, [r3, #260]	; 0x104
            I2S_MDR_REG(I2S0_BASE_PTR) |= I2S_MDR_FRACT(fract)              //MCLK fraction
    56e0:	f44f 4370 	mov.w	r3, #61440	; 0xf000
    56e4:	f2c4 0302 	movt	r3, #16386	; 0x4002
    56e8:	f44f 4270 	mov.w	r2, #61440	; 0xf000
    56ec:	f2c4 0202 	movt	r2, #16386	; 0x4002
    56f0:	f8d2 1104 	ldr.w	r1, [r2, #260]	; 0x104
    56f4:	793a      	ldrb	r2, [r7, #4]
    56f6:	ea4f 3202 	mov.w	r2, r2, lsl #12
    56fa:	f402 207f 	and.w	r0, r2, #1044480	; 0xff000
                                          | I2S_MDR_DIVIDE(divide)    //MCLK divide
    56fe:	693a      	ldr	r2, [r7, #16]
    5700:	ea4f 5202 	mov.w	r2, r2, lsl #20
    5704:	ea4f 5212 	mov.w	r2, r2, lsr #20
    5708:	4302      	orrs	r2, r0
            /*
                                                            *	MCLK output = MCLK input * ((FRACT+1)/(DIVIDE+1))
                                                            */
            I2S_MDR_REG(I2S0_BASE_PTR) &= ~I2S_MDR_FRACT_MASK;
            I2S_MDR_REG(I2S0_BASE_PTR) &= ~I2S_MDR_DIVIDE_MASK;
            I2S_MDR_REG(I2S0_BASE_PTR) |= I2S_MDR_FRACT(fract)              //MCLK fraction
    570a:	430a      	orrs	r2, r1
    570c:	f8c3 2104 	str.w	r2, [r3, #260]	; 0x104
            /*
                                                            *	Please note that MICS field cannot be changed once MCLK divider enabled, because MOE bit will enable MCLK divider and configure MCLK pin as output,
                                                            *	so MOE bit needs to be set after setting MICS, otherwise the change to MICS bit will not be valid!!!
                                                            */

            if(moe) I2S_MCR_REG(I2S0_BASE_PTR) |= I2S_MCR_MOE_MASK; //SAI_MCLK configure as output from MCLK divider
    5710:	797b      	ldrb	r3, [r7, #5]
    5712:	2b00      	cmp	r3, #0
    5714:	d00e      	beq.n	5734 <sai_mclk_config+0x148>
    5716:	f44f 4370 	mov.w	r3, #61440	; 0xf000
    571a:	f2c4 0302 	movt	r3, #16386	; 0x4002
    571e:	f44f 4270 	mov.w	r2, #61440	; 0xf000
    5722:	f2c4 0202 	movt	r2, #16386	; 0x4002
    5726:	f8d2 2100 	ldr.w	r2, [r2, #256]	; 0x100
    572a:	f042 4280 	orr.w	r2, r2, #1073741824	; 0x40000000
    572e:	f8c3 2100 	str.w	r2, [r3, #256]	; 0x100
    5732:	e00d      	b.n	5750 <sai_mclk_config+0x164>
            else
                I2S_MCR_REG(I2S0_BASE_PTR) &= ~I2S_MCR_MOE_MASK;    //SAI_MCLK configured as input which bypass MCLK divider
    5734:	f44f 4370 	mov.w	r3, #61440	; 0xf000
    5738:	f2c4 0302 	movt	r3, #16386	; 0x4002
    573c:	f44f 4270 	mov.w	r2, #61440	; 0xf000
    5740:	f2c4 0202 	movt	r2, #16386	; 0x4002
    5744:	f8d2 2100 	ldr.w	r2, [r2, #256]	; 0x100
    5748:	f022 4280 	bic.w	r2, r2, #1073741824	; 0x40000000
    574c:	f8c3 2100 	str.w	r2, [r3, #256]	; 0x100
        }
    else if(port == 1)
        {
        }
}
    5750:	f107 070c 	add.w	r7, r7, #12
    5754:	46bd      	mov	sp, r7
    5756:	bc80      	pop	{r7}
    5758:	4770      	bx	lr
    575a:	bf00      	nop

0000575c <sai_clear_reg>:

/* */

void sai_clear_reg
(unsigned char   port)
{
    575c:	b580      	push	{r7, lr}
    575e:	b082      	sub	sp, #8
    5760:	af00      	add	r7, sp, #0
    5762:	4603      	mov	r3, r0
    5764:	71fb      	strb	r3, [r7, #7]
    if(port == 0)
    5766:	79fb      	ldrb	r3, [r7, #7]
    5768:	2b00      	cmp	r3, #0
    576a:	f040 80ed 	bne.w	5948 <sai_clear_reg+0x1ec>
        {
            I2S_TCSR_REG(I2S0_BASE_PTR) = 0x001c0000;   //clear wsf, sef and fef flags
    576e:	f44f 4370 	mov.w	r3, #61440	; 0xf000
    5772:	f2c4 0302 	movt	r3, #16386	; 0x4002
    5776:	f44f 12e0 	mov.w	r2, #1835008	; 0x1c0000
    577a:	601a      	str	r2, [r3, #0]
            I2S_TCR1_REG(I2S0_BASE_PTR) = 0x0;
    577c:	f44f 4370 	mov.w	r3, #61440	; 0xf000
    5780:	f2c4 0302 	movt	r3, #16386	; 0x4002
    5784:	f04f 0200 	mov.w	r2, #0
    5788:	605a      	str	r2, [r3, #4]
            I2S_TCR2_REG(I2S0_BASE_PTR) = 0x0;
    578a:	f44f 4370 	mov.w	r3, #61440	; 0xf000
    578e:	f2c4 0302 	movt	r3, #16386	; 0x4002
    5792:	f04f 0200 	mov.w	r2, #0
    5796:	609a      	str	r2, [r3, #8]
            I2S_TCR3_REG(I2S0_BASE_PTR) = 0x0;
    5798:	f44f 4370 	mov.w	r3, #61440	; 0xf000
    579c:	f2c4 0302 	movt	r3, #16386	; 0x4002
    57a0:	f04f 0200 	mov.w	r2, #0
    57a4:	60da      	str	r2, [r3, #12]
            I2S_TCR4_REG(I2S0_BASE_PTR) = 0x0;
    57a6:	f44f 4370 	mov.w	r3, #61440	; 0xf000
    57aa:	f2c4 0302 	movt	r3, #16386	; 0x4002
    57ae:	f04f 0200 	mov.w	r2, #0
    57b2:	611a      	str	r2, [r3, #16]
            I2S_TCR5_REG(I2S0_BASE_PTR) = 0x0;
    57b4:	f44f 4370 	mov.w	r3, #61440	; 0xf000
    57b8:	f2c4 0302 	movt	r3, #16386	; 0x4002
    57bc:	f04f 0200 	mov.w	r2, #0
    57c0:	615a      	str	r2, [r3, #20]
            //soft reset, reset internal tranmit logic and FIFO pointers, this operation will clear TDR and TFR, don't try to write 0 to TDR for reg clear, any write to TDR will increment TFR
            sai_soft_reset(port, TX);
    57c2:	79fb      	ldrb	r3, [r7, #7]
    57c4:	4618      	mov	r0, r3
    57c6:	f04f 0101 	mov.w	r1, #1
    57ca:	f7ff fa0b 	bl	4be4 <sai_soft_reset>
            I2S_TMR_REG(I2S0_BASE_PTR) = 0x0;
    57ce:	f44f 4370 	mov.w	r3, #61440	; 0xf000
    57d2:	f2c4 0302 	movt	r3, #16386	; 0x4002
    57d6:	f04f 0200 	mov.w	r2, #0
    57da:	661a      	str	r2, [r3, #96]	; 0x60

            /* Loop till TE bit is cleared */

            while(I2S_TCSR_REG(I2S0_BASE_PTR) & I2S_TCSR_TE_MASK) I2S_TCSR_REG(I2S0_BASE_PTR) &= ~I2S_TCSR_TE_MASK;     //clear TE
    57dc:	e00b      	b.n	57f6 <sai_clear_reg+0x9a>
    57de:	f44f 4370 	mov.w	r3, #61440	; 0xf000
    57e2:	f2c4 0302 	movt	r3, #16386	; 0x4002
    57e6:	f44f 4270 	mov.w	r2, #61440	; 0xf000
    57ea:	f2c4 0202 	movt	r2, #16386	; 0x4002
    57ee:	6812      	ldr	r2, [r2, #0]
    57f0:	f022 4200 	bic.w	r2, r2, #2147483648	; 0x80000000
    57f4:	601a      	str	r2, [r3, #0]
    57f6:	f44f 4370 	mov.w	r3, #61440	; 0xf000
    57fa:	f2c4 0302 	movt	r3, #16386	; 0x4002
    57fe:	681b      	ldr	r3, [r3, #0]
    5800:	2b00      	cmp	r3, #0
    5802:	dbec      	blt.n	57de <sai_clear_reg+0x82>

            /* Loop till BCE bit cleared */

            while(I2S_TCSR_REG(I2S0_BASE_PTR) & I2S_TCSR_BCE_MASK) I2S_TCSR_REG(I2S0_BASE_PTR) &= ~I2S_TCSR_BCE_MASK;   //clear BE
    5804:	e00b      	b.n	581e <sai_clear_reg+0xc2>
    5806:	f44f 4370 	mov.w	r3, #61440	; 0xf000
    580a:	f2c4 0302 	movt	r3, #16386	; 0x4002
    580e:	f44f 4270 	mov.w	r2, #61440	; 0xf000
    5812:	f2c4 0202 	movt	r2, #16386	; 0x4002
    5816:	6812      	ldr	r2, [r2, #0]
    5818:	f022 5280 	bic.w	r2, r2, #268435456	; 0x10000000
    581c:	601a      	str	r2, [r3, #0]
    581e:	f44f 4370 	mov.w	r3, #61440	; 0xf000
    5822:	f2c4 0302 	movt	r3, #16386	; 0x4002
    5826:	681b      	ldr	r3, [r3, #0]
    5828:	f003 5380 	and.w	r3, r3, #268435456	; 0x10000000
    582c:	2b00      	cmp	r3, #0
    582e:	d1ea      	bne.n	5806 <sai_clear_reg+0xaa>

            I2S_RCSR_REG(I2S0_BASE_PTR) = 0x001c0000;   //clear wsf, sef and fef flags
    5830:	f44f 4370 	mov.w	r3, #61440	; 0xf000
    5834:	f2c4 0302 	movt	r3, #16386	; 0x4002
    5838:	f44f 12e0 	mov.w	r2, #1835008	; 0x1c0000
    583c:	f8c3 2080 	str.w	r2, [r3, #128]	; 0x80
            I2S_RCR1_REG(I2S0_BASE_PTR) = 0x0;
    5840:	f44f 4370 	mov.w	r3, #61440	; 0xf000
    5844:	f2c4 0302 	movt	r3, #16386	; 0x4002
    5848:	f04f 0200 	mov.w	r2, #0
    584c:	f8c3 2084 	str.w	r2, [r3, #132]	; 0x84
            I2S_RCR2_REG(I2S0_BASE_PTR) = 0x0;
    5850:	f44f 4370 	mov.w	r3, #61440	; 0xf000
    5854:	f2c4 0302 	movt	r3, #16386	; 0x4002
    5858:	f04f 0200 	mov.w	r2, #0
    585c:	f8c3 2088 	str.w	r2, [r3, #136]	; 0x88
            I2S_RCR3_REG(I2S0_BASE_PTR) = 0x0;
    5860:	f44f 4370 	mov.w	r3, #61440	; 0xf000
    5864:	f2c4 0302 	movt	r3, #16386	; 0x4002
    5868:	f04f 0200 	mov.w	r2, #0
    586c:	f8c3 208c 	str.w	r2, [r3, #140]	; 0x8c
            I2S_RCR4_REG(I2S0_BASE_PTR) = 0x0;
    5870:	f44f 4370 	mov.w	r3, #61440	; 0xf000
    5874:	f2c4 0302 	movt	r3, #16386	; 0x4002
    5878:	f04f 0200 	mov.w	r2, #0
    587c:	f8c3 2090 	str.w	r2, [r3, #144]	; 0x90
            I2S_RCR5_REG(I2S0_BASE_PTR) = 0x0;
    5880:	f44f 4370 	mov.w	r3, #61440	; 0xf000
    5884:	f2c4 0302 	movt	r3, #16386	; 0x4002
    5888:	f04f 0200 	mov.w	r2, #0
    588c:	f8c3 2094 	str.w	r2, [r3, #148]	; 0x94
            //soft reset, reset internal receive logic and FIFO pointers, this operation will clear RDR and RFR, don't try to write 0 to RDR for reg clear, any write to RDR will increment RFR
            sai_soft_reset(port, RX);
    5890:	79fb      	ldrb	r3, [r7, #7]
    5892:	4618      	mov	r0, r3
    5894:	f04f 0100 	mov.w	r1, #0
    5898:	f7ff f9a4 	bl	4be4 <sai_soft_reset>
            I2S_RMR_REG(I2S0_BASE_PTR) = 0x0;
    589c:	f44f 4370 	mov.w	r3, #61440	; 0xf000
    58a0:	f2c4 0302 	movt	r3, #16386	; 0x4002
    58a4:	f04f 0200 	mov.w	r2, #0
    58a8:	f8c3 20e0 	str.w	r2, [r3, #224]	; 0xe0

            /* Loop till RE bit clear */

            while(I2S_RCSR_REG(I2S0_BASE_PTR) & I2S_RCSR_RE_MASK) I2S_RCSR_REG(I2S0_BASE_PTR) &= ~I2S_RCSR_RE_MASK;     //clear RE
    58ac:	e00d      	b.n	58ca <sai_clear_reg+0x16e>
    58ae:	f44f 4370 	mov.w	r3, #61440	; 0xf000
    58b2:	f2c4 0302 	movt	r3, #16386	; 0x4002
    58b6:	f44f 4270 	mov.w	r2, #61440	; 0xf000
    58ba:	f2c4 0202 	movt	r2, #16386	; 0x4002
    58be:	f8d2 2080 	ldr.w	r2, [r2, #128]	; 0x80
    58c2:	f022 4200 	bic.w	r2, r2, #2147483648	; 0x80000000
    58c6:	f8c3 2080 	str.w	r2, [r3, #128]	; 0x80
    58ca:	f44f 4370 	mov.w	r3, #61440	; 0xf000
    58ce:	f2c4 0302 	movt	r3, #16386	; 0x4002
    58d2:	f8d3 3080 	ldr.w	r3, [r3, #128]	; 0x80
    58d6:	2b00      	cmp	r3, #0
    58d8:	dbe9      	blt.n	58ae <sai_clear_reg+0x152>

            /* Loop till BCE bit clear */

            while(I2S_RCSR_REG(I2S0_BASE_PTR) & I2S_RCSR_BCE_MASK) I2S_RCSR_REG(I2S0_BASE_PTR) &= ~I2S_RCSR_BCE_MASK;   //clear BCE
    58da:	e00d      	b.n	58f8 <sai_clear_reg+0x19c>
    58dc:	f44f 4370 	mov.w	r3, #61440	; 0xf000
    58e0:	f2c4 0302 	movt	r3, #16386	; 0x4002
    58e4:	f44f 4270 	mov.w	r2, #61440	; 0xf000
    58e8:	f2c4 0202 	movt	r2, #16386	; 0x4002
    58ec:	f8d2 2080 	ldr.w	r2, [r2, #128]	; 0x80
    58f0:	f022 5280 	bic.w	r2, r2, #268435456	; 0x10000000
    58f4:	f8c3 2080 	str.w	r2, [r3, #128]	; 0x80
    58f8:	f44f 4370 	mov.w	r3, #61440	; 0xf000
    58fc:	f2c4 0302 	movt	r3, #16386	; 0x4002
    5900:	f8d3 3080 	ldr.w	r3, [r3, #128]	; 0x80
    5904:	f003 5380 	and.w	r3, r3, #268435456	; 0x10000000
    5908:	2b00      	cmp	r3, #0
    590a:	d1e7      	bne.n	58dc <sai_clear_reg+0x180>

            //Clearing MCR register is a bit tricky, first disable MOE bit, then clear MDR, then change MICS to 0x0
            I2S_MCR_REG(I2S0_BASE_PTR) &= ~I2S_MCR_MOE_MASK;
    590c:	f44f 4370 	mov.w	r3, #61440	; 0xf000
    5910:	f2c4 0302 	movt	r3, #16386	; 0x4002
    5914:	f44f 4270 	mov.w	r2, #61440	; 0xf000
    5918:	f2c4 0202 	movt	r2, #16386	; 0x4002
    591c:	f8d2 2100 	ldr.w	r2, [r2, #256]	; 0x100
    5920:	f022 4280 	bic.w	r2, r2, #1073741824	; 0x40000000
    5924:	f8c3 2100 	str.w	r2, [r3, #256]	; 0x100
            I2S_MDR_REG(I2S0_BASE_PTR) = 0x0;
    5928:	f44f 4370 	mov.w	r3, #61440	; 0xf000
    592c:	f2c4 0302 	movt	r3, #16386	; 0x4002
    5930:	f04f 0200 	mov.w	r2, #0
    5934:	f8c3 2104 	str.w	r2, [r3, #260]	; 0x104
            I2S_MCR_REG(I2S0_BASE_PTR) = I2S_MCR_MICS(0x0);
    5938:	f44f 4370 	mov.w	r3, #61440	; 0xf000
    593c:	f2c4 0302 	movt	r3, #16386	; 0x4002
    5940:	f04f 0200 	mov.w	r2, #0
    5944:	f8c3 2100 	str.w	r2, [r3, #256]	; 0x100
        }
    else if(port == 1)
        {
        }
}
    5948:	f107 0708 	add.w	r7, r7, #8
    594c:	46bd      	mov	sp, r7
    594e:	bd80      	pop	{r7, pc}

00005950 <sai0_rx_isr>:




void sai0_rx_isr(void)
{
    5950:	b480      	push	{r7}
    5952:	af00      	add	r7, sp, #0
    //Clear the IRQ Flag
    I2S_RCSR_REG(I2S0_BASE_PTR) &= ~(I2S_RCSR_FRF_MASK);
    5954:	f44f 4370 	mov.w	r3, #61440	; 0xf000
    5958:	f2c4 0302 	movt	r3, #16386	; 0x4002
    595c:	f44f 4270 	mov.w	r2, #61440	; 0xf000
    5960:	f2c4 0202 	movt	r2, #16386	; 0x4002
    5964:	f8d2 2080 	ldr.w	r2, [r2, #128]	; 0x80
    5968:	f422 3280 	bic.w	r2, r2, #65536	; 0x10000
    596c:	f8c3 2080 	str.w	r2, [r3, #128]	; 0x80
   
    LeftIn = I2S0_RDR0;
    5970:	f44f 4370 	mov.w	r3, #61440	; 0xf000
    5974:	f2c4 0302 	movt	r3, #16386	; 0x4002
    5978:	f8d3 30a0 	ldr.w	r3, [r3, #160]	; 0xa0
    597c:	461a      	mov	r2, r3
    597e:	f24e 1358 	movw	r3, #57688	; 0xe158
    5982:	f6c1 73ff 	movt	r3, #8191	; 0x1fff
    5986:	601a      	str	r2, [r3, #0]
    RightIn = I2S0_RDR0;
    5988:	f44f 4370 	mov.w	r3, #61440	; 0xf000
    598c:	f2c4 0302 	movt	r3, #16386	; 0x4002
    5990:	f8d3 30a0 	ldr.w	r3, [r3, #160]	; 0xa0
    5994:	461a      	mov	r2, r3
    5996:	f24e 03ac 	movw	r3, #57516	; 0xe0ac
    599a:	f6c1 73ff 	movt	r3, #8191	; 0x1fff
    599e:	601a      	str	r2, [r3, #0]

    //Sign extend the 24-bit data to q31_t;

    if(LeftIn & (1<<23))
    59a0:	f24e 1358 	movw	r3, #57688	; 0xe158
    59a4:	f6c1 73ff 	movt	r3, #8191	; 0x1fff
    59a8:	681b      	ldr	r3, [r3, #0]
    59aa:	f403 0300 	and.w	r3, r3, #8388608	; 0x800000
    59ae:	2b00      	cmp	r3, #0
    59b0:	d00d      	beq.n	59ce <sai0_rx_isr+0x7e>
        LeftIn |= 0xFF000000;
    59b2:	f24e 1358 	movw	r3, #57688	; 0xe158
    59b6:	f6c1 73ff 	movt	r3, #8191	; 0x1fff
    59ba:	681b      	ldr	r3, [r3, #0]
    59bc:	f043 437f 	orr.w	r3, r3, #4278190080	; 0xff000000
    59c0:	461a      	mov	r2, r3
    59c2:	f24e 1358 	movw	r3, #57688	; 0xe158
    59c6:	f6c1 73ff 	movt	r3, #8191	; 0x1fff
    59ca:	601a      	str	r2, [r3, #0]
    59cc:	e00b      	b.n	59e6 <sai0_rx_isr+0x96>
    else
        LeftIn &=~0xFF000000;;
    59ce:	f24e 1358 	movw	r3, #57688	; 0xe158
    59d2:	f6c1 73ff 	movt	r3, #8191	; 0x1fff
    59d6:	681b      	ldr	r3, [r3, #0]
    59d8:	f023 427f 	bic.w	r2, r3, #4278190080	; 0xff000000
    59dc:	f24e 1358 	movw	r3, #57688	; 0xe158
    59e0:	f6c1 73ff 	movt	r3, #8191	; 0x1fff
    59e4:	601a      	str	r2, [r3, #0]

    if(RightIn & (1<<23))
    59e6:	f24e 03ac 	movw	r3, #57516	; 0xe0ac
    59ea:	f6c1 73ff 	movt	r3, #8191	; 0x1fff
    59ee:	681b      	ldr	r3, [r3, #0]
    59f0:	f403 0300 	and.w	r3, r3, #8388608	; 0x800000
    59f4:	2b00      	cmp	r3, #0
    59f6:	d00d      	beq.n	5a14 <sai0_rx_isr+0xc4>
        RightIn |= 0xFF000000;
    59f8:	f24e 03ac 	movw	r3, #57516	; 0xe0ac
    59fc:	f6c1 73ff 	movt	r3, #8191	; 0x1fff
    5a00:	681b      	ldr	r3, [r3, #0]
    5a02:	f043 437f 	orr.w	r3, r3, #4278190080	; 0xff000000
    5a06:	461a      	mov	r2, r3
    5a08:	f24e 03ac 	movw	r3, #57516	; 0xe0ac
    5a0c:	f6c1 73ff 	movt	r3, #8191	; 0x1fff
    5a10:	601a      	str	r2, [r3, #0]
    5a12:	e00b      	b.n	5a2c <sai0_rx_isr+0xdc>
    else
        RightIn &=~0xFF000000;;
    5a14:	f24e 03ac 	movw	r3, #57516	; 0xe0ac
    5a18:	f6c1 73ff 	movt	r3, #8191	; 0x1fff
    5a1c:	681b      	ldr	r3, [r3, #0]
    5a1e:	f023 427f 	bic.w	r2, r3, #4278190080	; 0xff000000
    5a22:	f24e 03ac 	movw	r3, #57516	; 0xe0ac
    5a26:	f6c1 73ff 	movt	r3, #8191	; 0x1fff
    5a2a:	601a      	str	r2, [r3, #0]
}
    5a2c:	46bd      	mov	sp, r7
    5a2e:	bc80      	pop	{r7}
    5a30:	4770      	bx	lr
    5a32:	bf00      	nop

00005a34 <sai0_tx_isr>:



void sai0_tx_isr(void)
{
    5a34:	b580      	push	{r7, lr}
    5a36:	af00      	add	r7, sp, #0
    I2S_TCSR_REG(I2S0_BASE_PTR) &= ~(I2S_TCSR_FRF_MASK);
    5a38:	f44f 4370 	mov.w	r3, #61440	; 0xf000
    5a3c:	f2c4 0302 	movt	r3, #16386	; 0x4002
    5a40:	f44f 4270 	mov.w	r2, #61440	; 0xf000
    5a44:	f2c4 0202 	movt	r2, #16386	; 0x4002
    5a48:	6812      	ldr	r2, [r2, #0]
    5a4a:	f422 3280 	bic.w	r2, r2, #65536	; 0x10000
    5a4e:	601a      	str	r2, [r3, #0]
    //Send out the last Queued up values
    I2S0_TDR0 = LeftOut;
    5a50:	f44f 4370 	mov.w	r3, #61440	; 0xf000
    5a54:	f2c4 0302 	movt	r3, #16386	; 0x4002
    5a58:	f24e 02b0 	movw	r2, #57520	; 0xe0b0
    5a5c:	f6c1 72ff 	movt	r2, #8191	; 0x1fff
    5a60:	6812      	ldr	r2, [r2, #0]
    5a62:	621a      	str	r2, [r3, #32]
    I2S0_TDR0 = RightOut;
    5a64:	f44f 4370 	mov.w	r3, #61440	; 0xf000
    5a68:	f2c4 0302 	movt	r3, #16386	; 0x4002
    5a6c:	f24e 1260 	movw	r2, #57696	; 0xe160
    5a70:	f6c1 72ff 	movt	r2, #8191	; 0x1fff
    5a74:	6812      	ldr	r2, [r2, #0]
    5a76:	621a      	str	r2, [r3, #32]
    
    //Process the next set of samples
    GPIOD_PSOR = 1<<3; //Set and clear Port D3 to measure execution Speed
    5a78:	f24f 03c0 	movw	r3, #61632	; 0xf0c0
    5a7c:	f2c4 030f 	movt	r3, #16399	; 0x400f
    5a80:	f04f 0208 	mov.w	r2, #8
    5a84:	605a      	str	r2, [r3, #4]
      	  
    	AudioProcess();
    5a86:	f7fd fddd 	bl	3644 <AudioProcess>
 
    GPIOD_PCOR = 1<<3;
    5a8a:	f24f 03c0 	movw	r3, #61632	; 0xf0c0
    5a8e:	f2c4 030f 	movt	r3, #16399	; 0x400f
    5a92:	f04f 0208 	mov.w	r2, #8
    5a96:	609a      	str	r2, [r3, #8]
     
}
    5a98:	bd80      	pop	{r7, pc}
    5a9a:	bf00      	nop

00005a9c <main>:
#include "drivers/io.h"
#include "DSP/IIR.h"


int main(void)
									{
    5a9c:	b5f0      	push	{r4, r5, r6, r7, lr}
    5a9e:	b083      	sub	sp, #12
    5aa0:	af02      	add	r7, sp, #8

    //Get up and running to 50MHz!
    pll_init(8000000, LOW_POWER, CRYSTAL, 4, 25, 1);
    5aa2:	f04f 0319 	mov.w	r3, #25
    5aa6:	9300      	str	r3, [sp, #0]
    5aa8:	f04f 0301 	mov.w	r3, #1
    5aac:	9301      	str	r3, [sp, #4]
    5aae:	f44f 5090 	mov.w	r0, #4608	; 0x1200
    5ab2:	f2c0 007a 	movt	r0, #122	; 0x7a
    5ab6:	f04f 0100 	mov.w	r1, #0
    5aba:	f04f 0201 	mov.w	r2, #1
    5abe:	f04f 0304 	mov.w	r3, #4
    5ac2:	f7fe fd6f 	bl	45a4 <pll_init>
    InitIO();
    5ac6:	f7fe fbfb 	bl	42c0 <InitIO>
    InitAudioProcess();
    5aca:	f7fd fd99 	bl	3600 <InitAudioProcess>
    EnableInterrupts;
    5ace:	b662      	cpsie	i
    //audio processing
    
    //Switch into the desired Patch
   
   // ChangePatch(PATCH_PASS_THROUGH);
    ChangePatch(PATCH_OVERDRIVE);
    5ad0:	f04f 0003 	mov.w	r0, #3
    5ad4:	f7fd fd82 	bl	35dc <ChangePatch>
   //  ChangePatch(PATCH_OD_DEMO_SINE_TEST);
    for(;;)
        {
    	
    		//For Maker Faire Demo
    		if(IO_ZETA_IS_ON)
    5ad8:	f24f 0380 	movw	r3, #61568	; 0xf080
    5adc:	f2c4 030f 	movt	r3, #16399	; 0x400f
    5ae0:	691b      	ldr	r3, [r3, #16]
    5ae2:	f003 0301 	and.w	r3, r3, #1
    5ae6:	2b00      	cmp	r3, #0
    5ae8:	d007      	beq.n	5afa <main+0x5e>
    		{
    			CurrentPatch = PATCH_TUBEY_CLEAN;
    5aea:	f24e 0300 	movw	r3, #57344	; 0xe000
    5aee:	f6c1 73ff 	movt	r3, #8191	; 0x1fff
    5af2:	f04f 0202 	mov.w	r2, #2
    5af6:	701a      	strb	r2, [r3, #0]
    5af8:	e006      	b.n	5b08 <main+0x6c>
    		}
    		else
    		{
    			CurrentPatch =PATCH_OVERDRIVE;
    5afa:	f24e 0300 	movw	r3, #57344	; 0xe000
    5afe:	f6c1 73ff 	movt	r3, #8191	; 0x1fff
    5b02:	f04f 0203 	mov.w	r2, #3
    5b06:	701a      	strb	r2, [r3, #0]
    		}
    	
            //In the main loop we will  read in the potentiometer values and update the processing routine
            switch(CurrentPatch)
    5b08:	f24e 0300 	movw	r3, #57344	; 0xe000
    5b0c:	f6c1 73ff 	movt	r3, #8191	; 0x1fff
    5b10:	781b      	ldrb	r3, [r3, #0]
    5b12:	2b03      	cmp	r3, #3
    5b14:	d07b      	beq.n	5c0e <main+0x172>
    5b16:	2b07      	cmp	r3, #7
    5b18:	f000 80ef 	beq.w	5cfa <main+0x25e>
    5b1c:	2b02      	cmp	r3, #2
    5b1e:	f040 8103 	bne.w	5d28 <main+0x28c>
                {
                    case PATCH_TUBEY_CLEAN:
                    	SetPotLimits(POT_ALPHA,1000,600);
    5b22:	f04f 0000 	mov.w	r0, #0
    5b26:	f04f 0100 	mov.w	r1, #0
    5b2a:	f2c4 417a 	movt	r1, #17530	; 0x447a
    5b2e:	f04f 0200 	mov.w	r2, #0
    5b32:	f2c4 4216 	movt	r2, #17430	; 0x4416
    5b36:	f7fe fc9d 	bl	4474 <SetPotLimits>
                    	                        //Since a Q31 is 31 bits of fraction and 1 bit of sign,  just
                    	                        //multiply a binary value of 31 bits by the float and cast back to an integer
                    	                        OD_Level = (q31_t)((float)0x7fffffff);
    5b3a:	f24e 0334 	movw	r3, #57396	; 0xe034
    5b3e:	f6c1 73ff 	movt	r3, #8191	; 0x1fff
    5b42:	f06f 4200 	mvn.w	r2, #2147483648	; 0x80000000
    5b46:	601a      	str	r2, [r3, #0]
                    	                        SetPotLimits(POT_BETA,0.001,3.5);
    5b48:	f04f 0001 	mov.w	r0, #1
    5b4c:	f241 216f 	movw	r1, #4719	; 0x126f
    5b50:	f6c3 2183 	movt	r1, #14979	; 0x3a83
    5b54:	f04f 0200 	mov.w	r2, #0
    5b58:	f2c4 0260 	movt	r2, #16480	; 0x4060
    5b5c:	f7fe fc8a 	bl	4474 <SetPotLimits>
                    	                        SetPotLimits(POT_GAMMA,-30,30.0 );
    5b60:	f04f 0002 	mov.w	r0, #2
    5b64:	f04f 0100 	mov.w	r1, #0
    5b68:	f2cc 11f0 	movt	r1, #49648	; 0xc1f0
    5b6c:	f04f 0200 	mov.w	r2, #0
    5b70:	f2c4 12f0 	movt	r2, #16880	; 0x41f0
    5b74:	f7fe fc7e 	bl	4474 <SetPotLimits>
                    	                       
                    	                        DesignAudioBiquadIIR_q31_t(&MyIIR[0].Shadow_Coef,// Pointer to the IIR Structure
    5b78:	f24e 1368 	movw	r3, #57704	; 0xe168
    5b7c:	f6c1 73ff 	movt	r3, #8191	; 0x1fff
    5b80:	681b      	ldr	r3, [r3, #0]
    5b82:	4618      	mov	r0, r3
    5b84:	f7fb fbbc 	bl	1300 <__aeabi_ui2f>
    5b88:	4605      	mov	r5, r0
    5b8a:	f04f 0000 	mov.w	r0, #0
    5b8e:	f7fe fc93 	bl	44b8 <ReadPOT>
    5b92:	4604      	mov	r4, r0
    5b94:	f04f 0001 	mov.w	r0, #1
    5b98:	f7fe fc8e 	bl	44b8 <ReadPOT>
    5b9c:	4606      	mov	r6, r0
    5b9e:	f04f 0002 	mov.w	r0, #2
    5ba2:	f7fe fc89 	bl	44b8 <ReadPOT>
    5ba6:	4603      	mov	r3, r0
    5ba8:	9600      	str	r6, [sp, #0]
    5baa:	9301      	str	r3, [sp, #4]
    5bac:	485f      	ldr	r0, [pc, #380]	; (5d2c <main+0x290>)
    5bae:	f04f 0106 	mov.w	r1, #6
    5bb2:	462a      	mov	r2, r5
    5bb4:	4623      	mov	r3, r4
    5bb6:	f7fb ff7b 	bl	1ab0 <DesignAudioBiquadIIR_q31_t>
                    	                                                   // a boost of N dB followed by a cut of N dB for identical Q and
                    	                                                   // f0/Fs results in a precisely flat unity gain filter or "wire".)*/
                    	                                                   ReadPOT(POT_GAMMA)// dBgain (used only for peaking and shelving filters)
                    	                                                  );
                    	                      
                    	                        DesignAudioBiquadIIR_q31_t(&MyIIR[1].Shadow_Coef,// Pointer to the IIR Structure
    5bba:	f24e 1368 	movw	r3, #57704	; 0xe168
    5bbe:	f6c1 73ff 	movt	r3, #8191	; 0x1fff
    5bc2:	681b      	ldr	r3, [r3, #0]
    5bc4:	4618      	mov	r0, r3
    5bc6:	f7fb fb9b 	bl	1300 <__aeabi_ui2f>
    5bca:	4603      	mov	r3, r0
    5bcc:	f04f 4280 	mov.w	r2, #1073741824	; 0x40000000
    5bd0:	9200      	str	r2, [sp, #0]
    5bd2:	f04f 0200 	mov.w	r2, #0
    5bd6:	9201      	str	r2, [sp, #4]
    5bd8:	4855      	ldr	r0, [pc, #340]	; (5d30 <main+0x294>)
    5bda:	f04f 0100 	mov.w	r1, #0
    5bde:	461a      	mov	r2, r3
    5be0:	f44f 5300 	mov.w	r3, #8192	; 0x2000
    5be4:	f2c4 53cb 	movt	r3, #17867	; 0x45cb
    5be8:	f7fb ff62 	bl	1ab0 <DesignAudioBiquadIIR_q31_t>
                    	                                                                 // a boost of N dB followed by a cut of N dB for identical Q and
                    	                                                                 // f0/Fs results in a precisely flat unity gain filter or "wire".)*/
                    	                                                                 0// (used only for peaking and shelving filters)
                    	                                                                );
                    	           
                    	                        MyIIR[0].Update = 1;
    5bec:	f24e 03b8 	movw	r3, #57528	; 0xe0b8
    5bf0:	f6c1 73ff 	movt	r3, #8191	; 0x1fff
    5bf4:	f04f 0201 	mov.w	r2, #1
    5bf8:	f883 2048 	strb.w	r2, [r3, #72]	; 0x48
                    	                        MyIIR[1].Update = 1;
    5bfc:	f24e 03b8 	movw	r3, #57528	; 0xe0b8
    5c00:	f6c1 73ff 	movt	r3, #8191	; 0x1fff
    5c04:	f04f 0201 	mov.w	r2, #1
    5c08:	f883 2098 	strb.w	r2, [r3, #152]	; 0x98
                    	                        
                        break;
    5c0c:	e08d      	b.n	5d2a <main+0x28e>

                    case PATCH_OVERDRIVE:
                        //The use of the variable OD_Level is documented in the audio process routine.  We just need to generate it
                        //THis doesn't necessary need to be called every time through the loop but it won't Hurt anything.
                        OD_Level =  (q31_t)0x7fffffff;
    5c0e:	f24e 0334 	movw	r3, #57396	; 0xe034
    5c12:	f6c1 73ff 	movt	r3, #8191	; 0x1fff
    5c16:	f06f 4200 	mvn.w	r2, #2147483648	; 0x80000000
    5c1a:	601a      	str	r2, [r3, #0]
                        SetPotLimits(POT_BETA,0.01,.7);
    5c1c:	f04f 0001 	mov.w	r0, #1
    5c20:	f24d 710a 	movw	r1, #55050	; 0xd70a
    5c24:	f6c3 4123 	movt	r1, #15395	; 0x3c23
    5c28:	f243 3233 	movw	r2, #13107	; 0x3333
    5c2c:	f6c3 7233 	movt	r2, #16179	; 0x3f33
    5c30:	f7fe fc20 	bl	4474 <SetPotLimits>
                        SetPotLimits(POT_GAMMA,50,350);
    5c34:	f04f 0002 	mov.w	r0, #2
    5c38:	f04f 0100 	mov.w	r1, #0
    5c3c:	f2c4 2148 	movt	r1, #16968	; 0x4248
    5c40:	f04f 0200 	mov.w	r2, #0
    5c44:	f2c4 32af 	movt	r2, #17327	; 0x43af
    5c48:	f7fe fc14 	bl	4474 <SetPotLimits>
                        SetPotLimits(POT_ALPHA,-40,80);
    5c4c:	f04f 0000 	mov.w	r0, #0
    5c50:	f04f 0100 	mov.w	r1, #0
    5c54:	f2cc 2120 	movt	r1, #49696	; 0xc220
    5c58:	f04f 0200 	mov.w	r2, #0
    5c5c:	f2c4 22a0 	movt	r2, #17056	; 0x42a0
    5c60:	f7fe fc08 	bl	4474 <SetPotLimits>
                        DesignAudioBiquadIIR_q31_t(&MyIIR[0].Shadow_Coef,// Pointer to the IIR Structure
    5c64:	f24e 1368 	movw	r3, #57704	; 0xe168
    5c68:	f6c1 73ff 	movt	r3, #8191	; 0x1fff
    5c6c:	681b      	ldr	r3, [r3, #0]
    5c6e:	4618      	mov	r0, r3
    5c70:	f7fb fb46 	bl	1300 <__aeabi_ui2f>
    5c74:	4605      	mov	r5, r0
    5c76:	f04f 0002 	mov.w	r0, #2
    5c7a:	f7fe fc1d 	bl	44b8 <ReadPOT>
    5c7e:	4604      	mov	r4, r0
    5c80:	f04f 0001 	mov.w	r0, #1
    5c84:	f7fe fc18 	bl	44b8 <ReadPOT>
    5c88:	4606      	mov	r6, r0
    5c8a:	f04f 0000 	mov.w	r0, #0
    5c8e:	f7fe fc13 	bl	44b8 <ReadPOT>
    5c92:	4603      	mov	r3, r0
    5c94:	9600      	str	r6, [sp, #0]
    5c96:	9301      	str	r3, [sp, #4]
    5c98:	4824      	ldr	r0, [pc, #144]	; (5d2c <main+0x290>)
    5c9a:	f04f 0106 	mov.w	r1, #6
    5c9e:	462a      	mov	r2, r5
    5ca0:	4623      	mov	r3, r4
    5ca2:	f7fb ff05 	bl	1ab0 <DesignAudioBiquadIIR_q31_t>
                                                   // the classic EE Q.  That adjustment in definition was made so that
                                                   // a boost of N dB followed by a cut of N dB for identical Q and
                                                   // f0/Fs results in a precisely flat unity gain filter or "wire".)*/
                                                   ReadPOT(POT_ALPHA)// (used only for peaking and shelving filters)
                                                  );
                        DesignAudioBiquadIIR_q31_t(&MyIIR[1].Shadow_Coef,// Pointer to the IIR Structure
    5ca6:	f24e 1368 	movw	r3, #57704	; 0xe168
    5caa:	f6c1 73ff 	movt	r3, #8191	; 0x1fff
    5cae:	681b      	ldr	r3, [r3, #0]
    5cb0:	4618      	mov	r0, r3
    5cb2:	f7fb fb25 	bl	1300 <__aeabi_ui2f>
    5cb6:	4603      	mov	r3, r0
    5cb8:	f04f 4280 	mov.w	r2, #1073741824	; 0x40000000
    5cbc:	9200      	str	r2, [sp, #0]
    5cbe:	f04f 0200 	mov.w	r2, #0
    5cc2:	9201      	str	r2, [sp, #4]
    5cc4:	481a      	ldr	r0, [pc, #104]	; (5d30 <main+0x294>)
    5cc6:	f04f 0100 	mov.w	r1, #0
    5cca:	461a      	mov	r2, r3
    5ccc:	f04f 0300 	mov.w	r3, #0
    5cd0:	f2c4 43fa 	movt	r3, #17658	; 0x44fa
    5cd4:	f7fb feec 	bl	1ab0 <DesignAudioBiquadIIR_q31_t>
                                                   // a boost of N dB followed by a cut of N dB for identical Q and
                                                   // f0/Fs results in a precisely flat unity gain filter or "wire".)*/
                                                   0// (used only for peaking and shelving filters)
                                                  );
                        //Copy in our value,   From there it will be used in the interrupt routine
                        MyIIR[0].Update = 1;
    5cd8:	f24e 03b8 	movw	r3, #57528	; 0xe0b8
    5cdc:	f6c1 73ff 	movt	r3, #8191	; 0x1fff
    5ce0:	f04f 0201 	mov.w	r2, #1
    5ce4:	f883 2048 	strb.w	r2, [r3, #72]	; 0x48
                        MyIIR[1].Update = 1;
    5ce8:	f24e 03b8 	movw	r3, #57528	; 0xe0b8
    5cec:	f6c1 73ff 	movt	r3, #8191	; 0x1fff
    5cf0:	f04f 0201 	mov.w	r2, #1
    5cf4:	f883 2098 	strb.w	r2, [r3, #152]	; 0x98
                        break;
    5cf8:	e017      	b.n	5d2a <main+0x28e>
                        
                    case PATCH_OD_DEMO_SINE_TEST:     
                    	
                    	 SetPotLimits(POT_ALPHA,0,0x7fffffff);
    5cfa:	f04f 0000 	mov.w	r0, #0
    5cfe:	f04f 0100 	mov.w	r1, #0
    5d02:	f04f 429e 	mov.w	r2, #1325400064	; 0x4f000000
    5d06:	f7fe fbb5 	bl	4474 <SetPotLimits>
                    	 OD_Level = ReadPOT(POT_ALPHA);
    5d0a:	f04f 0000 	mov.w	r0, #0
    5d0e:	f7fe fbd3 	bl	44b8 <ReadPOT>
    5d12:	4603      	mov	r3, r0
    5d14:	4618      	mov	r0, r3
    5d16:	f7fb fd11 	bl	173c <__aeabi_f2iz>
    5d1a:	4602      	mov	r2, r0
    5d1c:	f24e 0334 	movw	r3, #57396	; 0xe034
    5d20:	f6c1 73ff 	movt	r3, #8191	; 0x1fff
    5d24:	601a      	str	r2, [r3, #0]
                    	 
                    	break;
    5d26:	e000      	b.n	5d2a <main+0x28e>
                    	
                    	
                        
                    default:
                        break;
    5d28:	bf00      	nop
                }
        }
    5d2a:	e6d5      	b.n	5ad8 <main+0x3c>
    5d2c:	1fffe0e8 	.word	0x1fffe0e8
    5d30:	1fffe138 	.word	0x1fffe138

00005d34 <exit>:
    5d34:	4c0b      	ldr	r4, [pc, #44]	; (5d64 <exit+0x30>)
    5d36:	b508      	push	{r3, lr}
    5d38:	4605      	mov	r5, r0
    5d3a:	f004 f80b 	bl	9d54 <__destroy_global_chain>
    5d3e:	f003 ffb5 	bl	9cac <__fini_cpp>
    5d42:	6823      	ldr	r3, [r4, #0]
    5d44:	b113      	cbz	r3, 5d4c <exit+0x18>
    5d46:	4798      	blx	r3
    5d48:	2000      	movs	r0, #0
    5d4a:	6020      	str	r0, [r4, #0]
    5d4c:	4c06      	ldr	r4, [pc, #24]	; (5d68 <exit+0x34>)
    5d4e:	6821      	ldr	r1, [r4, #0]
    5d50:	b111      	cbz	r1, 5d58 <exit+0x24>
    5d52:	4788      	blx	r1
    5d54:	2200      	movs	r2, #0
    5d56:	6022      	str	r2, [r4, #0]
    5d58:	4628      	mov	r0, r5
    5d5a:	e8bd 4008 	ldmia.w	sp!, {r3, lr}
    5d5e:	f7fb bd89 	b.w	1874 <_ExitProcess>
    5d62:	bf00      	nop
    5d64:	1fffe044 	.word	0x1fffe044
    5d68:	1fffe048 	.word	0x1fffe048

00005d6c <memset>:
    5d6c:	b510      	push	{r4, lr}
    5d6e:	4604      	mov	r4, r0
    5d70:	f001 fd6a 	bl	7848 <__fill_mem>
    5d74:	4620      	mov	r0, r4
    5d76:	bd10      	pop	{r4, pc}

00005d78 <long2str.isra.0>:
    5d78:	e92d 4ff0 	stmdb	sp!, {r4, r5, r6, r7, r8, r9, sl, fp, lr}
    5d7c:	b085      	sub	sp, #20
    5d7e:	4680      	mov	r8, r0
    5d80:	9203      	str	r2, [sp, #12]
    5d82:	2200      	movs	r2, #0
    5d84:	f89d c038 	ldrb.w	ip, [sp, #56]	; 0x38
    5d88:	f89d 403c 	ldrb.w	r4, [sp, #60]	; 0x3c
    5d8c:	f801 2c01 	strb.w	r2, [r1, #-1]
    5d90:	f101 3aff 	add.w	sl, r1, #4294967295
    5d94:	b9d0      	cbnz	r0, 5dcc <long2str.isra.0+0x54>
    5d96:	9a11      	ldr	r2, [sp, #68]	; 0x44
    5d98:	b9c2      	cbnz	r2, 5dcc <long2str.isra.0+0x54>
    5d9a:	f1bc 0f00 	cmp.w	ip, #0
    5d9e:	d001      	beq.n	5da4 <long2str.isra.0+0x2c>
    5da0:	2c6f      	cmp	r4, #111	; 0x6f
    5da2:	d031      	beq.n	5e08 <long2str.isra.0+0x90>
    5da4:	2c64      	cmp	r4, #100	; 0x64
    5da6:	d002      	beq.n	5dae <long2str.isra.0+0x36>
    5da8:	2c69      	cmp	r4, #105	; 0x69
    5daa:	f040 80ac 	bne.w	5f06 <long2str.isra.0+0x18e>
    5dae:	2b02      	cmp	r3, #2
    5db0:	d103      	bne.n	5dba <long2str.isra.0+0x42>
    5db2:	f1a1 0a02 	sub.w	sl, r1, #2
    5db6:	2020      	movs	r0, #32
    5db8:	e005      	b.n	5dc6 <long2str.isra.0+0x4e>
    5dba:	2b01      	cmp	r3, #1
    5dbc:	f040 80a3 	bne.w	5f06 <long2str.isra.0+0x18e>
    5dc0:	f1a1 0a02 	sub.w	sl, r1, #2
    5dc4:	202b      	movs	r0, #43	; 0x2b
    5dc6:	f801 0c02 	strb.w	r0, [r1, #-2]
    5dca:	e09c      	b.n	5f06 <long2str.isra.0+0x18e>
    5dcc:	2c69      	cmp	r4, #105	; 0x69
    5dce:	d00f      	beq.n	5df0 <long2str.isra.0+0x78>
    5dd0:	d804      	bhi.n	5ddc <long2str.isra.0+0x64>
    5dd2:	2c58      	cmp	r4, #88	; 0x58
    5dd4:	d014      	beq.n	5e00 <long2str.isra.0+0x88>
    5dd6:	2c64      	cmp	r4, #100	; 0x64
    5dd8:	d11a      	bne.n	5e10 <long2str.isra.0+0x98>
    5dda:	e009      	b.n	5df0 <long2str.isra.0+0x78>
    5ddc:	2c75      	cmp	r4, #117	; 0x75
    5dde:	d005      	beq.n	5dec <long2str.isra.0+0x74>
    5de0:	2c78      	cmp	r4, #120	; 0x78
    5de2:	d00d      	beq.n	5e00 <long2str.isra.0+0x88>
    5de4:	2c6f      	cmp	r4, #111	; 0x6f
    5de6:	d113      	bne.n	5e10 <long2str.isra.0+0x98>
    5de8:	2300      	movs	r3, #0
    5dea:	e00e      	b.n	5e0a <long2str.isra.0+0x92>
    5dec:	2300      	movs	r3, #0
    5dee:	e00f      	b.n	5e10 <long2str.isra.0+0x98>
    5df0:	2800      	cmp	r0, #0
    5df2:	da0d      	bge.n	5e10 <long2str.isra.0+0x98>
    5df4:	f1b0 4f00 	cmp.w	r0, #2147483648	; 0x80000000
    5df8:	d00c      	beq.n	5e14 <long2str.isra.0+0x9c>
    5dfa:	4240      	negs	r0, r0
    5dfc:	4680      	mov	r8, r0
    5dfe:	e009      	b.n	5e14 <long2str.isra.0+0x9c>
    5e00:	2300      	movs	r3, #0
    5e02:	461d      	mov	r5, r3
    5e04:	2210      	movs	r2, #16
    5e06:	e007      	b.n	5e18 <long2str.isra.0+0xa0>
    5e08:	9b11      	ldr	r3, [sp, #68]	; 0x44
    5e0a:	461d      	mov	r5, r3
    5e0c:	2208      	movs	r2, #8
    5e0e:	e003      	b.n	5e18 <long2str.isra.0+0xa0>
    5e10:	2500      	movs	r5, #0
    5e12:	e000      	b.n	5e16 <long2str.isra.0+0x9e>
    5e14:	2501      	movs	r5, #1
    5e16:	220a      	movs	r2, #10
    5e18:	1e8e      	subs	r6, r1, #2
    5e1a:	9601      	str	r6, [sp, #4]
    5e1c:	f04f 0a00 	mov.w	sl, #0
    5e20:	fbb8 f7f2 	udiv	r7, r8, r2
    5e24:	fb02 8b17 	mls	fp, r2, r7, r8
    5e28:	f1bb 0f09 	cmp.w	fp, #9
    5e2c:	9702      	str	r7, [sp, #8]
    5e2e:	46b8      	mov	r8, r7
    5e30:	d802      	bhi.n	5e38 <long2str.isra.0+0xc0>
    5e32:	f10b 0b30 	add.w	fp, fp, #48	; 0x30
    5e36:	e005      	b.n	5e44 <long2str.isra.0+0xcc>
    5e38:	2c78      	cmp	r4, #120	; 0x78
    5e3a:	bf0c      	ite	eq
    5e3c:	f10b 0b57 	addeq.w	fp, fp, #87	; 0x57
    5e40:	f10b 0b37 	addne.w	fp, fp, #55	; 0x37
    5e44:	9f01      	ldr	r7, [sp, #4]
    5e46:	9e02      	ldr	r6, [sp, #8]
    5e48:	f107 39ff 	add.w	r9, r7, #4294967295
    5e4c:	fa5f fb8b 	uxtb.w	fp, fp
    5e50:	f8cd 9004 	str.w	r9, [sp, #4]
    5e54:	f887 b000 	strb.w	fp, [r7]
    5e58:	f10a 0901 	add.w	r9, sl, #1
    5e5c:	b10e      	cbz	r6, 5e62 <long2str.isra.0+0xea>
    5e5e:	46ca      	mov	sl, r9
    5e60:	e7de      	b.n	5e20 <long2str.isra.0+0xa8>
    5e62:	2a08      	cmp	r2, #8
    5e64:	46b8      	mov	r8, r7
    5e66:	d10c      	bne.n	5e82 <long2str.isra.0+0x10a>
    5e68:	f1bc 0f00 	cmp.w	ip, #0
    5e6c:	d009      	beq.n	5e82 <long2str.isra.0+0x10a>
    5e6e:	f1bb 0f30 	cmp.w	fp, #48	; 0x30
    5e72:	d006      	beq.n	5e82 <long2str.isra.0+0x10a>
    5e74:	f04f 0930 	mov.w	r9, #48	; 0x30
    5e78:	9f01      	ldr	r7, [sp, #4]
    5e7a:	f808 9c01 	strb.w	r9, [r8, #-1]
    5e7e:	f10a 0902 	add.w	r9, sl, #2
    5e82:	9e03      	ldr	r6, [sp, #12]
    5e84:	2e02      	cmp	r6, #2
    5e86:	d10c      	bne.n	5ea2 <long2str.isra.0+0x12a>
    5e88:	b905      	cbnz	r5, 5e8c <long2str.isra.0+0x114>
    5e8a:	b113      	cbz	r3, 5e92 <long2str.isra.0+0x11a>
    5e8c:	9e10      	ldr	r6, [sp, #64]	; 0x40
    5e8e:	3e01      	subs	r6, #1
    5e90:	9610      	str	r6, [sp, #64]	; 0x40
    5e92:	2a10      	cmp	r2, #16
    5e94:	9e10      	ldr	r6, [sp, #64]	; 0x40
    5e96:	d103      	bne.n	5ea0 <long2str.isra.0+0x128>
    5e98:	f1bc 0f00 	cmp.w	ip, #0
    5e9c:	d000      	beq.n	5ea0 <long2str.isra.0+0x128>
    5e9e:	3e02      	subs	r6, #2
    5ea0:	9611      	str	r6, [sp, #68]	; 0x44
    5ea2:	9e11      	ldr	r6, [sp, #68]	; 0x44
    5ea4:	1bc9      	subs	r1, r1, r7
    5ea6:	1989      	adds	r1, r1, r6
    5ea8:	f5b1 7fff 	cmp.w	r1, #510	; 0x1fe
    5eac:	da29      	bge.n	5f02 <long2str.isra.0+0x18a>
    5eae:	4639      	mov	r1, r7
    5eb0:	eb07 0809 	add.w	r8, r7, r9
    5eb4:	9e11      	ldr	r6, [sp, #68]	; 0x44
    5eb6:	ebc1 0808 	rsb	r8, r1, r8
    5eba:	45b0      	cmp	r8, r6
    5ebc:	468a      	mov	sl, r1
    5ebe:	da04      	bge.n	5eca <long2str.isra.0+0x152>
    5ec0:	f04f 0630 	mov.w	r6, #48	; 0x30
    5ec4:	f801 6d01 	strb.w	r6, [r1, #-1]!
    5ec8:	e7f2      	b.n	5eb0 <long2str.isra.0+0x138>
    5eca:	2a10      	cmp	r2, #16
    5ecc:	d10a      	bne.n	5ee4 <long2str.isra.0+0x16c>
    5ece:	f1bc 0f00 	cmp.w	ip, #0
    5ed2:	d007      	beq.n	5ee4 <long2str.isra.0+0x16c>
    5ed4:	b130      	cbz	r0, 5ee4 <long2str.isra.0+0x16c>
    5ed6:	2030      	movs	r0, #48	; 0x30
    5ed8:	f801 4c01 	strb.w	r4, [r1, #-1]
    5edc:	f1a1 0a02 	sub.w	sl, r1, #2
    5ee0:	f801 0c02 	strb.w	r0, [r1, #-2]
    5ee4:	b10d      	cbz	r5, 5eea <long2str.isra.0+0x172>
    5ee6:	232d      	movs	r3, #45	; 0x2d
    5ee8:	e006      	b.n	5ef8 <long2str.isra.0+0x180>
    5eea:	2b01      	cmp	r3, #1
    5eec:	d101      	bne.n	5ef2 <long2str.isra.0+0x17a>
    5eee:	232b      	movs	r3, #43	; 0x2b
    5ef0:	e002      	b.n	5ef8 <long2str.isra.0+0x180>
    5ef2:	2b02      	cmp	r3, #2
    5ef4:	d107      	bne.n	5f06 <long2str.isra.0+0x18e>
    5ef6:	2320      	movs	r3, #32
    5ef8:	f80a 3c01 	strb.w	r3, [sl, #-1]
    5efc:	f10a 3aff 	add.w	sl, sl, #4294967295
    5f00:	e001      	b.n	5f06 <long2str.isra.0+0x18e>
    5f02:	f04f 0a00 	mov.w	sl, #0
    5f06:	4650      	mov	r0, sl
    5f08:	b005      	add	sp, #20
    5f0a:	e8bd 8ff0 	ldmia.w	sp!, {r4, r5, r6, r7, r8, r9, sl, fp, pc}
	...

00005f10 <__pformatter>:
    5f10:	e92d 4ff0 	stmdb	sp!, {r4, r5, r6, r7, r8, r9, sl, fp, lr}
    5f14:	f5ad 7d1b 	sub.w	sp, sp, #620	; 0x26c
    5f18:	4698      	mov	r8, r3
    5f1a:	2320      	movs	r3, #32
    5f1c:	9008      	str	r0, [sp, #32]
    5f1e:	9109      	str	r1, [sp, #36]	; 0x24
    5f20:	f88d 303a 	strb.w	r3, [sp, #58]	; 0x3a
    5f24:	9207      	str	r2, [sp, #28]
    5f26:	2600      	movs	r6, #0
    5f28:	9d07      	ldr	r5, [sp, #28]
    5f2a:	7828      	ldrb	r0, [r5, #0]
    5f2c:	2800      	cmp	r0, #0
    5f2e:	f000 8406 	beq.w	673e <__pformatter+0x82e>
    5f32:	9807      	ldr	r0, [sp, #28]
    5f34:	2125      	movs	r1, #37	; 0x25
    5f36:	f001 fcce 	bl	78d6 <strchr>
    5f3a:	900c      	str	r0, [sp, #48]	; 0x30
    5f3c:	b978      	cbnz	r0, 5f5e <__pformatter+0x4e>
    5f3e:	9807      	ldr	r0, [sp, #28]
    5f40:	f001 fcdd 	bl	78fe <strlen>
    5f44:	4602      	mov	r2, r0
    5f46:	1836      	adds	r6, r6, r0
    5f48:	2800      	cmp	r0, #0
    5f4a:	f000 83f8 	beq.w	673e <__pformatter+0x82e>
    5f4e:	9809      	ldr	r0, [sp, #36]	; 0x24
    5f50:	9907      	ldr	r1, [sp, #28]
    5f52:	9d08      	ldr	r5, [sp, #32]
    5f54:	47a8      	blx	r5
    5f56:	2800      	cmp	r0, #0
    5f58:	f040 83f1 	bne.w	673e <__pformatter+0x82e>
    5f5c:	e342      	b.n	65e4 <__pformatter+0x6d4>
    5f5e:	9d0c      	ldr	r5, [sp, #48]	; 0x30
    5f60:	9907      	ldr	r1, [sp, #28]
    5f62:	1a6a      	subs	r2, r5, r1
    5f64:	18b6      	adds	r6, r6, r2
    5f66:	b132      	cbz	r2, 5f76 <__pformatter+0x66>
    5f68:	9809      	ldr	r0, [sp, #36]	; 0x24
    5f6a:	9907      	ldr	r1, [sp, #28]
    5f6c:	9d08      	ldr	r5, [sp, #32]
    5f6e:	47a8      	blx	r5
    5f70:	2800      	cmp	r0, #0
    5f72:	f000 8337 	beq.w	65e4 <__pformatter+0x6d4>
    5f76:	9c0c      	ldr	r4, [sp, #48]	; 0x30
    5f78:	9a0c      	ldr	r2, [sp, #48]	; 0x30
    5f7a:	7863      	ldrb	r3, [r4, #1]
    5f7c:	3201      	adds	r2, #1
    5f7e:	2b25      	cmp	r3, #37	; 0x25
    5f80:	461c      	mov	r4, r3
    5f82:	d005      	beq.n	5f90 <__pformatter+0x80>
    5f84:	2500      	movs	r5, #0
    5f86:	9505      	str	r5, [sp, #20]
    5f88:	9506      	str	r5, [sp, #24]
    5f8a:	f04f 0a01 	mov.w	sl, #1
    5f8e:	e015      	b.n	5fbc <__pformatter+0xac>
    5f90:	9d0c      	ldr	r5, [sp, #48]	; 0x30
    5f92:	1caa      	adds	r2, r5, #2
    5f94:	2500      	movs	r5, #0
    5f96:	9207      	str	r2, [sp, #28]
    5f98:	46ab      	mov	fp, r5
    5f9a:	462a      	mov	r2, r5
    5f9c:	9505      	str	r5, [sp, #20]
    5f9e:	9506      	str	r5, [sp, #24]
    5fa0:	f04f 0a01 	mov.w	sl, #1
    5fa4:	2b58      	cmp	r3, #88	; 0x58
    5fa6:	e058      	b.n	605a <__pformatter+0x14a>
    5fa8:	dc0b      	bgt.n	5fc2 <__pformatter+0xb2>
    5faa:	2b20      	cmp	r3, #32
    5fac:	d017      	beq.n	5fde <__pformatter+0xce>
    5fae:	2b23      	cmp	r3, #35	; 0x23
    5fb0:	f040 8291 	bne.w	64d6 <__pformatter+0x5c6>
    5fb4:	2501      	movs	r5, #1
    5fb6:	9505      	str	r5, [sp, #20]
    5fb8:	f812 3f01 	ldrb.w	r3, [r2, #1]!
    5fbc:	2b2b      	cmp	r3, #43	; 0x2b
    5fbe:	d1f3      	bne.n	5fa8 <__pformatter+0x98>
    5fc0:	e3b8      	b.n	6734 <__pformatter+0x824>
    5fc2:	2b2d      	cmp	r3, #45	; 0x2d
    5fc4:	f000 83b3 	beq.w	672e <__pformatter+0x81e>
    5fc8:	2b30      	cmp	r3, #48	; 0x30
    5fca:	f040 8284 	bne.w	64d6 <__pformatter+0x5c6>
    5fce:	f1ba 0f00 	cmp.w	sl, #0
    5fd2:	bf14      	ite	ne
    5fd4:	f04f 0a02 	movne.w	sl, #2
    5fd8:	f04f 0a00 	moveq.w	sl, #0
    5fdc:	e7ec      	b.n	5fb8 <__pformatter+0xa8>
    5fde:	f8dd 9018 	ldr.w	r9, [sp, #24]
    5fe2:	f1b9 0f01 	cmp.w	r9, #1
    5fe6:	bf0c      	ite	eq
    5fe8:	f04f 0901 	moveq.w	r9, #1
    5fec:	f04f 0902 	movne.w	r9, #2
    5ff0:	e3a2      	b.n	6738 <__pformatter+0x828>
    5ff2:	f8d8 5000 	ldr.w	r5, [r8]
    5ff6:	43eb      	mvns	r3, r5
    5ff8:	0fd9      	lsrs	r1, r3, #31
    5ffa:	f108 0804 	add.w	r8, r8, #4
    5ffe:	7883      	ldrb	r3, [r0, #2]
    6000:	3002      	adds	r0, #2
    6002:	f1a3 044c 	sub.w	r4, r3, #76	; 0x4c
    6006:	2c20      	cmp	r4, #32
    6008:	f200 8318 	bhi.w	663c <__pformatter+0x72c>
    600c:	4fb4      	ldr	r7, [pc, #720]	; (62e0 <__pformatter+0x3d0>)
    600e:	5d3a      	ldrb	r2, [r7, r4]
    6010:	4fb4      	ldr	r7, [pc, #720]	; (62e4 <__pformatter+0x3d4>)
    6012:	573c      	ldrsb	r4, [r7, r4]
    6014:	b10c      	cbz	r4, 601a <__pformatter+0x10a>
    6016:	7843      	ldrb	r3, [r0, #1]
    6018:	3001      	adds	r0, #1
    601a:	2b66      	cmp	r3, #102	; 0x66
    601c:	b2dc      	uxtb	r4, r3
    601e:	f000 8333 	beq.w	6688 <__pformatter+0x778>
    6022:	f340 830d 	ble.w	6640 <__pformatter+0x730>
    6026:	2b6f      	cmp	r3, #111	; 0x6f
    6028:	f000 8325 	beq.w	6676 <__pformatter+0x766>
    602c:	f340 8318 	ble.w	6660 <__pformatter+0x750>
    6030:	2b73      	cmp	r3, #115	; 0x73
    6032:	f000 8337 	beq.w	66a4 <__pformatter+0x794>
    6036:	f300 831a 	bgt.w	666e <__pformatter+0x75e>
    603a:	2b70      	cmp	r3, #112	; 0x70
    603c:	f040 833c 	bne.w	66b8 <__pformatter+0x7a8>
    6040:	2301      	movs	r3, #1
    6042:	2478      	movs	r4, #120	; 0x78
    6044:	2508      	movs	r5, #8
    6046:	2203      	movs	r2, #3
    6048:	9305      	str	r3, [sp, #20]
    604a:	3001      	adds	r0, #1
    604c:	2c67      	cmp	r4, #103	; 0x67
    604e:	9007      	str	r0, [sp, #28]
    6050:	d816      	bhi.n	6080 <__pformatter+0x170>
    6052:	2c65      	cmp	r4, #101	; 0x65
    6054:	d241      	bcs.n	60da <__pformatter+0x1ca>
    6056:	2c58      	cmp	r4, #88	; 0x58
    6058:	d02b      	beq.n	60b2 <__pformatter+0x1a2>
    605a:	d80a      	bhi.n	6072 <__pformatter+0x162>
    605c:	2c25      	cmp	r4, #37	; 0x25
    605e:	f000 8232 	beq.w	64c6 <__pformatter+0x5b6>
    6062:	f0c0 824d 	bcc.w	6500 <__pformatter+0x5f0>
    6066:	f1a4 0045 	sub.w	r0, r4, #69	; 0x45
    606a:	2802      	cmp	r0, #2
    606c:	f200 8248 	bhi.w	6500 <__pformatter+0x5f0>
    6070:	e033      	b.n	60da <__pformatter+0x1ca>
    6072:	2c63      	cmp	r4, #99	; 0x63
    6074:	f000 8220 	beq.w	64b8 <__pformatter+0x5a8>
    6078:	2c64      	cmp	r4, #100	; 0x64
    607a:	f040 8241 	bne.w	6500 <__pformatter+0x5f0>
    607e:	e005      	b.n	608c <__pformatter+0x17c>
    6080:	2c6f      	cmp	r4, #111	; 0x6f
    6082:	d016      	beq.n	60b2 <__pformatter+0x1a2>
    6084:	d812      	bhi.n	60ac <__pformatter+0x19c>
    6086:	2c69      	cmp	r4, #105	; 0x69
    6088:	f040 8318 	bne.w	66bc <__pformatter+0x7ac>
    608c:	2a03      	cmp	r2, #3
    608e:	f8d8 0000 	ldr.w	r0, [r8]
    6092:	f108 0704 	add.w	r7, r8, #4
    6096:	d006      	beq.n	60a6 <__pformatter+0x196>
    6098:	2a02      	cmp	r2, #2
    609a:	d101      	bne.n	60a0 <__pformatter+0x190>
    609c:	b200      	sxth	r0, r0
    609e:	e002      	b.n	60a6 <__pformatter+0x196>
    60a0:	2a01      	cmp	r2, #1
    60a2:	bf08      	it	eq
    60a4:	b240      	sxtbeq	r0, r0
    60a6:	9b05      	ldr	r3, [sp, #20]
    60a8:	9300      	str	r3, [sp, #0]
    60aa:	e00b      	b.n	60c4 <__pformatter+0x1b4>
    60ac:	2c75      	cmp	r4, #117	; 0x75
    60ae:	f040 8232 	bne.w	6516 <__pformatter+0x606>
    60b2:	2a03      	cmp	r2, #3
    60b4:	f8d8 0000 	ldr.w	r0, [r8]
    60b8:	f108 0704 	add.w	r7, r8, #4
    60bc:	f040 8302 	bne.w	66c4 <__pformatter+0x7b4>
    60c0:	9905      	ldr	r1, [sp, #20]
    60c2:	9100      	str	r1, [sp, #0]
    60c4:	9401      	str	r4, [sp, #4]
    60c6:	f8cd b008 	str.w	fp, [sp, #8]
    60ca:	9503      	str	r5, [sp, #12]
    60cc:	a99a      	add	r1, sp, #616	; 0x268
    60ce:	4652      	mov	r2, sl
    60d0:	9b06      	ldr	r3, [sp, #24]
    60d2:	f7ff fe51 	bl	5d78 <long2str.isra.0>
    60d6:	4681      	mov	r9, r0
    60d8:	e1e6      	b.n	64a8 <__pformatter+0x598>
    60da:	f108 0807 	add.w	r8, r8, #7
    60de:	f028 0107 	bic.w	r1, r8, #7
    60e2:	e9d1 8900 	ldrd	r8, r9, [r1]
    60e6:	f5b5 7fff 	cmp.w	r5, #510	; 0x1fe
    60ea:	f101 0708 	add.w	r7, r1, #8
    60ee:	e9cd 890a 	strd	r8, r9, [sp, #40]	; 0x28
    60f2:	f280 8205 	bge.w	6500 <__pformatter+0x5f0>
    60f6:	f10d 0840 	add.w	r8, sp, #64	; 0x40
    60fa:	2300      	movs	r3, #0
    60fc:	2220      	movs	r2, #32
    60fe:	f88d 303c 	strb.w	r3, [sp, #60]	; 0x3c
    6102:	f8ad 203e 	strh.w	r2, [sp, #62]	; 0x3e
    6106:	f8cd 8000 	str.w	r8, [sp]
    610a:	a80f      	add	r0, sp, #60	; 0x3c
    610c:	e9dd 230a 	ldrd	r2, r3, [sp, #40]	; 0x28
    6110:	f001 fbfe 	bl	7910 <__num2dec>
    6114:	f898 0004 	ldrb.w	r0, [r8, #4]
    6118:	4480      	add	r8, r0
    611a:	f108 0005 	add.w	r0, r8, #5
    611e:	f89d 3044 	ldrb.w	r3, [sp, #68]	; 0x44
    6122:	2b01      	cmp	r3, #1
    6124:	d90c      	bls.n	6140 <__pformatter+0x230>
    6126:	f810 1d01 	ldrb.w	r1, [r0, #-1]!
    612a:	2930      	cmp	r1, #48	; 0x30
    612c:	d108      	bne.n	6140 <__pformatter+0x230>
    612e:	f8bd 1042 	ldrh.w	r1, [sp, #66]	; 0x42
    6132:	3b01      	subs	r3, #1
    6134:	1c4a      	adds	r2, r1, #1
    6136:	f88d 3044 	strb.w	r3, [sp, #68]	; 0x44
    613a:	f8ad 2042 	strh.w	r2, [sp, #66]	; 0x42
    613e:	e7ee      	b.n	611e <__pformatter+0x20e>
    6140:	f89d 2045 	ldrb.w	r2, [sp, #69]	; 0x45
    6144:	2a49      	cmp	r2, #73	; 0x49
    6146:	d007      	beq.n	6158 <__pformatter+0x248>
    6148:	2a4e      	cmp	r2, #78	; 0x4e
    614a:	d024      	beq.n	6196 <__pformatter+0x286>
    614c:	2a30      	cmp	r2, #48	; 0x30
    614e:	d142      	bne.n	61d6 <__pformatter+0x2c6>
    6150:	2000      	movs	r0, #0
    6152:	f8ad 0042 	strh.w	r0, [sp, #66]	; 0x42
    6156:	e03e      	b.n	61d6 <__pformatter+0x2c6>
    6158:	e9dd 010a 	ldrd	r0, r1, [sp, #40]	; 0x28
    615c:	2200      	movs	r2, #0
    615e:	2300      	movs	r3, #0
    6160:	f7fa ff78 	bl	1054 <__aeabi_dcmplt>
    6164:	b158      	cbz	r0, 617e <__pformatter+0x26e>
    6166:	4620      	mov	r0, r4
    6168:	f000 fede 	bl	6f28 <isupper>
    616c:	b118      	cbz	r0, 6176 <__pformatter+0x266>
    616e:	f20d 2063 	addw	r0, sp, #611	; 0x263
    6172:	495d      	ldr	r1, [pc, #372]	; (62e8 <__pformatter+0x3d8>)
    6174:	e019      	b.n	61aa <__pformatter+0x29a>
    6176:	f20d 2063 	addw	r0, sp, #611	; 0x263
    617a:	495c      	ldr	r1, [pc, #368]	; (62ec <__pformatter+0x3dc>)
    617c:	e015      	b.n	61aa <__pformatter+0x29a>
    617e:	4620      	mov	r0, r4
    6180:	f000 fed2 	bl	6f28 <isupper>
    6184:	f50d 7919 	add.w	r9, sp, #612	; 0x264
    6188:	b110      	cbz	r0, 6190 <__pformatter+0x280>
    618a:	4648      	mov	r0, r9
    618c:	4958      	ldr	r1, [pc, #352]	; (62f0 <__pformatter+0x3e0>)
    618e:	e01f      	b.n	61d0 <__pformatter+0x2c0>
    6190:	4648      	mov	r0, r9
    6192:	4958      	ldr	r1, [pc, #352]	; (62f4 <__pformatter+0x3e4>)
    6194:	e01c      	b.n	61d0 <__pformatter+0x2c0>
    6196:	f99d 2040 	ldrsb.w	r2, [sp, #64]	; 0x40
    619a:	4620      	mov	r0, r4
    619c:	b172      	cbz	r2, 61bc <__pformatter+0x2ac>
    619e:	f000 fec3 	bl	6f28 <isupper>
    61a2:	b138      	cbz	r0, 61b4 <__pformatter+0x2a4>
    61a4:	4954      	ldr	r1, [pc, #336]	; (62f8 <__pformatter+0x3e8>)
    61a6:	f20d 2063 	addw	r0, sp, #611	; 0x263
    61aa:	f001 fba1 	bl	78f0 <strcpy>
    61ae:	f20d 2963 	addw	r9, sp, #611	; 0x263
    61b2:	e179      	b.n	64a8 <__pformatter+0x598>
    61b4:	f20d 2063 	addw	r0, sp, #611	; 0x263
    61b8:	4950      	ldr	r1, [pc, #320]	; (62fc <__pformatter+0x3ec>)
    61ba:	e7f6      	b.n	61aa <__pformatter+0x29a>
    61bc:	f000 feb4 	bl	6f28 <isupper>
    61c0:	f50d 7919 	add.w	r9, sp, #612	; 0x264
    61c4:	b110      	cbz	r0, 61cc <__pformatter+0x2bc>
    61c6:	4648      	mov	r0, r9
    61c8:	494d      	ldr	r1, [pc, #308]	; (6300 <__pformatter+0x3f0>)
    61ca:	e001      	b.n	61d0 <__pformatter+0x2c0>
    61cc:	494d      	ldr	r1, [pc, #308]	; (6304 <__pformatter+0x3f4>)
    61ce:	4648      	mov	r0, r9
    61d0:	f001 fb8e 	bl	78f0 <strcpy>
    61d4:	e168      	b.n	64a8 <__pformatter+0x598>
    61d6:	f8bd 1042 	ldrh.w	r1, [sp, #66]	; 0x42
    61da:	1e4a      	subs	r2, r1, #1
    61dc:	1898      	adds	r0, r3, r2
    61de:	2100      	movs	r1, #0
    61e0:	2c47      	cmp	r4, #71	; 0x47
    61e2:	f8ad 0042 	strh.w	r0, [sp, #66]	; 0x42
    61e6:	f88d 1267 	strb.w	r1, [sp, #615]	; 0x267
    61ea:	d00f      	beq.n	620c <__pformatter+0x2fc>
    61ec:	d805      	bhi.n	61fa <__pformatter+0x2ea>
    61ee:	2c45      	cmp	r4, #69	; 0x45
    61f0:	d031      	beq.n	6256 <__pformatter+0x346>
    61f2:	2c46      	cmp	r4, #70	; 0x46
    61f4:	f040 8156 	bne.w	64a4 <__pformatter+0x594>
    61f8:	e0bb      	b.n	6372 <__pformatter+0x462>
    61fa:	2c66      	cmp	r4, #102	; 0x66
    61fc:	f000 80b9 	beq.w	6372 <__pformatter+0x462>
    6200:	2c67      	cmp	r4, #103	; 0x67
    6202:	d003      	beq.n	620c <__pformatter+0x2fc>
    6204:	2c65      	cmp	r4, #101	; 0x65
    6206:	f040 814d 	bne.w	64a4 <__pformatter+0x594>
    620a:	e024      	b.n	6256 <__pformatter+0x346>
    620c:	42ab      	cmp	r3, r5
    620e:	dd03      	ble.n	6218 <__pformatter+0x308>
    6210:	a810      	add	r0, sp, #64	; 0x40
    6212:	4629      	mov	r1, r5
    6214:	f001 fd44 	bl	7ca0 <__round_decimal>
    6218:	f9bd 3042 	ldrsh.w	r3, [sp, #66]	; 0x42
    621c:	1d1a      	adds	r2, r3, #4
    621e:	db01      	blt.n	6224 <__pformatter+0x314>
    6220:	42ab      	cmp	r3, r5
    6222:	db0d      	blt.n	6240 <__pformatter+0x330>
    6224:	9805      	ldr	r0, [sp, #20]
    6226:	b908      	cbnz	r0, 622c <__pformatter+0x31c>
    6228:	f89d 5044 	ldrb.w	r5, [sp, #68]	; 0x44
    622c:	2c67      	cmp	r4, #103	; 0x67
    622e:	bf14      	ite	ne
    6230:	f04f 0c45 	movne.w	ip, #69	; 0x45
    6234:	f04f 0c65 	moveq.w	ip, #101	; 0x65
    6238:	3d01      	subs	r5, #1
    623a:	f8cd c028 	str.w	ip, [sp, #40]	; 0x28
    623e:	e00b      	b.n	6258 <__pformatter+0x348>
    6240:	9805      	ldr	r0, [sp, #20]
    6242:	43da      	mvns	r2, r3
    6244:	b108      	cbz	r0, 624a <__pformatter+0x33a>
    6246:	18ad      	adds	r5, r5, r2
    6248:	e093      	b.n	6372 <__pformatter+0x462>
    624a:	f89d 5044 	ldrb.w	r5, [sp, #68]	; 0x44
    624e:	18a9      	adds	r1, r5, r2
    6250:	ea21 75e1 	bic.w	r5, r1, r1, asr #31
    6254:	e08d      	b.n	6372 <__pformatter+0x462>
    6256:	940a      	str	r4, [sp, #40]	; 0x28
    6258:	f89d 3044 	ldrb.w	r3, [sp, #68]	; 0x44
    625c:	f105 0801 	add.w	r8, r5, #1
    6260:	4543      	cmp	r3, r8
    6262:	dd03      	ble.n	626c <__pformatter+0x35c>
    6264:	a810      	add	r0, sp, #64	; 0x40
    6266:	4641      	mov	r1, r8
    6268:	f001 fd1a 	bl	7ca0 <__round_decimal>
    626c:	f9bd 3042 	ldrsh.w	r3, [sp, #66]	; 0x42
    6270:	2b00      	cmp	r3, #0
    6272:	da02      	bge.n	627a <__pformatter+0x36a>
    6274:	425b      	negs	r3, r3
    6276:	202d      	movs	r0, #45	; 0x2d
    6278:	e000      	b.n	627c <__pformatter+0x36c>
    627a:	202b      	movs	r0, #43	; 0x2b
    627c:	f20d 2267 	addw	r2, sp, #615	; 0x267
    6280:	2100      	movs	r1, #0
    6282:	b15b      	cbz	r3, 629c <__pformatter+0x38c>
    6284:	f04f 090a 	mov.w	r9, #10
    6288:	fb93 fcf9 	sdiv	ip, r3, r9
    628c:	fb09 331c 	mls	r3, r9, ip, r3
    6290:	3330      	adds	r3, #48	; 0x30
    6292:	f802 3d01 	strb.w	r3, [r2, #-1]!
    6296:	3101      	adds	r1, #1
    6298:	4663      	mov	r3, ip
    629a:	e7f2      	b.n	6282 <__pformatter+0x372>
    629c:	2901      	cmp	r1, #1
    629e:	ddf1      	ble.n	6284 <__pformatter+0x374>
    62a0:	f8dd e028 	ldr.w	lr, [sp, #40]	; 0x28
    62a4:	f802 0c01 	strb.w	r0, [r2, #-1]
    62a8:	1e93      	subs	r3, r2, #2
    62aa:	a99a      	add	r1, sp, #616	; 0x268
    62ac:	f802 ec02 	strb.w	lr, [r2, #-2]
    62b0:	1aca      	subs	r2, r1, r3
    62b2:	1950      	adds	r0, r2, r5
    62b4:	f5b0 7fff 	cmp.w	r0, #510	; 0x1fe
    62b8:	f280 8122 	bge.w	6500 <__pformatter+0x5f0>
    62bc:	f89d 2044 	ldrb.w	r2, [sp, #68]	; 0x44
    62c0:	4295      	cmp	r5, r2
    62c2:	db22      	blt.n	630a <__pformatter+0x3fa>
    62c4:	ebc2 0808 	rsb	r8, r2, r8
    62c8:	4641      	mov	r1, r8
    62ca:	3901      	subs	r1, #1
    62cc:	1c48      	adds	r0, r1, #1
    62ce:	ebc8 0003 	rsb	r0, r8, r3
    62d2:	d019      	beq.n	6308 <__pformatter+0x3f8>
    62d4:	f04f 0e30 	mov.w	lr, #48	; 0x30
    62d8:	f800 e001 	strb.w	lr, [r0, r1]
    62dc:	e7f5      	b.n	62ca <__pformatter+0x3ba>
    62de:	bf00      	nop
    62e0:	000121e9 	.word	0x000121e9
    62e4:	000121c8 	.word	0x000121c8
    62e8:	000121b4 	.word	0x000121b4
    62ec:	000121b9 	.word	0x000121b9
    62f0:	000121b5 	.word	0x000121b5
    62f4:	000121ba 	.word	0x000121ba
    62f8:	000121be 	.word	0x000121be
    62fc:	000121c3 	.word	0x000121c3
    6300:	000121bf 	.word	0x000121bf
    6304:	000121c4 	.word	0x000121c4
    6308:	4603      	mov	r3, r0
    630a:	a910      	add	r1, sp, #64	; 0x40
    630c:	eb01 0902 	add.w	r9, r1, r2
    6310:	f109 0c05 	add.w	ip, r9, #5
    6314:	2100      	movs	r1, #0
    6316:	3901      	subs	r1, #1
    6318:	1850      	adds	r0, r2, r1
    631a:	b118      	cbz	r0, 6324 <__pformatter+0x414>
    631c:	f81c 0001 	ldrb.w	r0, [ip, r1]
    6320:	5458      	strb	r0, [r3, r1]
    6322:	e7f8      	b.n	6316 <__pformatter+0x406>
    6324:	3a01      	subs	r2, #1
    6326:	1a9b      	subs	r3, r3, r2
    6328:	b90d      	cbnz	r5, 632e <__pformatter+0x41e>
    632a:	9d05      	ldr	r5, [sp, #20]
    632c:	b11d      	cbz	r5, 6336 <__pformatter+0x426>
    632e:	212e      	movs	r1, #46	; 0x2e
    6330:	f803 1c01 	strb.w	r1, [r3, #-1]
    6334:	3b01      	subs	r3, #1
    6336:	f89d 0045 	ldrb.w	r0, [sp, #69]	; 0x45
    633a:	f99d 2040 	ldrsb.w	r2, [sp, #64]	; 0x40
    633e:	f803 0c01 	strb.w	r0, [r3, #-1]
    6342:	b11a      	cbz	r2, 634c <__pformatter+0x43c>
    6344:	f1a3 0902 	sub.w	r9, r3, #2
    6348:	212d      	movs	r1, #45	; 0x2d
    634a:	e00f      	b.n	636c <__pformatter+0x45c>
    634c:	9d06      	ldr	r5, [sp, #24]
    634e:	2d01      	cmp	r5, #1
    6350:	d103      	bne.n	635a <__pformatter+0x44a>
    6352:	f1a3 0902 	sub.w	r9, r3, #2
    6356:	212b      	movs	r1, #43	; 0x2b
    6358:	e008      	b.n	636c <__pformatter+0x45c>
    635a:	9d06      	ldr	r5, [sp, #24]
    635c:	2d02      	cmp	r5, #2
    635e:	f103 39ff 	add.w	r9, r3, #4294967295
    6362:	f040 80a1 	bne.w	64a8 <__pformatter+0x598>
    6366:	f1a3 0902 	sub.w	r9, r3, #2
    636a:	2120      	movs	r1, #32
    636c:	f803 1c02 	strb.w	r1, [r3, #-2]
    6370:	e09a      	b.n	64a8 <__pformatter+0x598>
    6372:	f9bd 3042 	ldrsh.w	r3, [sp, #66]	; 0x42
    6376:	f89d 2044 	ldrb.w	r2, [sp, #68]	; 0x44
    637a:	1ad0      	subs	r0, r2, r3
    637c:	1e41      	subs	r1, r0, #1
    637e:	ea21 73e1 	bic.w	r3, r1, r1, asr #31
    6382:	42ab      	cmp	r3, r5
    6384:	dd0c      	ble.n	63a0 <__pformatter+0x490>
    6386:	1aeb      	subs	r3, r5, r3
    6388:	18d1      	adds	r1, r2, r3
    638a:	a810      	add	r0, sp, #64	; 0x40
    638c:	f001 fc88 	bl	7ca0 <__round_decimal>
    6390:	f89d 2044 	ldrb.w	r2, [sp, #68]	; 0x44
    6394:	f9bd 0042 	ldrsh.w	r0, [sp, #66]	; 0x42
    6398:	1a11      	subs	r1, r2, r0
    639a:	1e4b      	subs	r3, r1, #1
    639c:	ea23 73e3 	bic.w	r3, r3, r3, asr #31
    63a0:	f9bd c042 	ldrsh.w	ip, [sp, #66]	; 0x42
    63a4:	f10c 0801 	add.w	r8, ip, #1
    63a8:	ea28 72e8 	bic.w	r2, r8, r8, asr #31
    63ac:	18d0      	adds	r0, r2, r3
    63ae:	f5b0 7fff 	cmp.w	r0, #510	; 0x1fe
    63b2:	9204      	str	r2, [sp, #16]
    63b4:	f280 80a4 	bge.w	6500 <__pformatter+0x5f0>
    63b8:	f89d 1044 	ldrb.w	r1, [sp, #68]	; 0x44
    63bc:	aa10      	add	r2, sp, #64	; 0x40
    63be:	1850      	adds	r0, r2, r1
    63c0:	910a      	str	r1, [sp, #40]	; 0x28
    63c2:	3005      	adds	r0, #5
    63c4:	2200      	movs	r2, #0
    63c6:	ebc3 0e05 	rsb	lr, r3, r5
    63ca:	4572      	cmp	r2, lr
    63cc:	da07      	bge.n	63de <__pformatter+0x4ce>
    63ce:	a99a      	add	r1, sp, #616	; 0x268
    63d0:	1a89      	subs	r1, r1, r2
    63d2:	f04f 0e30 	mov.w	lr, #48	; 0x30
    63d6:	f801 ec02 	strb.w	lr, [r1, #-2]
    63da:	3201      	adds	r2, #1
    63dc:	e7f3      	b.n	63c6 <__pformatter+0x4b6>
    63de:	f20d 2167 	addw	r1, sp, #615	; 0x267
    63e2:	ea2e 79ee 	bic.w	r9, lr, lr, asr #31
    63e6:	ebc9 0901 	rsb	r9, r9, r1
    63ea:	2100      	movs	r1, #0
    63ec:	4299      	cmp	r1, r3
    63ee:	4602      	mov	r2, r0
    63f0:	da0a      	bge.n	6408 <__pformatter+0x4f8>
    63f2:	f8dd 8028 	ldr.w	r8, [sp, #40]	; 0x28
    63f6:	4541      	cmp	r1, r8
    63f8:	da06      	bge.n	6408 <__pformatter+0x4f8>
    63fa:	f812 2c01 	ldrb.w	r2, [r2, #-1]
    63fe:	3801      	subs	r0, #1
    6400:	f809 2d01 	strb.w	r2, [r9, #-1]!
    6404:	3101      	adds	r1, #1
    6406:	e7f1      	b.n	63ec <__pformatter+0x4dc>
    6408:	464a      	mov	r2, r9
    640a:	eb01 0e09 	add.w	lr, r1, r9
    640e:	ebc2 080e 	rsb	r8, r2, lr
    6412:	4598      	cmp	r8, r3
    6414:	4694      	mov	ip, r2
    6416:	da04      	bge.n	6422 <__pformatter+0x512>
    6418:	f04f 0830 	mov.w	r8, #48	; 0x30
    641c:	f802 8d01 	strb.w	r8, [r2, #-1]!
    6420:	e7f3      	b.n	640a <__pformatter+0x4fa>
    6422:	b90d      	cbnz	r5, 6428 <__pformatter+0x518>
    6424:	9d05      	ldr	r5, [sp, #20]
    6426:	b125      	cbz	r5, 6432 <__pformatter+0x522>
    6428:	232e      	movs	r3, #46	; 0x2e
    642a:	f102 3cff 	add.w	ip, r2, #4294967295
    642e:	f802 3c01 	strb.w	r3, [r2, #-1]
    6432:	9904      	ldr	r1, [sp, #16]
    6434:	b1f1      	cbz	r1, 6474 <__pformatter+0x564>
    6436:	4661      	mov	r1, ip
    6438:	2300      	movs	r3, #0
    643a:	9d04      	ldr	r5, [sp, #16]
    643c:	f8dd 8028 	ldr.w	r8, [sp, #40]	; 0x28
    6440:	ebc8 0205 	rsb	r2, r8, r5
    6444:	4293      	cmp	r3, r2
    6446:	da04      	bge.n	6452 <__pformatter+0x542>
    6448:	2230      	movs	r2, #48	; 0x30
    644a:	f801 2d01 	strb.w	r2, [r1, #-1]!
    644e:	3301      	adds	r3, #1
    6450:	e7f3      	b.n	643a <__pformatter+0x52a>
    6452:	ea22 72e2 	bic.w	r2, r2, r2, asr #31
    6456:	ebc2 0c0c 	rsb	ip, r2, ip
    645a:	4663      	mov	r3, ip
    645c:	eb0c 0102 	add.w	r1, ip, r2
    6460:	9d04      	ldr	r5, [sp, #16]
    6462:	1ac9      	subs	r1, r1, r3
    6464:	42a9      	cmp	r1, r5
    6466:	4699      	mov	r9, r3
    6468:	da09      	bge.n	647e <__pformatter+0x56e>
    646a:	f810 5d01 	ldrb.w	r5, [r0, #-1]!
    646e:	f803 5d01 	strb.w	r5, [r3, #-1]!
    6472:	e7f3      	b.n	645c <__pformatter+0x54c>
    6474:	2030      	movs	r0, #48	; 0x30
    6476:	f10c 39ff 	add.w	r9, ip, #4294967295
    647a:	f80c 0c01 	strb.w	r0, [ip, #-1]
    647e:	f99d 3040 	ldrsb.w	r3, [sp, #64]	; 0x40
    6482:	b10b      	cbz	r3, 6488 <__pformatter+0x578>
    6484:	202d      	movs	r0, #45	; 0x2d
    6486:	e008      	b.n	649a <__pformatter+0x58a>
    6488:	9d06      	ldr	r5, [sp, #24]
    648a:	2d01      	cmp	r5, #1
    648c:	d101      	bne.n	6492 <__pformatter+0x582>
    648e:	202b      	movs	r0, #43	; 0x2b
    6490:	e003      	b.n	649a <__pformatter+0x58a>
    6492:	9d06      	ldr	r5, [sp, #24]
    6494:	2d02      	cmp	r5, #2
    6496:	d107      	bne.n	64a8 <__pformatter+0x598>
    6498:	2020      	movs	r0, #32
    649a:	f809 0c01 	strb.w	r0, [r9, #-1]
    649e:	f109 39ff 	add.w	r9, r9, #4294967295
    64a2:	e001      	b.n	64a8 <__pformatter+0x598>
    64a4:	f20d 2967 	addw	r9, sp, #615	; 0x267
    64a8:	f1b9 0f00 	cmp.w	r9, #0
    64ac:	d028      	beq.n	6500 <__pformatter+0x5f0>
    64ae:	f20d 2567 	addw	r5, sp, #615	; 0x267
    64b2:	ebc9 0805 	rsb	r8, r9, r5
    64b6:	e046      	b.n	6546 <__pformatter+0x636>
    64b8:	f8d8 0000 	ldr.w	r0, [r8]
    64bc:	f108 0704 	add.w	r7, r8, #4
    64c0:	f88d 0068 	strb.w	r0, [sp, #104]	; 0x68
    64c4:	e002      	b.n	64cc <__pformatter+0x5bc>
    64c6:	f88d 4068 	strb.w	r4, [sp, #104]	; 0x68
    64ca:	4647      	mov	r7, r8
    64cc:	f10d 0968 	add.w	r9, sp, #104	; 0x68
    64d0:	f04f 0801 	mov.w	r8, #1
    64d4:	e037      	b.n	6546 <__pformatter+0x636>
    64d6:	2b2a      	cmp	r3, #42	; 0x2a
    64d8:	f040 811b 	bne.w	6712 <__pformatter+0x802>
    64dc:	f8d8 b000 	ldr.w	fp, [r8]
    64e0:	7853      	ldrb	r3, [r2, #1]
    64e2:	f1bb 0f00 	cmp.w	fp, #0
    64e6:	f108 0104 	add.w	r1, r8, #4
    64ea:	bfbc      	itt	lt
    64ec:	f1cb 0b00 	rsblt	fp, fp, #0
    64f0:	f04f 0a00 	movlt.w	sl, #0
    64f4:	4688      	mov	r8, r1
    64f6:	1c50      	adds	r0, r2, #1
    64f8:	f5bb 7fff 	cmp.w	fp, #510	; 0x1fe
    64fc:	f2c0 8086 	blt.w	660c <__pformatter+0x6fc>
    6500:	980c      	ldr	r0, [sp, #48]	; 0x30
    6502:	f001 f9fc 	bl	78fe <strlen>
    6506:	4602      	mov	r2, r0
    6508:	1836      	adds	r6, r6, r0
    650a:	2800      	cmp	r0, #0
    650c:	f000 8117 	beq.w	673e <__pformatter+0x82e>
    6510:	9809      	ldr	r0, [sp, #36]	; 0x24
    6512:	990c      	ldr	r1, [sp, #48]	; 0x30
    6514:	e51d      	b.n	5f52 <__pformatter+0x42>
    6516:	2c78      	cmp	r4, #120	; 0x78
    6518:	f43f adcb 	beq.w	60b2 <__pformatter+0x1a2>
    651c:	2c73      	cmp	r4, #115	; 0x73
    651e:	d1ef      	bne.n	6500 <__pformatter+0x5f0>
    6520:	f8d8 3000 	ldr.w	r3, [r8]
    6524:	4a88      	ldr	r2, [pc, #544]	; (6748 <__pformatter+0x838>)
    6526:	9805      	ldr	r0, [sp, #20]
    6528:	f108 0704 	add.w	r7, r8, #4
    652c:	2b00      	cmp	r3, #0
    652e:	bf14      	ite	ne
    6530:	4699      	movne	r9, r3
    6532:	4691      	moveq	r9, r2
    6534:	2800      	cmp	r0, #0
    6536:	f000 80cd 	beq.w	66d4 <__pformatter+0x7c4>
    653a:	f819 8b01 	ldrb.w	r8, [r9], #1
    653e:	b111      	cbz	r1, 6546 <__pformatter+0x636>
    6540:	45a8      	cmp	r8, r5
    6542:	bfa8      	it	ge
    6544:	46a8      	movge	r8, r5
    6546:	f1ba 0f00 	cmp.w	sl, #0
    654a:	d03d      	beq.n	65c8 <__pformatter+0x6b8>
    654c:	f1ba 0f02 	cmp.w	sl, #2
    6550:	bf14      	ite	ne
    6552:	2120      	movne	r1, #32
    6554:	2130      	moveq	r1, #48	; 0x30
    6556:	f88d 103a 	strb.w	r1, [sp, #58]	; 0x3a
    655a:	f899 2000 	ldrb.w	r2, [r9]
    655e:	2a2b      	cmp	r2, #43	; 0x2b
    6560:	d003      	beq.n	656a <__pformatter+0x65a>
    6562:	2a2d      	cmp	r2, #45	; 0x2d
    6564:	d001      	beq.n	656a <__pformatter+0x65a>
    6566:	2a20      	cmp	r2, #32
    6568:	d10d      	bne.n	6586 <__pformatter+0x676>
    656a:	2930      	cmp	r1, #48	; 0x30
    656c:	d10b      	bne.n	6586 <__pformatter+0x676>
    656e:	9809      	ldr	r0, [sp, #36]	; 0x24
    6570:	9d08      	ldr	r5, [sp, #32]
    6572:	4649      	mov	r1, r9
    6574:	2201      	movs	r2, #1
    6576:	47a8      	blx	r5
    6578:	2800      	cmp	r0, #0
    657a:	d033      	beq.n	65e4 <__pformatter+0x6d4>
    657c:	f109 0901 	add.w	r9, r9, #1
    6580:	f108 35ff 	add.w	r5, r8, #4294967295
    6584:	e000      	b.n	6588 <__pformatter+0x678>
    6586:	4645      	mov	r5, r8
    6588:	f1ba 0f02 	cmp.w	sl, #2
    658c:	d10e      	bne.n	65ac <__pformatter+0x69c>
    658e:	2c61      	cmp	r4, #97	; 0x61
    6590:	d001      	beq.n	6596 <__pformatter+0x686>
    6592:	2c41      	cmp	r4, #65	; 0x41
    6594:	d10a      	bne.n	65ac <__pformatter+0x69c>
    6596:	2d01      	cmp	r5, #1
    6598:	dd24      	ble.n	65e4 <__pformatter+0x6d4>
    659a:	9809      	ldr	r0, [sp, #36]	; 0x24
    659c:	9b08      	ldr	r3, [sp, #32]
    659e:	4649      	mov	r1, r9
    65a0:	2202      	movs	r2, #2
    65a2:	4798      	blx	r3
    65a4:	b1f0      	cbz	r0, 65e4 <__pformatter+0x6d4>
    65a6:	3d02      	subs	r5, #2
    65a8:	f109 0902 	add.w	r9, r9, #2
    65ac:	4644      	mov	r4, r8
    65ae:	455c      	cmp	r4, fp
    65b0:	da08      	bge.n	65c4 <__pformatter+0x6b4>
    65b2:	9809      	ldr	r0, [sp, #36]	; 0x24
    65b4:	9b08      	ldr	r3, [sp, #32]
    65b6:	f10d 013a 	add.w	r1, sp, #58	; 0x3a
    65ba:	2201      	movs	r2, #1
    65bc:	4798      	blx	r3
    65be:	b188      	cbz	r0, 65e4 <__pformatter+0x6d4>
    65c0:	3401      	adds	r4, #1
    65c2:	e7f4      	b.n	65ae <__pformatter+0x69e>
    65c4:	46a8      	mov	r8, r5
    65c6:	e000      	b.n	65ca <__pformatter+0x6ba>
    65c8:	4644      	mov	r4, r8
    65ca:	f1b8 0f00 	cmp.w	r8, #0
    65ce:	d005      	beq.n	65dc <__pformatter+0x6cc>
    65d0:	9809      	ldr	r0, [sp, #36]	; 0x24
    65d2:	9d08      	ldr	r5, [sp, #32]
    65d4:	4649      	mov	r1, r9
    65d6:	4642      	mov	r2, r8
    65d8:	47a8      	blx	r5
    65da:	b118      	cbz	r0, 65e4 <__pformatter+0x6d4>
    65dc:	f1ba 0f00 	cmp.w	sl, #0
    65e0:	d111      	bne.n	6606 <__pformatter+0x6f6>
    65e2:	e00e      	b.n	6602 <__pformatter+0x6f2>
    65e4:	f04f 36ff 	mov.w	r6, #4294967295
    65e8:	e0a9      	b.n	673e <__pformatter+0x82e>
    65ea:	2520      	movs	r5, #32
    65ec:	f88d 503b 	strb.w	r5, [sp, #59]	; 0x3b
    65f0:	9809      	ldr	r0, [sp, #36]	; 0x24
    65f2:	9d08      	ldr	r5, [sp, #32]
    65f4:	f10d 013b 	add.w	r1, sp, #59	; 0x3b
    65f8:	2201      	movs	r2, #1
    65fa:	47a8      	blx	r5
    65fc:	2800      	cmp	r0, #0
    65fe:	d0f1      	beq.n	65e4 <__pformatter+0x6d4>
    6600:	3401      	adds	r4, #1
    6602:	455c      	cmp	r4, fp
    6604:	dbf1      	blt.n	65ea <__pformatter+0x6da>
    6606:	1936      	adds	r6, r6, r4
    6608:	46b8      	mov	r8, r7
    660a:	e48d      	b.n	5f28 <__pformatter+0x18>
    660c:	2b2e      	cmp	r3, #46	; 0x2e
    660e:	d112      	bne.n	6636 <__pformatter+0x726>
    6610:	7843      	ldrb	r3, [r0, #1]
    6612:	1c42      	adds	r2, r0, #1
    6614:	2b2a      	cmp	r3, #42	; 0x2a
    6616:	f43f acec 	beq.w	5ff2 <__pformatter+0xe2>
    661a:	2500      	movs	r5, #0
    661c:	f1a3 0430 	sub.w	r4, r3, #48	; 0x30
    6620:	2c09      	cmp	r4, #9
    6622:	4610      	mov	r0, r2
    6624:	d805      	bhi.n	6632 <__pformatter+0x722>
    6626:	200a      	movs	r0, #10
    6628:	fb00 4505 	mla	r5, r0, r5, r4
    662c:	f812 3f01 	ldrb.w	r3, [r2, #1]!
    6630:	e7f4      	b.n	661c <__pformatter+0x70c>
    6632:	2101      	movs	r1, #1
    6634:	e4e5      	b.n	6002 <__pformatter+0xf2>
    6636:	2500      	movs	r5, #0
    6638:	4629      	mov	r1, r5
    663a:	e4e2      	b.n	6002 <__pformatter+0xf2>
    663c:	2200      	movs	r2, #0
    663e:	e4ec      	b.n	601a <__pformatter+0x10a>
    6640:	2b58      	cmp	r3, #88	; 0x58
    6642:	d018      	beq.n	6676 <__pformatter+0x766>
    6644:	dc06      	bgt.n	6654 <__pformatter+0x744>
    6646:	2b46      	cmp	r3, #70	; 0x46
    6648:	d01e      	beq.n	6688 <__pformatter+0x778>
    664a:	2b47      	cmp	r3, #71	; 0x47
    664c:	d01f      	beq.n	668e <__pformatter+0x77e>
    664e:	2b45      	cmp	r3, #69	; 0x45
    6650:	d132      	bne.n	66b8 <__pformatter+0x7a8>
    6652:	e01f      	b.n	6694 <__pformatter+0x784>
    6654:	2b64      	cmp	r3, #100	; 0x64
    6656:	d00e      	beq.n	6676 <__pformatter+0x766>
    6658:	dc1c      	bgt.n	6694 <__pformatter+0x784>
    665a:	2b63      	cmp	r3, #99	; 0x63
    665c:	d12c      	bne.n	66b8 <__pformatter+0x7a8>
    665e:	e020      	b.n	66a2 <__pformatter+0x792>
    6660:	2b69      	cmp	r3, #105	; 0x69
    6662:	d008      	beq.n	6676 <__pformatter+0x766>
    6664:	2b6e      	cmp	r3, #110	; 0x6e
    6666:	d021      	beq.n	66ac <__pformatter+0x79c>
    6668:	2b67      	cmp	r3, #103	; 0x67
    666a:	d125      	bne.n	66b8 <__pformatter+0x7a8>
    666c:	e00f      	b.n	668e <__pformatter+0x77e>
    666e:	2b75      	cmp	r3, #117	; 0x75
    6670:	d001      	beq.n	6676 <__pformatter+0x766>
    6672:	2b78      	cmp	r3, #120	; 0x78
    6674:	d120      	bne.n	66b8 <__pformatter+0x7a8>
    6676:	2a04      	cmp	r2, #4
    6678:	d01e      	beq.n	66b8 <__pformatter+0x7a8>
    667a:	b1d9      	cbz	r1, 66b4 <__pformatter+0x7a4>
    667c:	f1ba 0f02 	cmp.w	sl, #2
    6680:	bf08      	it	eq
    6682:	f04f 0a01 	moveq.w	sl, #1
    6686:	e4e0      	b.n	604a <__pformatter+0x13a>
    6688:	2a02      	cmp	r2, #2
    668a:	d106      	bne.n	669a <__pformatter+0x78a>
    668c:	e014      	b.n	66b8 <__pformatter+0x7a8>
    668e:	2d00      	cmp	r5, #0
    6690:	bf08      	it	eq
    6692:	2501      	moveq	r5, #1
    6694:	1e53      	subs	r3, r2, #1
    6696:	2b01      	cmp	r3, #1
    6698:	d90e      	bls.n	66b8 <__pformatter+0x7a8>
    669a:	2900      	cmp	r1, #0
    669c:	bf08      	it	eq
    669e:	2506      	moveq	r5, #6
    66a0:	e4d3      	b.n	604a <__pformatter+0x13a>
    66a2:	b949      	cbnz	r1, 66b8 <__pformatter+0x7a8>
    66a4:	2a00      	cmp	r2, #0
    66a6:	bf18      	it	ne
    66a8:	24ff      	movne	r4, #255	; 0xff
    66aa:	e4ce      	b.n	604a <__pformatter+0x13a>
    66ac:	2a04      	cmp	r2, #4
    66ae:	bf08      	it	eq
    66b0:	24ff      	moveq	r4, #255	; 0xff
    66b2:	e4ca      	b.n	604a <__pformatter+0x13a>
    66b4:	2501      	movs	r5, #1
    66b6:	e4c8      	b.n	604a <__pformatter+0x13a>
    66b8:	24ff      	movs	r4, #255	; 0xff
    66ba:	e4c6      	b.n	604a <__pformatter+0x13a>
    66bc:	2c6e      	cmp	r4, #110	; 0x6e
    66be:	f47f af1f 	bne.w	6500 <__pformatter+0x5f0>
    66c2:	e015      	b.n	66f0 <__pformatter+0x7e0>
    66c4:	2a02      	cmp	r2, #2
    66c6:	d101      	bne.n	66cc <__pformatter+0x7bc>
    66c8:	b280      	uxth	r0, r0
    66ca:	e4f9      	b.n	60c0 <__pformatter+0x1b0>
    66cc:	2a01      	cmp	r2, #1
    66ce:	bf08      	it	eq
    66d0:	b2c0      	uxtbeq	r0, r0
    66d2:	e4f5      	b.n	60c0 <__pformatter+0x1b0>
    66d4:	4648      	mov	r0, r9
    66d6:	b139      	cbz	r1, 66e8 <__pformatter+0x7d8>
    66d8:	9905      	ldr	r1, [sp, #20]
    66da:	462a      	mov	r2, r5
    66dc:	f001 f8ef 	bl	78be <memchr>
    66e0:	b1a8      	cbz	r0, 670e <__pformatter+0x7fe>
    66e2:	ebc9 0800 	rsb	r8, r9, r0
    66e6:	e72e      	b.n	6546 <__pformatter+0x636>
    66e8:	f001 f909 	bl	78fe <strlen>
    66ec:	4680      	mov	r8, r0
    66ee:	e72a      	b.n	6546 <__pformatter+0x636>
    66f0:	2a02      	cmp	r2, #2
    66f2:	f108 0704 	add.w	r7, r8, #4
    66f6:	f8d8 5000 	ldr.w	r5, [r8]
    66fa:	d004      	beq.n	6706 <__pformatter+0x7f6>
    66fc:	2a03      	cmp	r2, #3
    66fe:	d004      	beq.n	670a <__pformatter+0x7fa>
    6700:	2a00      	cmp	r2, #0
    6702:	d181      	bne.n	6608 <__pformatter+0x6f8>
    6704:	e001      	b.n	670a <__pformatter+0x7fa>
    6706:	802e      	strh	r6, [r5, #0]
    6708:	e77e      	b.n	6608 <__pformatter+0x6f8>
    670a:	602e      	str	r6, [r5, #0]
    670c:	e77c      	b.n	6608 <__pformatter+0x6f8>
    670e:	46a8      	mov	r8, r5
    6710:	e719      	b.n	6546 <__pformatter+0x636>
    6712:	f04f 0b00 	mov.w	fp, #0
    6716:	f1a3 0130 	sub.w	r1, r3, #48	; 0x30
    671a:	2909      	cmp	r1, #9
    671c:	4610      	mov	r0, r2
    671e:	f63f aeeb 	bhi.w	64f8 <__pformatter+0x5e8>
    6722:	230a      	movs	r3, #10
    6724:	fb03 1b0b 	mla	fp, r3, fp, r1
    6728:	3201      	adds	r2, #1
    672a:	7843      	ldrb	r3, [r0, #1]
    672c:	e7f3      	b.n	6716 <__pformatter+0x806>
    672e:	f04f 0a00 	mov.w	sl, #0
    6732:	e441      	b.n	5fb8 <__pformatter+0xa8>
    6734:	f04f 0901 	mov.w	r9, #1
    6738:	f8cd 9018 	str.w	r9, [sp, #24]
    673c:	e43c      	b.n	5fb8 <__pformatter+0xa8>
    673e:	4630      	mov	r0, r6
    6740:	f50d 7d1b 	add.w	sp, sp, #620	; 0x26c
    6744:	e8bd 8ff0 	ldmia.w	sp!, {r4, r5, r6, r7, r8, r9, sl, fp, pc}
    6748:	000121b8 	.word	0x000121b8

0000674c <__sformatter>:
    674c:	e92d 4ff0 	stmdb	sp!, {r4, r5, r6, r7, r8, r9, sl, fp, lr}
    6750:	b0a5      	sub	sp, #148	; 0x94
    6752:	2400      	movs	r4, #0
    6754:	4607      	mov	r7, r0
    6756:	4688      	mov	r8, r1
    6758:	930b      	str	r3, [sp, #44]	; 0x2c
    675a:	4692      	mov	sl, r2
    675c:	940a      	str	r4, [sp, #40]	; 0x28
    675e:	9409      	str	r4, [sp, #36]	; 0x24
    6760:	46a3      	mov	fp, r4
    6762:	9406      	str	r4, [sp, #24]
    6764:	9407      	str	r4, [sp, #28]
    6766:	4626      	mov	r6, r4
    6768:	f89a 5000 	ldrb.w	r5, [sl]
    676c:	2d00      	cmp	r5, #0
    676e:	f000 8390 	beq.w	6e92 <__sformatter+0x746>
    6772:	4628      	mov	r0, r5
    6774:	f000 fbca 	bl	6f0c <isspace>
    6778:	b308      	cbz	r0, 67be <__sformatter+0x72>
    677a:	f10a 0501 	add.w	r5, sl, #1
    677e:	46aa      	mov	sl, r5
    6780:	f105 0501 	add.w	r5, r5, #1
    6784:	f89a 0000 	ldrb.w	r0, [sl]
    6788:	f000 fbc0 	bl	6f0c <isspace>
    678c:	2800      	cmp	r0, #0
    678e:	d1f6      	bne.n	677e <__sformatter+0x32>
    6790:	2c00      	cmp	r4, #0
    6792:	f040 837c 	bne.w	6e8e <__sformatter+0x742>
    6796:	2100      	movs	r1, #0
    6798:	4640      	mov	r0, r8
    679a:	460a      	mov	r2, r1
    679c:	47b8      	blx	r7
    679e:	4605      	mov	r5, r0
    67a0:	f000 fbb4 	bl	6f0c <isspace>
    67a4:	b108      	cbz	r0, 67aa <__sformatter+0x5e>
    67a6:	3601      	adds	r6, #1
    67a8:	e7f5      	b.n	6796 <__sformatter+0x4a>
    67aa:	1c69      	adds	r1, r5, #1
    67ac:	d104      	bne.n	67b8 <__sformatter+0x6c>
    67ae:	982e      	ldr	r0, [sp, #184]	; 0xb8
    67b0:	2800      	cmp	r0, #0
    67b2:	f000 836e 	beq.w	6e92 <__sformatter+0x746>
    67b6:	2401      	movs	r4, #1
    67b8:	4640      	mov	r0, r8
    67ba:	4629      	mov	r1, r5
    67bc:	e341      	b.n	6e42 <__sformatter+0x6f6>
    67be:	2d25      	cmp	r5, #37	; 0x25
    67c0:	d015      	beq.n	67ee <__sformatter+0xa2>
    67c2:	b9a4      	cbnz	r4, 67ee <__sformatter+0xa2>
    67c4:	4621      	mov	r1, r4
    67c6:	4640      	mov	r0, r8
    67c8:	4622      	mov	r2, r4
    67ca:	47b8      	blx	r7
    67cc:	b2c1      	uxtb	r1, r0
    67ce:	42a9      	cmp	r1, r5
    67d0:	d009      	beq.n	67e6 <__sformatter+0x9a>
    67d2:	4640      	mov	r0, r8
    67d4:	2201      	movs	r2, #1
    67d6:	47b8      	blx	r7
    67d8:	992e      	ldr	r1, [sp, #184]	; 0xb8
    67da:	2900      	cmp	r1, #0
    67dc:	f000 8359 	beq.w	6e92 <__sformatter+0x746>
    67e0:	f10a 0a01 	add.w	sl, sl, #1
    67e4:	e353      	b.n	6e8e <__sformatter+0x742>
    67e6:	3601      	adds	r6, #1
    67e8:	f10a 0a01 	add.w	sl, sl, #1
    67ec:	e7bc      	b.n	6768 <__sformatter+0x1c>
    67ee:	2100      	movs	r1, #0
    67f0:	2228      	movs	r2, #40	; 0x28
    67f2:	a81a      	add	r0, sp, #104	; 0x68
    67f4:	f7ff faba 	bl	5d6c <memset>
    67f8:	f89a 9001 	ldrb.w	r9, [sl, #1]
    67fc:	f06f 4c00 	mvn.w	ip, #2147483648	; 0x80000000
    6800:	f1b9 0f25 	cmp.w	r9, #37	; 0x25
    6804:	f8cd c06c 	str.w	ip, [sp, #108]	; 0x6c
    6808:	464b      	mov	r3, r9
    680a:	d115      	bne.n	6838 <__sformatter+0xec>
    680c:	f88d 906b 	strb.w	r9, [sp, #107]	; 0x6b
    6810:	f10d 0e68 	add.w	lr, sp, #104	; 0x68
    6814:	e8be 000f 	ldmia.w	lr!, {r0, r1, r2, r3}
    6818:	ad10      	add	r5, sp, #64	; 0x40
    681a:	c50f      	stmia	r5!, {r0, r1, r2, r3}
    681c:	e8be 000f 	ldmia.w	lr!, {r0, r1, r2, r3}
    6820:	c50f      	stmia	r5!, {r0, r1, r2, r3}
    6822:	e89e 0003 	ldmia.w	lr, {r0, r1}
    6826:	e885 0003 	stmia.w	r5, {r0, r1}
    682a:	2000      	movs	r0, #0
    682c:	4663      	mov	r3, ip
    682e:	f10a 0a02 	add.w	sl, sl, #2
    6832:	9008      	str	r0, [sp, #32]
    6834:	4684      	mov	ip, r0
    6836:	e12b      	b.n	6a90 <__sformatter+0x344>
    6838:	2b2a      	cmp	r3, #42	; 0x2a
    683a:	d002      	beq.n	6842 <__sformatter+0xf6>
    683c:	f10a 0501 	add.w	r5, sl, #1
    6840:	e006      	b.n	6850 <__sformatter+0x104>
    6842:	2301      	movs	r3, #1
    6844:	f88d 3068 	strb.w	r3, [sp, #104]	; 0x68
    6848:	f89a 3002 	ldrb.w	r3, [sl, #2]
    684c:	f10a 0502 	add.w	r5, sl, #2
    6850:	f1a3 0230 	sub.w	r2, r3, #48	; 0x30
    6854:	2a09      	cmp	r2, #9
    6856:	d831      	bhi.n	68bc <__sformatter+0x170>
    6858:	1c68      	adds	r0, r5, #1
    685a:	f04f 0c00 	mov.w	ip, #0
    685e:	3b30      	subs	r3, #48	; 0x30
    6860:	210a      	movs	r1, #10
    6862:	fb01 3c0c 	mla	ip, r1, ip, r3
    6866:	4605      	mov	r5, r0
    6868:	f810 3b01 	ldrb.w	r3, [r0], #1
    686c:	f1a3 0230 	sub.w	r2, r3, #48	; 0x30
    6870:	2a09      	cmp	r2, #9
    6872:	d9f4      	bls.n	685e <__sformatter+0x112>
    6874:	f8cd c06c 	str.w	ip, [sp, #108]	; 0x6c
    6878:	f1bc 0f00 	cmp.w	ip, #0
    687c:	d11b      	bne.n	68b6 <__sformatter+0x16a>
    687e:	f04f 09ff 	mov.w	r9, #255	; 0xff
    6882:	f88d 906b 	strb.w	r9, [sp, #107]	; 0x6b
    6886:	f10d 0a68 	add.w	sl, sp, #104	; 0x68
    688a:	e8ba 000f 	ldmia.w	sl!, {r0, r1, r2, r3}
    688e:	f10d 0e40 	add.w	lr, sp, #64	; 0x40
    6892:	e8ae 000f 	stmia.w	lr!, {r0, r1, r2, r3}
    6896:	e8ba 000f 	ldmia.w	sl!, {r0, r1, r2, r3}
    689a:	e8ae 000f 	stmia.w	lr!, {r0, r1, r2, r3}
    689e:	e89a 0003 	ldmia.w	sl, {r0, r1}
    68a2:	f89d 2068 	ldrb.w	r2, [sp, #104]	; 0x68
    68a6:	f8cd c020 	str.w	ip, [sp, #32]
    68aa:	e88e 0003 	stmia.w	lr, {r0, r1}
    68ae:	f105 0a01 	add.w	sl, r5, #1
    68b2:	4663      	mov	r3, ip
    68b4:	e0de      	b.n	6a74 <__sformatter+0x328>
    68b6:	2001      	movs	r0, #1
    68b8:	f88d 0069 	strb.w	r0, [sp, #105]	; 0x69
    68bc:	2b68      	cmp	r3, #104	; 0x68
    68be:	d005      	beq.n	68cc <__sformatter+0x180>
    68c0:	2b6c      	cmp	r3, #108	; 0x6c
    68c2:	d00e      	beq.n	68e2 <__sformatter+0x196>
    68c4:	2b4c      	cmp	r3, #76	; 0x4c
    68c6:	d111      	bne.n	68ec <__sformatter+0x1a0>
    68c8:	2305      	movs	r3, #5
    68ca:	e00b      	b.n	68e4 <__sformatter+0x198>
    68cc:	786a      	ldrb	r2, [r5, #1]
    68ce:	2102      	movs	r1, #2
    68d0:	2a68      	cmp	r2, #104	; 0x68
    68d2:	f88d 106a 	strb.w	r1, [sp, #106]	; 0x6a
    68d6:	d107      	bne.n	68e8 <__sformatter+0x19c>
    68d8:	2001      	movs	r0, #1
    68da:	f88d 006a 	strb.w	r0, [sp, #106]	; 0x6a
    68de:	182d      	adds	r5, r5, r0
    68e0:	e002      	b.n	68e8 <__sformatter+0x19c>
    68e2:	2303      	movs	r3, #3
    68e4:	f88d 306a 	strb.w	r3, [sp, #106]	; 0x6a
    68e8:	786b      	ldrb	r3, [r5, #1]
    68ea:	3501      	adds	r5, #1
    68ec:	2b67      	cmp	r3, #103	; 0x67
    68ee:	f88d 306b 	strb.w	r3, [sp, #107]	; 0x6b
    68f2:	dc10      	bgt.n	6916 <__sformatter+0x1ca>
    68f4:	2b65      	cmp	r3, #101	; 0x65
    68f6:	da25      	bge.n	6944 <__sformatter+0x1f8>
    68f8:	2b58      	cmp	r3, #88	; 0x58
    68fa:	d01e      	beq.n	693a <__sformatter+0x1ee>
    68fc:	dc04      	bgt.n	6908 <__sformatter+0x1bc>
    68fe:	3b45      	subs	r3, #69	; 0x45
    6900:	2b02      	cmp	r3, #2
    6902:	f200 8098 	bhi.w	6a36 <__sformatter+0x2ea>
    6906:	e01d      	b.n	6944 <__sformatter+0x1f8>
    6908:	2b63      	cmp	r3, #99	; 0x63
    690a:	d02b      	beq.n	6964 <__sformatter+0x218>
    690c:	dc15      	bgt.n	693a <__sformatter+0x1ee>
    690e:	2b5b      	cmp	r3, #91	; 0x5b
    6910:	f040 8091 	bne.w	6a36 <__sformatter+0x2ea>
    6914:	e043      	b.n	699e <__sformatter+0x252>
    6916:	2b70      	cmp	r3, #112	; 0x70
    6918:	d01f      	beq.n	695a <__sformatter+0x20e>
    691a:	dc07      	bgt.n	692c <__sformatter+0x1e0>
    691c:	2b6e      	cmp	r3, #110	; 0x6e
    691e:	f000 808d 	beq.w	6a3c <__sformatter+0x2f0>
    6922:	dc0a      	bgt.n	693a <__sformatter+0x1ee>
    6924:	2b69      	cmp	r3, #105	; 0x69
    6926:	f040 8086 	bne.w	6a36 <__sformatter+0x2ea>
    692a:	e006      	b.n	693a <__sformatter+0x1ee>
    692c:	2b75      	cmp	r3, #117	; 0x75
    692e:	d004      	beq.n	693a <__sformatter+0x1ee>
    6930:	2b78      	cmp	r3, #120	; 0x78
    6932:	d002      	beq.n	693a <__sformatter+0x1ee>
    6934:	2b73      	cmp	r3, #115	; 0x73
    6936:	d17e      	bne.n	6a36 <__sformatter+0x2ea>
    6938:	e019      	b.n	696e <__sformatter+0x222>
    693a:	f89d 006a 	ldrb.w	r0, [sp, #106]	; 0x6a
    693e:	2805      	cmp	r0, #5
    6940:	d17c      	bne.n	6a3c <__sformatter+0x2f0>
    6942:	e078      	b.n	6a36 <__sformatter+0x2ea>
    6944:	f89d 106a 	ldrb.w	r1, [sp, #106]	; 0x6a
    6948:	1e4a      	subs	r2, r1, #1
    694a:	2a01      	cmp	r2, #1
    694c:	d973      	bls.n	6a36 <__sformatter+0x2ea>
    694e:	2903      	cmp	r1, #3
    6950:	d174      	bne.n	6a3c <__sformatter+0x2f0>
    6952:	2004      	movs	r0, #4
    6954:	f88d 006a 	strb.w	r0, [sp, #106]	; 0x6a
    6958:	e070      	b.n	6a3c <__sformatter+0x2f0>
    695a:	2103      	movs	r1, #3
    695c:	f88d 106a 	strb.w	r1, [sp, #106]	; 0x6a
    6960:	2378      	movs	r3, #120	; 0x78
    6962:	e069      	b.n	6a38 <__sformatter+0x2ec>
    6964:	f89d 306a 	ldrb.w	r3, [sp, #106]	; 0x6a
    6968:	2b00      	cmp	r3, #0
    696a:	d067      	beq.n	6a3c <__sformatter+0x2f0>
    696c:	e063      	b.n	6a36 <__sformatter+0x2ea>
    696e:	f89d 306a 	ldrb.w	r3, [sp, #106]	; 0x6a
    6972:	b113      	cbz	r3, 697a <__sformatter+0x22e>
    6974:	21ff      	movs	r1, #255	; 0xff
    6976:	f88d 106b 	strb.w	r1, [sp, #107]	; 0x6b
    697a:	2300      	movs	r3, #0
    697c:	f10d 0c90 	add.w	ip, sp, #144	; 0x90
    6980:	eb0c 0203 	add.w	r2, ip, r3
    6984:	3301      	adds	r3, #1
    6986:	20ff      	movs	r0, #255	; 0xff
    6988:	2b20      	cmp	r3, #32
    698a:	f802 0c20 	strb.w	r0, [r2, #-32]
    698e:	d1f5      	bne.n	697c <__sformatter+0x230>
    6990:	21c1      	movs	r1, #193	; 0xc1
    6992:	22fe      	movs	r2, #254	; 0xfe
    6994:	f88d 1071 	strb.w	r1, [sp, #113]	; 0x71
    6998:	f88d 2074 	strb.w	r2, [sp, #116]	; 0x74
    699c:	e04e      	b.n	6a3c <__sformatter+0x2f0>
    699e:	f89d 106a 	ldrb.w	r1, [sp, #106]	; 0x6a
    69a2:	b111      	cbz	r1, 69aa <__sformatter+0x25e>
    69a4:	22ff      	movs	r2, #255	; 0xff
    69a6:	f88d 206b 	strb.w	r2, [sp, #107]	; 0x6b
    69aa:	786b      	ldrb	r3, [r5, #1]
    69ac:	2b5e      	cmp	r3, #94	; 0x5e
    69ae:	d002      	beq.n	69b6 <__sformatter+0x26a>
    69b0:	3501      	adds	r5, #1
    69b2:	2100      	movs	r1, #0
    69b4:	e002      	b.n	69bc <__sformatter+0x270>
    69b6:	78ab      	ldrb	r3, [r5, #2]
    69b8:	2101      	movs	r1, #1
    69ba:	3502      	adds	r5, #2
    69bc:	2b5d      	cmp	r3, #93	; 0x5d
    69be:	d107      	bne.n	69d0 <__sformatter+0x284>
    69c0:	2020      	movs	r0, #32
    69c2:	786b      	ldrb	r3, [r5, #1]
    69c4:	f88d 007b 	strb.w	r0, [sp, #123]	; 0x7b
    69c8:	3501      	adds	r5, #1
    69ca:	e001      	b.n	69d0 <__sformatter+0x284>
    69cc:	78eb      	ldrb	r3, [r5, #3]
    69ce:	3503      	adds	r5, #3
    69d0:	b38b      	cbz	r3, 6a36 <__sformatter+0x2ea>
    69d2:	2b5d      	cmp	r3, #93	; 0x5d
    69d4:	f000 827b 	beq.w	6ece <__sformatter+0x782>
    69d8:	a824      	add	r0, sp, #144	; 0x90
    69da:	f3c3 02c4 	ubfx	r2, r3, #3, #5
    69de:	1882      	adds	r2, r0, r2
    69e0:	f04f 0e01 	mov.w	lr, #1
    69e4:	f812 9c20 	ldrb.w	r9, [r2, #-32]
    69e8:	f003 0007 	and.w	r0, r3, #7
    69ec:	fa0e f000 	lsl.w	r0, lr, r0
    69f0:	ea49 0000 	orr.w	r0, r9, r0
    69f4:	f802 0c20 	strb.w	r0, [r2, #-32]
    69f8:	7868      	ldrb	r0, [r5, #1]
    69fa:	282d      	cmp	r0, #45	; 0x2d
    69fc:	d118      	bne.n	6a30 <__sformatter+0x2e4>
    69fe:	78aa      	ldrb	r2, [r5, #2]
    6a00:	b1b2      	cbz	r2, 6a30 <__sformatter+0x2e4>
    6a02:	2a5d      	cmp	r2, #93	; 0x5d
    6a04:	d014      	beq.n	6a30 <__sformatter+0x2e4>
    6a06:	3301      	adds	r3, #1
    6a08:	4293      	cmp	r3, r2
    6a0a:	dcdf      	bgt.n	69cc <__sformatter+0x280>
    6a0c:	f10d 0a90 	add.w	sl, sp, #144	; 0x90
    6a10:	f3c3 00c4 	ubfx	r0, r3, #3, #5
    6a14:	4450      	add	r0, sl
    6a16:	f003 0e07 	and.w	lr, r3, #7
    6a1a:	f810 ac20 	ldrb.w	sl, [r0, #-32]
    6a1e:	f04f 0c01 	mov.w	ip, #1
    6a22:	fa0c f90e 	lsl.w	r9, ip, lr
    6a26:	ea4a 0e09 	orr.w	lr, sl, r9
    6a2a:	f800 ec20 	strb.w	lr, [r0, #-32]
    6a2e:	e7ea      	b.n	6a06 <__sformatter+0x2ba>
    6a30:	3501      	adds	r5, #1
    6a32:	4603      	mov	r3, r0
    6a34:	e7cc      	b.n	69d0 <__sformatter+0x284>
    6a36:	23ff      	movs	r3, #255	; 0xff
    6a38:	f88d 306b 	strb.w	r3, [sp, #107]	; 0x6b
    6a3c:	f10d 0a68 	add.w	sl, sp, #104	; 0x68
    6a40:	e8ba 000f 	ldmia.w	sl!, {r0, r1, r2, r3}
    6a44:	f10d 0940 	add.w	r9, sp, #64	; 0x40
    6a48:	e8a9 000f 	stmia.w	r9!, {r0, r1, r2, r3}
    6a4c:	e8ba 000f 	ldmia.w	sl!, {r0, r1, r2, r3}
    6a50:	e8a9 000f 	stmia.w	r9!, {r0, r1, r2, r3}
    6a54:	e89a 0003 	ldmia.w	sl, {r0, r1}
    6a58:	e889 0003 	stmia.w	r9, {r0, r1}
    6a5c:	f89d 006a 	ldrb.w	r0, [sp, #106]	; 0x6a
    6a60:	f89d 2068 	ldrb.w	r2, [sp, #104]	; 0x68
    6a64:	f89d c069 	ldrb.w	ip, [sp, #105]	; 0x69
    6a68:	f89d 906b 	ldrb.w	r9, [sp, #107]	; 0x6b
    6a6c:	9b1b      	ldr	r3, [sp, #108]	; 0x6c
    6a6e:	9008      	str	r0, [sp, #32]
    6a70:	f105 0a01 	add.w	sl, r5, #1
    6a74:	b93a      	cbnz	r2, 6a86 <__sformatter+0x33a>
    6a76:	f1b9 0f25 	cmp.w	r9, #37	; 0x25
    6a7a:	d009      	beq.n	6a90 <__sformatter+0x344>
    6a7c:	990b      	ldr	r1, [sp, #44]	; 0x2c
    6a7e:	1d0a      	adds	r2, r1, #4
    6a80:	680d      	ldr	r5, [r1, #0]
    6a82:	920b      	str	r2, [sp, #44]	; 0x2c
    6a84:	e000      	b.n	6a88 <__sformatter+0x33c>
    6a86:	2500      	movs	r5, #0
    6a88:	f1b9 0f6e 	cmp.w	r9, #110	; 0x6e
    6a8c:	d101      	bne.n	6a92 <__sformatter+0x346>
    6a8e:	e1e7      	b.n	6e60 <__sformatter+0x714>
    6a90:	2500      	movs	r5, #0
    6a92:	b10c      	cbz	r4, 6a98 <__sformatter+0x34c>
    6a94:	2401      	movs	r4, #1
    6a96:	e00e      	b.n	6ab6 <__sformatter+0x36a>
    6a98:	9304      	str	r3, [sp, #16]
    6a9a:	f8cd c014 	str.w	ip, [sp, #20]
    6a9e:	4640      	mov	r0, r8
    6aa0:	4621      	mov	r1, r4
    6aa2:	2202      	movs	r2, #2
    6aa4:	47b8      	blx	r7
    6aa6:	9b04      	ldr	r3, [sp, #16]
    6aa8:	f8dd c014 	ldr.w	ip, [sp, #20]
    6aac:	b118      	cbz	r0, 6ab6 <__sformatter+0x36a>
    6aae:	992e      	ldr	r1, [sp, #184]	; 0xb8
    6ab0:	2900      	cmp	r1, #0
    6ab2:	d1ef      	bne.n	6a94 <__sformatter+0x348>
    6ab4:	e1ed      	b.n	6e92 <__sformatter+0x746>
    6ab6:	f1b9 0f67 	cmp.w	r9, #103	; 0x67
    6aba:	d81e      	bhi.n	6afa <__sformatter+0x3ae>
    6abc:	f1b9 0f65 	cmp.w	r9, #101	; 0x65
    6ac0:	f080 809c 	bcs.w	6bfc <__sformatter+0x4b0>
    6ac4:	f1b9 0f58 	cmp.w	r9, #88	; 0x58
    6ac8:	d062      	beq.n	6b90 <__sformatter+0x444>
    6aca:	d80c      	bhi.n	6ae6 <__sformatter+0x39a>
    6acc:	f1b9 0f25 	cmp.w	r9, #37	; 0x25
    6ad0:	f000 810e 	beq.w	6cf0 <__sformatter+0x5a4>
    6ad4:	f0c0 81dd 	bcc.w	6e92 <__sformatter+0x746>
    6ad8:	f1a9 0945 	sub.w	r9, r9, #69	; 0x45
    6adc:	f1b9 0f02 	cmp.w	r9, #2
    6ae0:	f200 81d7 	bhi.w	6e92 <__sformatter+0x746>
    6ae4:	e08a      	b.n	6bfc <__sformatter+0x4b0>
    6ae6:	f1b9 0f63 	cmp.w	r9, #99	; 0x63
    6aea:	f000 80b3 	beq.w	6c54 <__sformatter+0x508>
    6aee:	d81d      	bhi.n	6b2c <__sformatter+0x3e0>
    6af0:	f1b9 0f5b 	cmp.w	r9, #91	; 0x5b
    6af4:	f040 81cd 	bne.w	6e92 <__sformatter+0x746>
    6af8:	e132      	b.n	6d60 <__sformatter+0x614>
    6afa:	f1b9 0f6f 	cmp.w	r9, #111	; 0x6f
    6afe:	d013      	beq.n	6b28 <__sformatter+0x3dc>
    6b00:	d807      	bhi.n	6b12 <__sformatter+0x3c6>
    6b02:	f1b9 0f69 	cmp.w	r9, #105	; 0x69
    6b06:	d013      	beq.n	6b30 <__sformatter+0x3e4>
    6b08:	f1b9 0f6e 	cmp.w	r9, #110	; 0x6e
    6b0c:	f040 81c1 	bne.w	6e92 <__sformatter+0x746>
    6b10:	e1a6      	b.n	6e60 <__sformatter+0x714>
    6b12:	f1b9 0f75 	cmp.w	r9, #117	; 0x75
    6b16:	d03d      	beq.n	6b94 <__sformatter+0x448>
    6b18:	f1b9 0f78 	cmp.w	r9, #120	; 0x78
    6b1c:	d038      	beq.n	6b90 <__sformatter+0x444>
    6b1e:	f1b9 0f73 	cmp.w	r9, #115	; 0x73
    6b22:	f040 81b6 	bne.w	6e92 <__sformatter+0x746>
    6b26:	e0ff      	b.n	6d28 <__sformatter+0x5dc>
    6b28:	2008      	movs	r0, #8
    6b2a:	e034      	b.n	6b96 <__sformatter+0x44a>
    6b2c:	200a      	movs	r0, #10
    6b2e:	e000      	b.n	6b32 <__sformatter+0x3e6>
    6b30:	2000      	movs	r0, #0
    6b32:	b9cc      	cbnz	r4, 6b68 <__sformatter+0x41c>
    6b34:	aa0d      	add	r2, sp, #52	; 0x34
    6b36:	9200      	str	r2, [sp, #0]
    6b38:	a90e      	add	r1, sp, #56	; 0x38
    6b3a:	aa0f      	add	r2, sp, #60	; 0x3c
    6b3c:	9101      	str	r1, [sp, #4]
    6b3e:	9202      	str	r2, [sp, #8]
    6b40:	4619      	mov	r1, r3
    6b42:	463a      	mov	r2, r7
    6b44:	4643      	mov	r3, r8
    6b46:	f000 fd75 	bl	7634 <__strtoul>
    6b4a:	9b0d      	ldr	r3, [sp, #52]	; 0x34
    6b4c:	b923      	cbnz	r3, 6b58 <__sformatter+0x40c>
    6b4e:	982e      	ldr	r0, [sp, #184]	; 0xb8
    6b50:	b968      	cbnz	r0, 6b6e <__sformatter+0x422>
    6b52:	2201      	movs	r2, #1
    6b54:	9209      	str	r2, [sp, #36]	; 0x24
    6b56:	e19c      	b.n	6e92 <__sformatter+0x746>
    6b58:	990e      	ldr	r1, [sp, #56]	; 0x38
    6b5a:	18f6      	adds	r6, r6, r3
    6b5c:	b149      	cbz	r1, 6b72 <__sformatter+0x426>
    6b5e:	f1b0 4f00 	cmp.w	r0, #2147483648	; 0x80000000
    6b62:	d006      	beq.n	6b72 <__sformatter+0x426>
    6b64:	4240      	negs	r0, r0
    6b66:	e004      	b.n	6b72 <__sformatter+0x426>
    6b68:	2401      	movs	r4, #1
    6b6a:	2000      	movs	r0, #0
    6b6c:	e001      	b.n	6b72 <__sformatter+0x426>
    6b6e:	2401      	movs	r4, #1
    6b70:	4618      	mov	r0, r3
    6b72:	2d00      	cmp	r5, #0
    6b74:	d068      	beq.n	6c48 <__sformatter+0x4fc>
    6b76:	9a08      	ldr	r2, [sp, #32]
    6b78:	2a03      	cmp	r2, #3
    6b7a:	d861      	bhi.n	6c40 <__sformatter+0x4f4>
    6b7c:	e8df f002 	tbb	[pc, r2]
    6b80:	06040206 	.word	0x06040206
    6b84:	7028      	strb	r0, [r5, #0]
    6b86:	e05b      	b.n	6c40 <__sformatter+0x4f4>
    6b88:	8028      	strh	r0, [r5, #0]
    6b8a:	e059      	b.n	6c40 <__sformatter+0x4f4>
    6b8c:	6028      	str	r0, [r5, #0]
    6b8e:	e057      	b.n	6c40 <__sformatter+0x4f4>
    6b90:	2010      	movs	r0, #16
    6b92:	e000      	b.n	6b96 <__sformatter+0x44a>
    6b94:	200a      	movs	r0, #10
    6b96:	b9d4      	cbnz	r4, 6bce <__sformatter+0x482>
    6b98:	aa0d      	add	r2, sp, #52	; 0x34
    6b9a:	9200      	str	r2, [sp, #0]
    6b9c:	a90e      	add	r1, sp, #56	; 0x38
    6b9e:	aa0f      	add	r2, sp, #60	; 0x3c
    6ba0:	9101      	str	r1, [sp, #4]
    6ba2:	9202      	str	r2, [sp, #8]
    6ba4:	4619      	mov	r1, r3
    6ba6:	463a      	mov	r2, r7
    6ba8:	4643      	mov	r3, r8
    6baa:	f000 fd43 	bl	7634 <__strtoul>
    6bae:	9b0d      	ldr	r3, [sp, #52]	; 0x34
    6bb0:	b92b      	cbnz	r3, 6bbe <__sformatter+0x472>
    6bb2:	982e      	ldr	r0, [sp, #184]	; 0xb8
    6bb4:	2800      	cmp	r0, #0
    6bb6:	d0cc      	beq.n	6b52 <__sformatter+0x406>
    6bb8:	2401      	movs	r4, #1
    6bba:	4618      	mov	r0, r3
    6bbc:	e009      	b.n	6bd2 <__sformatter+0x486>
    6bbe:	990e      	ldr	r1, [sp, #56]	; 0x38
    6bc0:	18f6      	adds	r6, r6, r3
    6bc2:	b131      	cbz	r1, 6bd2 <__sformatter+0x486>
    6bc4:	f1b0 4f00 	cmp.w	r0, #2147483648	; 0x80000000
    6bc8:	d003      	beq.n	6bd2 <__sformatter+0x486>
    6bca:	4240      	negs	r0, r0
    6bcc:	e001      	b.n	6bd2 <__sformatter+0x486>
    6bce:	2401      	movs	r4, #1
    6bd0:	2000      	movs	r0, #0
    6bd2:	b17d      	cbz	r5, 6bf4 <__sformatter+0x4a8>
    6bd4:	9b08      	ldr	r3, [sp, #32]
    6bd6:	2b03      	cmp	r3, #3
    6bd8:	d808      	bhi.n	6bec <__sformatter+0x4a0>
    6bda:	e8df f003 	tbb	[pc, r3]
    6bde:	0206      	.short	0x0206
    6be0:	0604      	.short	0x0604
    6be2:	7028      	strb	r0, [r5, #0]
    6be4:	e002      	b.n	6bec <__sformatter+0x4a0>
    6be6:	8028      	strh	r0, [r5, #0]
    6be8:	e000      	b.n	6bec <__sformatter+0x4a0>
    6bea:	6028      	str	r0, [r5, #0]
    6bec:	b914      	cbnz	r4, 6bf4 <__sformatter+0x4a8>
    6bee:	9d07      	ldr	r5, [sp, #28]
    6bf0:	1c69      	adds	r1, r5, #1
    6bf2:	9107      	str	r1, [sp, #28]
    6bf4:	9806      	ldr	r0, [sp, #24]
    6bf6:	1c42      	adds	r2, r0, #1
    6bf8:	9206      	str	r2, [sp, #24]
    6bfa:	e092      	b.n	6d22 <__sformatter+0x5d6>
    6bfc:	b964      	cbnz	r4, 6c18 <__sformatter+0x4cc>
    6bfe:	aa0f      	add	r2, sp, #60	; 0x3c
    6c00:	9200      	str	r2, [sp, #0]
    6c02:	4618      	mov	r0, r3
    6c04:	4639      	mov	r1, r7
    6c06:	ab0d      	add	r3, sp, #52	; 0x34
    6c08:	4642      	mov	r2, r8
    6c0a:	f000 f9af 	bl	6f6c <__strtold>
    6c0e:	9b0d      	ldr	r3, [sp, #52]	; 0x34
    6c10:	b943      	cbnz	r3, 6c24 <__sformatter+0x4d8>
    6c12:	982e      	ldr	r0, [sp, #184]	; 0xb8
    6c14:	2800      	cmp	r0, #0
    6c16:	d09c      	beq.n	6b52 <__sformatter+0x406>
    6c18:	4c97      	ldr	r4, [pc, #604]	; (6e78 <__sformatter+0x72c>)
    6c1a:	6820      	ldr	r0, [r4, #0]
    6c1c:	f7f9 ff54 	bl	ac8 <__aeabi_f2d>
    6c20:	2401      	movs	r4, #1
    6c22:	e000      	b.n	6c26 <__sformatter+0x4da>
    6c24:	18f6      	adds	r6, r6, r3
    6c26:	b17d      	cbz	r5, 6c48 <__sformatter+0x4fc>
    6c28:	9a08      	ldr	r2, [sp, #32]
    6c2a:	2a04      	cmp	r2, #4
    6c2c:	d006      	beq.n	6c3c <__sformatter+0x4f0>
    6c2e:	2a05      	cmp	r2, #5
    6c30:	d004      	beq.n	6c3c <__sformatter+0x4f0>
    6c32:	b92a      	cbnz	r2, 6c40 <__sformatter+0x4f4>
    6c34:	f7fa fa5e 	bl	10f4 <__aeabi_d2f>
    6c38:	6028      	str	r0, [r5, #0]
    6c3a:	e001      	b.n	6c40 <__sformatter+0x4f4>
    6c3c:	e9c5 0100 	strd	r0, r1, [r5]
    6c40:	b914      	cbnz	r4, 6c48 <__sformatter+0x4fc>
    6c42:	9d07      	ldr	r5, [sp, #28]
    6c44:	1c6b      	adds	r3, r5, #1
    6c46:	9307      	str	r3, [sp, #28]
    6c48:	9906      	ldr	r1, [sp, #24]
    6c4a:	2201      	movs	r2, #1
    6c4c:	1c48      	adds	r0, r1, #1
    6c4e:	9006      	str	r0, [sp, #24]
    6c50:	9209      	str	r2, [sp, #36]	; 0x24
    6c52:	e589      	b.n	6768 <__sformatter+0x1c>
    6c54:	f1bc 0f00 	cmp.w	ip, #0
    6c58:	bf08      	it	eq
    6c5a:	2301      	moveq	r3, #1
    6c5c:	2d00      	cmp	r5, #0
    6c5e:	d02e      	beq.n	6cbe <__sformatter+0x572>
    6c60:	2200      	movs	r2, #0
    6c62:	920d      	str	r2, [sp, #52]	; 0x34
    6c64:	2c00      	cmp	r4, #0
    6c66:	f040 8112 	bne.w	6e8e <__sformatter+0x742>
    6c6a:	eb05 0903 	add.w	r9, r5, r3
    6c6e:	454d      	cmp	r5, r9
    6c70:	d016      	beq.n	6ca0 <__sformatter+0x554>
    6c72:	9b2e      	ldr	r3, [sp, #184]	; 0xb8
    6c74:	b123      	cbz	r3, 6c80 <__sformatter+0x534>
    6c76:	980d      	ldr	r0, [sp, #52]	; 0x34
    6c78:	2800      	cmp	r0, #0
    6c7a:	da0f      	bge.n	6c9c <__sformatter+0x550>
    6c7c:	2201      	movs	r2, #1
    6c7e:	920a      	str	r2, [sp, #40]	; 0x28
    6c80:	2100      	movs	r1, #0
    6c82:	4640      	mov	r0, r8
    6c84:	460a      	mov	r2, r1
    6c86:	47b8      	blx	r7
    6c88:	f1b0 3fff 	cmp.w	r0, #4294967295
    6c8c:	4683      	mov	fp, r0
    6c8e:	d007      	beq.n	6ca0 <__sformatter+0x554>
    6c90:	f805 bb01 	strb.w	fp, [r5], #1
    6c94:	980d      	ldr	r0, [sp, #52]	; 0x34
    6c96:	1c41      	adds	r1, r0, #1
    6c98:	910d      	str	r1, [sp, #52]	; 0x34
    6c9a:	e7e8      	b.n	6c6e <__sformatter+0x522>
    6c9c:	2100      	movs	r1, #0
    6c9e:	910a      	str	r1, [sp, #40]	; 0x28
    6ca0:	9b0d      	ldr	r3, [sp, #52]	; 0x34
    6ca2:	2b00      	cmp	r3, #0
    6ca4:	f000 809f 	beq.w	6de6 <__sformatter+0x69a>
    6ca8:	9d2e      	ldr	r5, [sp, #184]	; 0xb8
    6caa:	b11d      	cbz	r5, 6cb4 <__sformatter+0x568>
    6cac:	980a      	ldr	r0, [sp, #40]	; 0x28
    6cae:	2800      	cmp	r0, #0
    6cb0:	f000 80ed 	beq.w	6e8e <__sformatter+0x742>
    6cb4:	9907      	ldr	r1, [sp, #28]
    6cb6:	1c4a      	adds	r2, r1, #1
    6cb8:	18f6      	adds	r6, r6, r3
    6cba:	9207      	str	r2, [sp, #28]
    6cbc:	e014      	b.n	6ce8 <__sformatter+0x59c>
    6cbe:	950d      	str	r5, [sp, #52]	; 0x34
    6cc0:	1e5d      	subs	r5, r3, #1
    6cc2:	1c6a      	adds	r2, r5, #1
    6cc4:	d00c      	beq.n	6ce0 <__sformatter+0x594>
    6cc6:	2100      	movs	r1, #0
    6cc8:	4640      	mov	r0, r8
    6cca:	460a      	mov	r2, r1
    6ccc:	47b8      	blx	r7
    6cce:	3d01      	subs	r5, #1
    6cd0:	f1b0 3fff 	cmp.w	r0, #4294967295
    6cd4:	4683      	mov	fp, r0
    6cd6:	d003      	beq.n	6ce0 <__sformatter+0x594>
    6cd8:	980d      	ldr	r0, [sp, #52]	; 0x34
    6cda:	1c41      	adds	r1, r0, #1
    6cdc:	910d      	str	r1, [sp, #52]	; 0x34
    6cde:	e7f0      	b.n	6cc2 <__sformatter+0x576>
    6ce0:	9a0d      	ldr	r2, [sp, #52]	; 0x34
    6ce2:	2a00      	cmp	r2, #0
    6ce4:	f000 80d5 	beq.w	6e92 <__sformatter+0x746>
    6ce8:	9b06      	ldr	r3, [sp, #24]
    6cea:	1c5d      	adds	r5, r3, #1
    6cec:	9506      	str	r5, [sp, #24]
    6cee:	e53b      	b.n	6768 <__sformatter+0x1c>
    6cf0:	2c00      	cmp	r4, #0
    6cf2:	f040 80c9 	bne.w	6e88 <__sformatter+0x73c>
    6cf6:	2100      	movs	r1, #0
    6cf8:	4640      	mov	r0, r8
    6cfa:	460a      	mov	r2, r1
    6cfc:	47b8      	blx	r7
    6cfe:	4605      	mov	r5, r0
    6d00:	f000 f904 	bl	6f0c <isspace>
    6d04:	b108      	cbz	r0, 6d0a <__sformatter+0x5be>
    6d06:	3601      	adds	r6, #1
    6d08:	e7f5      	b.n	6cf6 <__sformatter+0x5aa>
    6d0a:	2d25      	cmp	r5, #37	; 0x25
    6d0c:	d008      	beq.n	6d20 <__sformatter+0x5d4>
    6d0e:	4640      	mov	r0, r8
    6d10:	4629      	mov	r1, r5
    6d12:	2201      	movs	r2, #1
    6d14:	47b8      	blx	r7
    6d16:	9b2e      	ldr	r3, [sp, #184]	; 0xb8
    6d18:	2b00      	cmp	r3, #0
    6d1a:	f43f af1a 	beq.w	6b52 <__sformatter+0x406>
    6d1e:	e0b3      	b.n	6e88 <__sformatter+0x73c>
    6d20:	3601      	adds	r6, #1
    6d22:	2301      	movs	r3, #1
    6d24:	9309      	str	r3, [sp, #36]	; 0x24
    6d26:	e51f      	b.n	6768 <__sformatter+0x1c>
    6d28:	b9c4      	cbnz	r4, 6d5c <__sformatter+0x610>
    6d2a:	4640      	mov	r0, r8
    6d2c:	4621      	mov	r1, r4
    6d2e:	4622      	mov	r2, r4
    6d30:	9304      	str	r3, [sp, #16]
    6d32:	47b8      	blx	r7
    6d34:	9b04      	ldr	r3, [sp, #16]
    6d36:	4681      	mov	r9, r0
    6d38:	9304      	str	r3, [sp, #16]
    6d3a:	f000 f8e7 	bl	6f0c <isspace>
    6d3e:	9b04      	ldr	r3, [sp, #16]
    6d40:	b120      	cbz	r0, 6d4c <__sformatter+0x600>
    6d42:	2100      	movs	r1, #0
    6d44:	3601      	adds	r6, #1
    6d46:	4640      	mov	r0, r8
    6d48:	460a      	mov	r2, r1
    6d4a:	e7f1      	b.n	6d30 <__sformatter+0x5e4>
    6d4c:	4640      	mov	r0, r8
    6d4e:	4649      	mov	r1, r9
    6d50:	2201      	movs	r2, #1
    6d52:	47b8      	blx	r7
    6d54:	2001      	movs	r0, #1
    6d56:	9009      	str	r0, [sp, #36]	; 0x24
    6d58:	9b04      	ldr	r3, [sp, #16]
    6d5a:	e001      	b.n	6d60 <__sformatter+0x614>
    6d5c:	2101      	movs	r1, #1
    6d5e:	9109      	str	r1, [sp, #36]	; 0x24
    6d60:	2d00      	cmp	r5, #0
    6d62:	d04b      	beq.n	6dfc <__sformatter+0x6b0>
    6d64:	2200      	movs	r2, #0
    6d66:	920d      	str	r2, [sp, #52]	; 0x34
    6d68:	2c00      	cmp	r4, #0
    6d6a:	f040 8090 	bne.w	6e8e <__sformatter+0x742>
    6d6e:	f103 3eff 	add.w	lr, r3, #4294967295
    6d72:	f1be 3fff 	cmp.w	lr, #4294967295
    6d76:	46f1      	mov	r9, lr
    6d78:	d02a      	beq.n	6dd0 <__sformatter+0x684>
    6d7a:	9b2e      	ldr	r3, [sp, #184]	; 0xb8
    6d7c:	b123      	cbz	r3, 6d88 <__sformatter+0x63c>
    6d7e:	980d      	ldr	r0, [sp, #52]	; 0x34
    6d80:	2800      	cmp	r0, #0
    6d82:	dc23      	bgt.n	6dcc <__sformatter+0x680>
    6d84:	2201      	movs	r2, #1
    6d86:	920a      	str	r2, [sp, #40]	; 0x28
    6d88:	2100      	movs	r1, #0
    6d8a:	4640      	mov	r0, r8
    6d8c:	460a      	mov	r2, r1
    6d8e:	f8cd e014 	str.w	lr, [sp, #20]
    6d92:	47b8      	blx	r7
    6d94:	f1b0 3fff 	cmp.w	r0, #4294967295
    6d98:	4683      	mov	fp, r0
    6d9a:	f8dd c014 	ldr.w	ip, [sp, #20]
    6d9e:	d017      	beq.n	6dd0 <__sformatter+0x684>
    6da0:	a824      	add	r0, sp, #144	; 0x90
    6da2:	fa5f f38b 	uxtb.w	r3, fp
    6da6:	eb00 01d3 	add.w	r1, r0, r3, lsr #3
    6daa:	f00b 0207 	and.w	r2, fp, #7
    6dae:	2001      	movs	r0, #1
    6db0:	f811 1c48 	ldrb.w	r1, [r1, #-72]
    6db4:	fa00 f202 	lsl.w	r2, r0, r2
    6db8:	4211      	tst	r1, r2
    6dba:	f10c 3eff 	add.w	lr, ip, #4294967295
    6dbe:	d007      	beq.n	6dd0 <__sformatter+0x684>
    6dc0:	f805 3b01 	strb.w	r3, [r5], #1
    6dc4:	9b0d      	ldr	r3, [sp, #52]	; 0x34
    6dc6:	1818      	adds	r0, r3, r0
    6dc8:	900d      	str	r0, [sp, #52]	; 0x34
    6dca:	e7d2      	b.n	6d72 <__sformatter+0x626>
    6dcc:	2100      	movs	r1, #0
    6dce:	910a      	str	r1, [sp, #40]	; 0x28
    6dd0:	9b0d      	ldr	r3, [sp, #52]	; 0x34
    6dd2:	fa5f f18b 	uxtb.w	r1, fp
    6dd6:	b11b      	cbz	r3, 6de0 <__sformatter+0x694>
    6dd8:	9a2e      	ldr	r2, [sp, #184]	; 0xb8
    6dda:	b142      	cbz	r2, 6dee <__sformatter+0x6a2>
    6ddc:	980a      	ldr	r0, [sp, #40]	; 0x28
    6dde:	b930      	cbnz	r0, 6dee <__sformatter+0x6a2>
    6de0:	4640      	mov	r0, r8
    6de2:	2201      	movs	r2, #1
    6de4:	47b8      	blx	r7
    6de6:	9b2e      	ldr	r3, [sp, #184]	; 0xb8
    6de8:	2b00      	cmp	r3, #0
    6dea:	d052      	beq.n	6e92 <__sformatter+0x746>
    6dec:	e04f      	b.n	6e8e <__sformatter+0x742>
    6dee:	18f6      	adds	r6, r6, r3
    6df0:	2300      	movs	r3, #0
    6df2:	702b      	strb	r3, [r5, #0]
    6df4:	9d07      	ldr	r5, [sp, #28]
    6df6:	1c6a      	adds	r2, r5, #1
    6df8:	9207      	str	r2, [sp, #28]
    6dfa:	e027      	b.n	6e4c <__sformatter+0x700>
    6dfc:	950d      	str	r5, [sp, #52]	; 0x34
    6dfe:	1e5d      	subs	r5, r3, #1
    6e00:	1c6b      	adds	r3, r5, #1
    6e02:	46a9      	mov	r9, r5
    6e04:	d019      	beq.n	6e3a <__sformatter+0x6ee>
    6e06:	2100      	movs	r1, #0
    6e08:	4640      	mov	r0, r8
    6e0a:	460a      	mov	r2, r1
    6e0c:	47b8      	blx	r7
    6e0e:	f1b0 3fff 	cmp.w	r0, #4294967295
    6e12:	4683      	mov	fp, r0
    6e14:	d011      	beq.n	6e3a <__sformatter+0x6ee>
    6e16:	f3cb 02c4 	ubfx	r2, fp, #3, #5
    6e1a:	a924      	add	r1, sp, #144	; 0x90
    6e1c:	1888      	adds	r0, r1, r2
    6e1e:	f00b 0307 	and.w	r3, fp, #7
    6e22:	2101      	movs	r1, #1
    6e24:	f810 2c48 	ldrb.w	r2, [r0, #-72]
    6e28:	fa01 f303 	lsl.w	r3, r1, r3
    6e2c:	3d01      	subs	r5, #1
    6e2e:	421a      	tst	r2, r3
    6e30:	d003      	beq.n	6e3a <__sformatter+0x6ee>
    6e32:	980d      	ldr	r0, [sp, #52]	; 0x34
    6e34:	1841      	adds	r1, r0, r1
    6e36:	910d      	str	r1, [sp, #52]	; 0x34
    6e38:	e7e2      	b.n	6e00 <__sformatter+0x6b4>
    6e3a:	9d0d      	ldr	r5, [sp, #52]	; 0x34
    6e3c:	b925      	cbnz	r5, 6e48 <__sformatter+0x6fc>
    6e3e:	4640      	mov	r0, r8
    6e40:	4659      	mov	r1, fp
    6e42:	2201      	movs	r2, #1
    6e44:	47b8      	blx	r7
    6e46:	e48f      	b.n	6768 <__sformatter+0x1c>
    6e48:	1976      	adds	r6, r6, r5
    6e4a:	4659      	mov	r1, fp
    6e4c:	f1b9 0f00 	cmp.w	r9, #0
    6e50:	db02      	blt.n	6e58 <__sformatter+0x70c>
    6e52:	4640      	mov	r0, r8
    6e54:	2201      	movs	r2, #1
    6e56:	47b8      	blx	r7
    6e58:	9906      	ldr	r1, [sp, #24]
    6e5a:	1c48      	adds	r0, r1, #1
    6e5c:	9006      	str	r0, [sp, #24]
    6e5e:	e483      	b.n	6768 <__sformatter+0x1c>
    6e60:	2d00      	cmp	r5, #0
    6e62:	f43f ac81 	beq.w	6768 <__sformatter+0x1c>
    6e66:	9908      	ldr	r1, [sp, #32]
    6e68:	2903      	cmp	r1, #3
    6e6a:	f63f ac7d 	bhi.w	6768 <__sformatter+0x1c>
    6e6e:	e8df f001 	tbb	[pc, r1]
    6e72:	0907      	.short	0x0907
    6e74:	0705      	.short	0x0705
    6e76:	bf00      	nop
    6e78:	1fffe020 	.word	0x1fffe020
    6e7c:	802e      	strh	r6, [r5, #0]
    6e7e:	e473      	b.n	6768 <__sformatter+0x1c>
    6e80:	602e      	str	r6, [r5, #0]
    6e82:	e471      	b.n	6768 <__sformatter+0x1c>
    6e84:	702e      	strb	r6, [r5, #0]
    6e86:	e46f      	b.n	6768 <__sformatter+0x1c>
    6e88:	2401      	movs	r4, #1
    6e8a:	9409      	str	r4, [sp, #36]	; 0x24
    6e8c:	e46c      	b.n	6768 <__sformatter+0x1c>
    6e8e:	2401      	movs	r4, #1
    6e90:	e46a      	b.n	6768 <__sformatter+0x1c>
    6e92:	4640      	mov	r0, r8
    6e94:	2100      	movs	r1, #0
    6e96:	2202      	movs	r2, #2
    6e98:	47b8      	blx	r7
    6e9a:	b128      	cbz	r0, 6ea8 <__sformatter+0x75c>
    6e9c:	9b06      	ldr	r3, [sp, #24]
    6e9e:	bb1b      	cbnz	r3, 6ee8 <__sformatter+0x79c>
    6ea0:	f04f 31ff 	mov.w	r1, #4294967295
    6ea4:	9107      	str	r1, [sp, #28]
    6ea6:	e01f      	b.n	6ee8 <__sformatter+0x79c>
    6ea8:	9906      	ldr	r1, [sp, #24]
    6eaa:	b9e9      	cbnz	r1, 6ee8 <__sformatter+0x79c>
    6eac:	9a09      	ldr	r2, [sp, #36]	; 0x24
    6eae:	b1da      	cbz	r2, 6ee8 <__sformatter+0x79c>
    6eb0:	460a      	mov	r2, r1
    6eb2:	4640      	mov	r0, r8
    6eb4:	47b8      	blx	r7
    6eb6:	9906      	ldr	r1, [sp, #24]
    6eb8:	4604      	mov	r4, r0
    6eba:	2202      	movs	r2, #2
    6ebc:	4640      	mov	r0, r8
    6ebe:	47b8      	blx	r7
    6ec0:	2800      	cmp	r0, #0
    6ec2:	d1ed      	bne.n	6ea0 <__sformatter+0x754>
    6ec4:	4640      	mov	r0, r8
    6ec6:	4621      	mov	r1, r4
    6ec8:	2201      	movs	r2, #1
    6eca:	47b8      	blx	r7
    6ecc:	e00c      	b.n	6ee8 <__sformatter+0x79c>
    6ece:	2900      	cmp	r1, #0
    6ed0:	f43f adb4 	beq.w	6a3c <__sformatter+0x2f0>
    6ed4:	2300      	movs	r3, #0
    6ed6:	a91a      	add	r1, sp, #104	; 0x68
    6ed8:	18ca      	adds	r2, r1, r3
    6eda:	3301      	adds	r3, #1
    6edc:	7a10      	ldrb	r0, [r2, #8]
    6ede:	43c1      	mvns	r1, r0
    6ee0:	2b20      	cmp	r3, #32
    6ee2:	7211      	strb	r1, [r2, #8]
    6ee4:	d1f7      	bne.n	6ed6 <__sformatter+0x78a>
    6ee6:	e5a9      	b.n	6a3c <__sformatter+0x2f0>
    6ee8:	9807      	ldr	r0, [sp, #28]
    6eea:	b025      	add	sp, #148	; 0x94
    6eec:	e8bd 8ff0 	ldmia.w	sp!, {r4, r5, r6, r7, r8, r9, sl, fp, pc}

00006ef0 <isalpha>:
    6ef0:	f5b0 7f80 	cmp.w	r0, #256	; 0x100
    6ef4:	d805      	bhi.n	6f02 <isalpha+0x12>
    6ef6:	4b04      	ldr	r3, [pc, #16]	; (6f08 <isalpha+0x18>)
    6ef8:	1818      	adds	r0, r3, r0
    6efa:	7841      	ldrb	r1, [r0, #1]
    6efc:	f001 0001 	and.w	r0, r1, #1
    6f00:	4770      	bx	lr
    6f02:	2000      	movs	r0, #0
    6f04:	4770      	bx	lr
    6f06:	bf00      	nop
    6f08:	0001220a 	.word	0x0001220a

00006f0c <isspace>:
    6f0c:	f5b0 7f80 	cmp.w	r0, #256	; 0x100
    6f10:	d806      	bhi.n	6f20 <isspace+0x14>
    6f12:	4b04      	ldr	r3, [pc, #16]	; (6f24 <isspace+0x18>)
    6f14:	1818      	adds	r0, r3, r0
    6f16:	7841      	ldrb	r1, [r0, #1]
    6f18:	f001 0210 	and.w	r2, r1, #16
    6f1c:	b2d0      	uxtb	r0, r2
    6f1e:	4770      	bx	lr
    6f20:	2000      	movs	r0, #0
    6f22:	4770      	bx	lr
    6f24:	0001220a 	.word	0x0001220a

00006f28 <isupper>:
    6f28:	f5b0 7f80 	cmp.w	r0, #256	; 0x100
    6f2c:	d806      	bhi.n	6f3c <isupper+0x14>
    6f2e:	4b04      	ldr	r3, [pc, #16]	; (6f40 <isupper+0x18>)
    6f30:	1818      	adds	r0, r3, r0
    6f32:	7841      	ldrb	r1, [r0, #1]
    6f34:	f001 0240 	and.w	r2, r1, #64	; 0x40
    6f38:	b2d0      	uxtb	r0, r2
    6f3a:	4770      	bx	lr
    6f3c:	2000      	movs	r0, #0
    6f3e:	4770      	bx	lr
    6f40:	0001220a 	.word	0x0001220a

00006f44 <isxdigit>:
    6f44:	f5b0 7f80 	cmp.w	r0, #256	; 0x100
    6f48:	d806      	bhi.n	6f58 <isxdigit+0x14>
    6f4a:	4b04      	ldr	r3, [pc, #16]	; (6f5c <isxdigit+0x18>)
    6f4c:	1818      	adds	r0, r3, r0
    6f4e:	7841      	ldrb	r1, [r0, #1]
    6f50:	f001 0202 	and.w	r2, r1, #2
    6f54:	b2d0      	uxtb	r0, r2
    6f56:	4770      	bx	lr
    6f58:	2000      	movs	r0, #0
    6f5a:	4770      	bx	lr
    6f5c:	0001220a 	.word	0x0001220a

00006f60 <toupper>:
    6f60:	f1a0 0361 	sub.w	r3, r0, #97	; 0x61
    6f64:	2b19      	cmp	r3, #25
    6f66:	bf98      	it	ls
    6f68:	3820      	subls	r0, #32
    6f6a:	4770      	bx	lr

00006f6c <__strtold>:
    6f6c:	e92d 4ff0 	stmdb	sp!, {r4, r5, r6, r7, r8, r9, sl, fp, lr}
    6f70:	b09d      	sub	sp, #116	; 0x74
    6f72:	2400      	movs	r4, #0
    6f74:	930c      	str	r3, [sp, #48]	; 0x30
    6f76:	4bb6      	ldr	r3, [pc, #728]	; (7250 <__strtold+0x2e4>)
    6f78:	900d      	str	r0, [sp, #52]	; 0x34
    6f7a:	7818      	ldrb	r0, [r3, #0]
    6f7c:	f88d 4048 	strb.w	r4, [sp, #72]	; 0x48
    6f80:	460e      	mov	r6, r1
    6f82:	4617      	mov	r7, r2
    6f84:	4621      	mov	r1, r4
    6f86:	f88d 004d 	strb.w	r0, [sp, #77]	; 0x4d
    6f8a:	221f      	movs	r2, #31
    6f8c:	f10d 004e 	add.w	r0, sp, #78	; 0x4e
    6f90:	f88d 4049 	strb.w	r4, [sp, #73]	; 0x49
    6f94:	f8ad 404a 	strh.w	r4, [sp, #74]	; 0x4a
    6f98:	f88d 404c 	strb.w	r4, [sp, #76]	; 0x4c
    6f9c:	f7fe fee6 	bl	5d6c <memset>
    6fa0:	9d26      	ldr	r5, [sp, #152]	; 0x98
    6fa2:	f88d 406d 	strb.w	r4, [sp, #109]	; 0x6d
    6fa6:	602c      	str	r4, [r5, #0]
    6fa8:	4621      	mov	r1, r4
    6faa:	4622      	mov	r2, r4
    6fac:	4638      	mov	r0, r7
    6fae:	47b0      	blx	r6
    6fb0:	46a1      	mov	r9, r4
    6fb2:	940b      	str	r4, [sp, #44]	; 0x2c
    6fb4:	46a3      	mov	fp, r4
    6fb6:	9406      	str	r4, [sp, #24]
    6fb8:	940a      	str	r4, [sp, #40]	; 0x28
    6fba:	9405      	str	r4, [sp, #20]
    6fbc:	9404      	str	r4, [sp, #16]
    6fbe:	9409      	str	r4, [sp, #36]	; 0x24
    6fc0:	9407      	str	r4, [sp, #28]
    6fc2:	9408      	str	r4, [sp, #32]
    6fc4:	2401      	movs	r4, #1
    6fc6:	4682      	mov	sl, r0
    6fc8:	46c8      	mov	r8, r9
    6fca:	4625      	mov	r5, r4
    6fcc:	9a0d      	ldr	r2, [sp, #52]	; 0x34
    6fce:	4294      	cmp	r4, r2
    6fd0:	f300 81ed 	bgt.w	73ae <__strtold+0x442>
    6fd4:	f1ba 3fff 	cmp.w	sl, #4294967295
    6fd8:	f000 81e9 	beq.w	73ae <__strtold+0x442>
    6fdc:	f415 51c0 	ands.w	r1, r5, #6144	; 0x1800
    6fe0:	f040 81e5 	bne.w	73ae <__strtold+0x442>
    6fe4:	2d20      	cmp	r5, #32
    6fe6:	f000 8095 	beq.w	7114 <__strtold+0x1a8>
    6fea:	d813      	bhi.n	7014 <__strtold+0xa8>
    6fec:	2d04      	cmp	r5, #4
    6fee:	d067      	beq.n	70c0 <__strtold+0x154>
    6ff0:	d804      	bhi.n	6ffc <__strtold+0x90>
    6ff2:	2d01      	cmp	r5, #1
    6ff4:	d025      	beq.n	7042 <__strtold+0xd6>
    6ff6:	2d02      	cmp	r5, #2
    6ff8:	d1e8      	bne.n	6fcc <__strtold+0x60>
    6ffa:	e03c      	b.n	7076 <__strtold+0x10a>
    6ffc:	2d08      	cmp	r5, #8
    6ffe:	d069      	beq.n	70d4 <__strtold+0x168>
    7000:	2d10      	cmp	r5, #16
    7002:	d1e3      	bne.n	6fcc <__strtold+0x60>
    7004:	f1aa 0130 	sub.w	r1, sl, #48	; 0x30
    7008:	2909      	cmp	r1, #9
    700a:	bf94      	ite	ls
    700c:	2520      	movls	r5, #32
    700e:	f44f 5580 	movhi.w	r5, #4096	; 0x1000
    7012:	e7db      	b.n	6fcc <__strtold+0x60>
    7014:	f5b5 7f80 	cmp.w	r5, #256	; 0x100
    7018:	f000 80bb 	beq.w	7192 <__strtold+0x226>
    701c:	d805      	bhi.n	702a <__strtold+0xbe>
    701e:	2d40      	cmp	r5, #64	; 0x40
    7020:	f000 8090 	beq.w	7144 <__strtold+0x1d8>
    7024:	2d80      	cmp	r5, #128	; 0x80
    7026:	d1d1      	bne.n	6fcc <__strtold+0x60>
    7028:	e09b      	b.n	7162 <__strtold+0x1f6>
    702a:	f5b5 6f80 	cmp.w	r5, #1024	; 0x400
    702e:	f000 80c6 	beq.w	71be <__strtold+0x252>
    7032:	f5b5 4f00 	cmp.w	r5, #32768	; 0x8000
    7036:	f000 80d3 	beq.w	71e0 <__strtold+0x274>
    703a:	f5b5 7f00 	cmp.w	r5, #512	; 0x200
    703e:	d1c5      	bne.n	6fcc <__strtold+0x60>
    7040:	e0b8      	b.n	71b4 <__strtold+0x248>
    7042:	4650      	mov	r0, sl
    7044:	9101      	str	r1, [sp, #4]
    7046:	f7ff ff61 	bl	6f0c <isspace>
    704a:	9901      	ldr	r1, [sp, #4]
    704c:	b138      	cbz	r0, 705e <__strtold+0xf2>
    704e:	460a      	mov	r2, r1
    7050:	4638      	mov	r0, r7
    7052:	47b0      	blx	r6
    7054:	9a08      	ldr	r2, [sp, #32]
    7056:	4682      	mov	sl, r0
    7058:	1c50      	adds	r0, r2, #1
    705a:	9008      	str	r0, [sp, #32]
    705c:	e7b6      	b.n	6fcc <__strtold+0x60>
    705e:	4650      	mov	r0, sl
    7060:	f7ff ff7e 	bl	6f60 <toupper>
    7064:	282b      	cmp	r0, #43	; 0x2b
    7066:	f000 8186 	beq.w	7376 <__strtold+0x40a>
    706a:	282d      	cmp	r0, #45	; 0x2d
    706c:	f040 8187 	bne.w	737e <__strtold+0x412>
    7070:	2301      	movs	r3, #1
    7072:	9307      	str	r3, [sp, #28]
    7074:	e17f      	b.n	7376 <__strtold+0x40a>
    7076:	f1ba 0f2e 	cmp.w	sl, #46	; 0x2e
    707a:	d107      	bne.n	708c <__strtold+0x120>
    707c:	2100      	movs	r1, #0
    707e:	4638      	mov	r0, r7
    7080:	460a      	mov	r2, r1
    7082:	47b0      	blx	r6
    7084:	3401      	adds	r4, #1
    7086:	4682      	mov	sl, r0
    7088:	2510      	movs	r5, #16
    708a:	e79f      	b.n	6fcc <__strtold+0x60>
    708c:	f1aa 0530 	sub.w	r5, sl, #48	; 0x30
    7090:	2d09      	cmp	r5, #9
    7092:	f200 8183 	bhi.w	739c <__strtold+0x430>
    7096:	f1ba 0f30 	cmp.w	sl, #48	; 0x30
    709a:	f040 8172 	bne.w	7382 <__strtold+0x416>
    709e:	2100      	movs	r1, #0
    70a0:	460a      	mov	r2, r1
    70a2:	4638      	mov	r0, r7
    70a4:	47b0      	blx	r6
    70a6:	4682      	mov	sl, r0
    70a8:	f7ff ff5a 	bl	6f60 <toupper>
    70ac:	3401      	adds	r4, #1
    70ae:	2858      	cmp	r0, #88	; 0x58
    70b0:	bf08      	it	eq
    70b2:	f04f 0801 	moveq.w	r8, #1
    70b6:	bf14      	ite	ne
    70b8:	2504      	movne	r5, #4
    70ba:	f44f 4500 	moveq.w	r5, #32768	; 0x8000
    70be:	e785      	b.n	6fcc <__strtold+0x60>
    70c0:	f1ba 0f30 	cmp.w	sl, #48	; 0x30
    70c4:	f040 815d 	bne.w	7382 <__strtold+0x416>
    70c8:	3401      	adds	r4, #1
    70ca:	4638      	mov	r0, r7
    70cc:	460a      	mov	r2, r1
    70ce:	47b0      	blx	r6
    70d0:	4682      	mov	sl, r0
    70d2:	e77b      	b.n	6fcc <__strtold+0x60>
    70d4:	f1aa 0330 	sub.w	r3, sl, #48	; 0x30
    70d8:	2b09      	cmp	r3, #9
    70da:	d90b      	bls.n	70f4 <__strtold+0x188>
    70dc:	f1ba 0f2e 	cmp.w	sl, #46	; 0x2e
    70e0:	f040 8151 	bne.w	7386 <__strtold+0x41a>
    70e4:	2100      	movs	r1, #0
    70e6:	4638      	mov	r0, r7
    70e8:	460a      	mov	r2, r1
    70ea:	47b0      	blx	r6
    70ec:	3401      	adds	r4, #1
    70ee:	4682      	mov	sl, r0
    70f0:	2520      	movs	r5, #32
    70f2:	e76b      	b.n	6fcc <__strtold+0x60>
    70f4:	f89d 204c 	ldrb.w	r2, [sp, #76]	; 0x4c
    70f8:	2a13      	cmp	r2, #19
    70fa:	d807      	bhi.n	710c <__strtold+0x1a0>
    70fc:	a91c      	add	r1, sp, #112	; 0x70
    70fe:	188b      	adds	r3, r1, r2
    7100:	3201      	adds	r2, #1
    7102:	f803 ac23 	strb.w	sl, [r3, #-35]
    7106:	f88d 204c 	strb.w	r2, [sp, #76]	; 0x4c
    710a:	e134      	b.n	7376 <__strtold+0x40a>
    710c:	9805      	ldr	r0, [sp, #20]
    710e:	3001      	adds	r0, #1
    7110:	9005      	str	r0, [sp, #20]
    7112:	e130      	b.n	7376 <__strtold+0x40a>
    7114:	f1aa 0130 	sub.w	r1, sl, #48	; 0x30
    7118:	2909      	cmp	r1, #9
    711a:	f200 8134 	bhi.w	7386 <__strtold+0x41a>
    711e:	f89d 304c 	ldrb.w	r3, [sp, #76]	; 0x4c
    7122:	2b13      	cmp	r3, #19
    7124:	f200 8127 	bhi.w	7376 <__strtold+0x40a>
    7128:	f1ba 0f30 	cmp.w	sl, #48	; 0x30
    712c:	d100      	bne.n	7130 <__strtold+0x1c4>
    712e:	b133      	cbz	r3, 713e <__strtold+0x1d2>
    7130:	a81c      	add	r0, sp, #112	; 0x70
    7132:	18c2      	adds	r2, r0, r3
    7134:	1c59      	adds	r1, r3, #1
    7136:	f802 ac23 	strb.w	sl, [r2, #-35]
    713a:	f88d 104c 	strb.w	r1, [sp, #76]	; 0x4c
    713e:	9b05      	ldr	r3, [sp, #20]
    7140:	1e58      	subs	r0, r3, #1
    7142:	e7e5      	b.n	7110 <__strtold+0x1a4>
    7144:	4650      	mov	r0, sl
    7146:	9101      	str	r1, [sp, #4]
    7148:	f7ff ff0a 	bl	6f60 <toupper>
    714c:	2845      	cmp	r0, #69	; 0x45
    714e:	9901      	ldr	r1, [sp, #4]
    7150:	f040 812a 	bne.w	73a8 <__strtold+0x43c>
    7154:	4638      	mov	r0, r7
    7156:	460a      	mov	r2, r1
    7158:	47b0      	blx	r6
    715a:	3401      	adds	r4, #1
    715c:	4682      	mov	sl, r0
    715e:	2580      	movs	r5, #128	; 0x80
    7160:	e734      	b.n	6fcc <__strtold+0x60>
    7162:	f1ba 0f2b 	cmp.w	sl, #43	; 0x2b
    7166:	d106      	bne.n	7176 <__strtold+0x20a>
    7168:	2100      	movs	r1, #0
    716a:	4638      	mov	r0, r7
    716c:	460a      	mov	r2, r1
    716e:	47b0      	blx	r6
    7170:	3401      	adds	r4, #1
    7172:	4682      	mov	sl, r0
    7174:	e00a      	b.n	718c <__strtold+0x220>
    7176:	f1ba 0f2d 	cmp.w	sl, #45	; 0x2d
    717a:	d107      	bne.n	718c <__strtold+0x220>
    717c:	2100      	movs	r1, #0
    717e:	4638      	mov	r0, r7
    7180:	460a      	mov	r2, r1
    7182:	47b0      	blx	r6
    7184:	2501      	movs	r5, #1
    7186:	3401      	adds	r4, #1
    7188:	4682      	mov	sl, r0
    718a:	9509      	str	r5, [sp, #36]	; 0x24
    718c:	f44f 7580 	mov.w	r5, #256	; 0x100
    7190:	e71c      	b.n	6fcc <__strtold+0x60>
    7192:	f1aa 0530 	sub.w	r5, sl, #48	; 0x30
    7196:	2d09      	cmp	r5, #9
    7198:	f200 8100 	bhi.w	739c <__strtold+0x430>
    719c:	f1ba 0f30 	cmp.w	sl, #48	; 0x30
    71a0:	f040 80f3 	bne.w	738a <__strtold+0x41e>
    71a4:	4638      	mov	r0, r7
    71a6:	460a      	mov	r2, r1
    71a8:	47b0      	blx	r6
    71aa:	3401      	adds	r4, #1
    71ac:	4682      	mov	sl, r0
    71ae:	f44f 7500 	mov.w	r5, #512	; 0x200
    71b2:	e70b      	b.n	6fcc <__strtold+0x60>
    71b4:	f1ba 0f30 	cmp.w	sl, #48	; 0x30
    71b8:	f040 80e7 	bne.w	738a <__strtold+0x41e>
    71bc:	e0db      	b.n	7376 <__strtold+0x40a>
    71be:	f1aa 0230 	sub.w	r2, sl, #48	; 0x30
    71c2:	2a09      	cmp	r2, #9
    71c4:	f200 80f0 	bhi.w	73a8 <__strtold+0x43c>
    71c8:	9804      	ldr	r0, [sp, #16]
    71ca:	230a      	movs	r3, #10
    71cc:	fb03 2a00 	mla	sl, r3, r0, r2
    71d0:	f647 72ff 	movw	r2, #32767	; 0x7fff
    71d4:	4592      	cmp	sl, r2
    71d6:	bfa8      	it	ge
    71d8:	4692      	movge	sl, r2
    71da:	f8cd a010 	str.w	sl, [sp, #16]
    71de:	e773      	b.n	70c8 <__strtold+0x15c>
    71e0:	f1b8 0f10 	cmp.w	r8, #16
    71e4:	d07d      	beq.n	72e2 <__strtold+0x376>
    71e6:	d821      	bhi.n	722c <__strtold+0x2c0>
    71e8:	f1b8 0f02 	cmp.w	r8, #2
    71ec:	d032      	beq.n	7254 <__strtold+0x2e8>
    71ee:	d815      	bhi.n	721c <__strtold+0x2b0>
    71f0:	f1b8 0f01 	cmp.w	r8, #1
    71f4:	f47f aeea 	bne.w	6fcc <__strtold+0x60>
    71f8:	f04f 0900 	mov.w	r9, #0
    71fc:	4638      	mov	r0, r7
    71fe:	4649      	mov	r1, r9
    7200:	464a      	mov	r2, r9
    7202:	f8cd 9040 	str.w	r9, [sp, #64]	; 0x40
    7206:	f8cd 9044 	str.w	r9, [sp, #68]	; 0x44
    720a:	47b0      	blx	r6
    720c:	4682      	mov	sl, r0
    720e:	200e      	movs	r0, #14
    7210:	3401      	adds	r4, #1
    7212:	46cb      	mov	fp, r9
    7214:	900a      	str	r0, [sp, #40]	; 0x28
    7216:	f04f 0802 	mov.w	r8, #2
    721a:	e6d7      	b.n	6fcc <__strtold+0x60>
    721c:	f1b8 0f04 	cmp.w	r8, #4
    7220:	d01d      	beq.n	725e <__strtold+0x2f2>
    7222:	f1b8 0f08 	cmp.w	r8, #8
    7226:	f47f aed1 	bne.w	6fcc <__strtold+0x60>
    722a:	e02f      	b.n	728c <__strtold+0x320>
    722c:	f1b8 0f40 	cmp.w	r8, #64	; 0x40
    7230:	d07c      	beq.n	732c <__strtold+0x3c0>
    7232:	d804      	bhi.n	723e <__strtold+0x2d2>
    7234:	f1b8 0f20 	cmp.w	r8, #32
    7238:	f47f aec8 	bne.w	6fcc <__strtold+0x60>
    723c:	e05f      	b.n	72fe <__strtold+0x392>
    723e:	f1b8 0f80 	cmp.w	r8, #128	; 0x80
    7242:	f000 8083 	beq.w	734c <__strtold+0x3e0>
    7246:	f5b8 7f80 	cmp.w	r8, #256	; 0x100
    724a:	f47f aebf 	bne.w	6fcc <__strtold+0x60>
    724e:	e081      	b.n	7354 <__strtold+0x3e8>
    7250:	00009d94 	.word	0x00009d94
    7254:	f1ba 0f30 	cmp.w	sl, #48	; 0x30
    7258:	f040 809a 	bne.w	7390 <__strtold+0x424>
    725c:	e08b      	b.n	7376 <__strtold+0x40a>
    725e:	4650      	mov	r0, sl
    7260:	f7ff fe70 	bl	6f44 <isxdigit>
    7264:	4601      	mov	r1, r0
    7266:	b958      	cbnz	r0, 7280 <__strtold+0x314>
    7268:	f1ba 0f2e 	cmp.w	sl, #46	; 0x2e
    726c:	f040 8093 	bne.w	7396 <__strtold+0x42a>
    7270:	4638      	mov	r0, r7
    7272:	460a      	mov	r2, r1
    7274:	47b0      	blx	r6
    7276:	3401      	adds	r4, #1
    7278:	4682      	mov	sl, r0
    727a:	f04f 0808 	mov.w	r8, #8
    727e:	e6a5      	b.n	6fcc <__strtold+0x60>
    7280:	9b0a      	ldr	r3, [sp, #40]	; 0x28
    7282:	4599      	cmp	r9, r3
    7284:	d277      	bcs.n	7376 <__strtold+0x40a>
    7286:	f109 0901 	add.w	r9, r9, #1
    728a:	e007      	b.n	729c <__strtold+0x330>
    728c:	4650      	mov	r0, sl
    728e:	f7ff fe59 	bl	6f44 <isxdigit>
    7292:	2800      	cmp	r0, #0
    7294:	d07f      	beq.n	7396 <__strtold+0x42a>
    7296:	990a      	ldr	r1, [sp, #40]	; 0x28
    7298:	4589      	cmp	r9, r1
    729a:	d26c      	bcs.n	7376 <__strtold+0x40a>
    729c:	a910      	add	r1, sp, #64	; 0x40
    729e:	ea4f 026b 	mov.w	r2, fp, asr #1
    72a2:	4650      	mov	r0, sl
    72a4:	f811 c002 	ldrb.w	ip, [r1, r2]
    72a8:	9101      	str	r1, [sp, #4]
    72aa:	9202      	str	r2, [sp, #8]
    72ac:	f8cd c00c 	str.w	ip, [sp, #12]
    72b0:	f7ff fe56 	bl	6f60 <toupper>
    72b4:	ab01      	add	r3, sp, #4
    72b6:	2840      	cmp	r0, #64	; 0x40
    72b8:	e893 1006 	ldmia.w	r3, {r1, r2, ip}
    72bc:	dd01      	ble.n	72c2 <__strtold+0x356>
    72be:	3837      	subs	r0, #55	; 0x37
    72c0:	e000      	b.n	72c4 <__strtold+0x358>
    72c2:	3830      	subs	r0, #48	; 0x30
    72c4:	f01b 0f01 	tst.w	fp, #1
    72c8:	b2c0      	uxtb	r0, r0
    72ca:	bf0a      	itet	eq
    72cc:	ea4c 1c00 	orreq.w	ip, ip, r0, lsl #4
    72d0:	ea40 0c0c 	orrne.w	ip, r0, ip
    72d4:	fa5f fc8c 	uxtbeq.w	ip, ip
    72d8:	f801 c002 	strb.w	ip, [r1, r2]
    72dc:	f10b 0b01 	add.w	fp, fp, #1
    72e0:	e049      	b.n	7376 <__strtold+0x40a>
    72e2:	4650      	mov	r0, sl
    72e4:	f7ff fe3c 	bl	6f60 <toupper>
    72e8:	2850      	cmp	r0, #80	; 0x50
    72ea:	d15d      	bne.n	73a8 <__strtold+0x43c>
    72ec:	2100      	movs	r1, #0
    72ee:	4638      	mov	r0, r7
    72f0:	460a      	mov	r2, r1
    72f2:	47b0      	blx	r6
    72f4:	3401      	adds	r4, #1
    72f6:	4682      	mov	sl, r0
    72f8:	f04f 0820 	mov.w	r8, #32
    72fc:	e666      	b.n	6fcc <__strtold+0x60>
    72fe:	f1ba 0f2d 	cmp.w	sl, #45	; 0x2d
    7302:	d008      	beq.n	7316 <__strtold+0x3aa>
    7304:	f1ba 0f2b 	cmp.w	sl, #43	; 0x2b
    7308:	d007      	beq.n	731a <__strtold+0x3ae>
    730a:	4638      	mov	r0, r7
    730c:	4651      	mov	r1, sl
    730e:	2201      	movs	r2, #1
    7310:	47b0      	blx	r6
    7312:	3c01      	subs	r4, #1
    7314:	e001      	b.n	731a <__strtold+0x3ae>
    7316:	2101      	movs	r1, #1
    7318:	910b      	str	r1, [sp, #44]	; 0x2c
    731a:	2100      	movs	r1, #0
    731c:	4638      	mov	r0, r7
    731e:	460a      	mov	r2, r1
    7320:	47b0      	blx	r6
    7322:	3401      	adds	r4, #1
    7324:	4682      	mov	sl, r0
    7326:	f04f 0840 	mov.w	r8, #64	; 0x40
    732a:	e64f      	b.n	6fcc <__strtold+0x60>
    732c:	f1aa 0030 	sub.w	r0, sl, #48	; 0x30
    7330:	2809      	cmp	r0, #9
    7332:	d833      	bhi.n	739c <__strtold+0x430>
    7334:	f1ba 0f30 	cmp.w	sl, #48	; 0x30
    7338:	d133      	bne.n	73a2 <__strtold+0x436>
    733a:	2100      	movs	r1, #0
    733c:	4638      	mov	r0, r7
    733e:	460a      	mov	r2, r1
    7340:	47b0      	blx	r6
    7342:	3401      	adds	r4, #1
    7344:	4682      	mov	sl, r0
    7346:	f04f 0880 	mov.w	r8, #128	; 0x80
    734a:	e63f      	b.n	6fcc <__strtold+0x60>
    734c:	f1ba 0f30 	cmp.w	sl, #48	; 0x30
    7350:	d127      	bne.n	73a2 <__strtold+0x436>
    7352:	e010      	b.n	7376 <__strtold+0x40a>
    7354:	f1aa 0230 	sub.w	r2, sl, #48	; 0x30
    7358:	2a09      	cmp	r2, #9
    735a:	d825      	bhi.n	73a8 <__strtold+0x43c>
    735c:	9806      	ldr	r0, [sp, #24]
    735e:	230a      	movs	r3, #10
    7360:	fb03 a100 	mla	r1, r3, r0, sl
    7364:	9b04      	ldr	r3, [sp, #16]
    7366:	f647 72ff 	movw	r2, #32767	; 0x7fff
    736a:	3930      	subs	r1, #48	; 0x30
    736c:	4293      	cmp	r3, r2
    736e:	bfa8      	it	ge
    7370:	4613      	movge	r3, r2
    7372:	9106      	str	r1, [sp, #24]
    7374:	9304      	str	r3, [sp, #16]
    7376:	3401      	adds	r4, #1
    7378:	4638      	mov	r0, r7
    737a:	2100      	movs	r1, #0
    737c:	e6a6      	b.n	70cc <__strtold+0x160>
    737e:	2502      	movs	r5, #2
    7380:	e624      	b.n	6fcc <__strtold+0x60>
    7382:	2508      	movs	r5, #8
    7384:	e622      	b.n	6fcc <__strtold+0x60>
    7386:	2540      	movs	r5, #64	; 0x40
    7388:	e620      	b.n	6fcc <__strtold+0x60>
    738a:	f44f 6580 	mov.w	r5, #1024	; 0x400
    738e:	e61d      	b.n	6fcc <__strtold+0x60>
    7390:	f04f 0804 	mov.w	r8, #4
    7394:	e61a      	b.n	6fcc <__strtold+0x60>
    7396:	f04f 0810 	mov.w	r8, #16
    739a:	e617      	b.n	6fcc <__strtold+0x60>
    739c:	f44f 5580 	mov.w	r5, #4096	; 0x1000
    73a0:	e614      	b.n	6fcc <__strtold+0x60>
    73a2:	f44f 7880 	mov.w	r8, #256	; 0x100
    73a6:	e611      	b.n	6fcc <__strtold+0x60>
    73a8:	f44f 6500 	mov.w	r5, #2048	; 0x800
    73ac:	e60e      	b.n	6fcc <__strtold+0x60>
    73ae:	f5b5 4f00 	cmp.w	r5, #32768	; 0x8000
    73b2:	d007      	beq.n	73c4 <__strtold+0x458>
    73b4:	f640 632c 	movw	r3, #3628	; 0xe2c
    73b8:	402b      	ands	r3, r5
    73ba:	f1d3 0101 	rsbs	r1, r3, #1
    73be:	bf38      	it	cc
    73c0:	2100      	movcc	r1, #0
    73c2:	e008      	b.n	73d6 <__strtold+0x46a>
    73c4:	2c03      	cmp	r4, #3
    73c6:	dd05      	ble.n	73d4 <__strtold+0x468>
    73c8:	f418 7fc7 	tst.w	r8, #398	; 0x18e
    73cc:	bf14      	ite	ne
    73ce:	2100      	movne	r1, #0
    73d0:	2101      	moveq	r1, #1
    73d2:	e000      	b.n	73d6 <__strtold+0x46a>
    73d4:	2101      	movs	r1, #1
    73d6:	b119      	cbz	r1, 73e0 <__strtold+0x474>
    73d8:	9b0c      	ldr	r3, [sp, #48]	; 0x30
    73da:	2400      	movs	r4, #0
    73dc:	601c      	str	r4, [r3, #0]
    73de:	e004      	b.n	73ea <__strtold+0x47e>
    73e0:	9808      	ldr	r0, [sp, #32]
    73e2:	990c      	ldr	r1, [sp, #48]	; 0x30
    73e4:	3c01      	subs	r4, #1
    73e6:	1822      	adds	r2, r4, r0
    73e8:	600a      	str	r2, [r1, #0]
    73ea:	4638      	mov	r0, r7
    73ec:	4651      	mov	r1, sl
    73ee:	2201      	movs	r2, #1
    73f0:	47b0      	blx	r6
    73f2:	f1b8 0f00 	cmp.w	r8, #0
    73f6:	d17b      	bne.n	74f0 <__strtold+0x584>
    73f8:	9b09      	ldr	r3, [sp, #36]	; 0x24
    73fa:	b113      	cbz	r3, 7402 <__strtold+0x496>
    73fc:	9a04      	ldr	r2, [sp, #16]
    73fe:	4251      	negs	r1, r2
    7400:	9104      	str	r1, [sp, #16]
    7402:	f89d 104c 	ldrb.w	r1, [sp, #76]	; 0x4c
    7406:	a81c      	add	r0, sp, #112	; 0x70
    7408:	1842      	adds	r2, r0, r1
    740a:	3a23      	subs	r2, #35	; 0x23
    740c:	4613      	mov	r3, r2
    740e:	9e05      	ldr	r6, [sp, #20]
    7410:	18b4      	adds	r4, r6, r2
    7412:	1e4e      	subs	r6, r1, #1
    7414:	1ae0      	subs	r0, r4, r3
    7416:	1ab4      	subs	r4, r6, r2
    7418:	1a8e      	subs	r6, r1, r2
    741a:	18f6      	adds	r6, r6, r3
    741c:	18e4      	adds	r4, r4, r3
    741e:	b966      	cbnz	r6, 743a <__strtold+0x4ce>
    7420:	b2e1      	uxtb	r1, r4
    7422:	1c4a      	adds	r2, r1, #1
    7424:	b2d3      	uxtb	r3, r2
    7426:	f88d 304c 	strb.w	r3, [sp, #76]	; 0x4c
    742a:	b95b      	cbnz	r3, 7444 <__strtold+0x4d8>
    742c:	2430      	movs	r4, #48	; 0x30
    742e:	1c8e      	adds	r6, r1, #2
    7430:	f88d 404d 	strb.w	r4, [sp, #77]	; 0x4d
    7434:	f88d 604c 	strb.w	r6, [sp, #76]	; 0x4c
    7438:	e004      	b.n	7444 <__strtold+0x4d8>
    743a:	f813 6d01 	ldrb.w	r6, [r3, #-1]!
    743e:	2e30      	cmp	r6, #48	; 0x30
    7440:	d0e5      	beq.n	740e <__strtold+0x4a2>
    7442:	e7ed      	b.n	7420 <__strtold+0x4b4>
    7444:	9904      	ldr	r1, [sp, #16]
    7446:	f501 729a 	add.w	r2, r1, #308	; 0x134
    744a:	f5b2 7f1a 	cmp.w	r2, #616	; 0x268
    744e:	d90b      	bls.n	7468 <__strtold+0x4fc>
    7450:	f89d 304d 	ldrb.w	r3, [sp, #77]	; 0x4d
    7454:	2b30      	cmp	r3, #48	; 0x30
    7456:	d104      	bne.n	7462 <__strtold+0x4f6>
    7458:	f89d 404e 	ldrb.w	r4, [sp, #78]	; 0x4e
    745c:	2c00      	cmp	r4, #0
    745e:	f000 80a5 	beq.w	75ac <__strtold+0x640>
    7462:	9926      	ldr	r1, [sp, #152]	; 0x98
    7464:	2601      	movs	r6, #1
    7466:	600e      	str	r6, [r1, #0]
    7468:	9a26      	ldr	r2, [sp, #152]	; 0x98
    746a:	6813      	ldr	r3, [r2, #0]
    746c:	b153      	cbz	r3, 7484 <__strtold+0x518>
    746e:	9d09      	ldr	r5, [sp, #36]	; 0x24
    7470:	2d00      	cmp	r5, #0
    7472:	f040 809b 	bne.w	75ac <__strtold+0x640>
    7476:	9c07      	ldr	r4, [sp, #28]
    7478:	4e6b      	ldr	r6, [pc, #428]	; (7628 <__strtold+0x6bc>)
    747a:	b10c      	cbz	r4, 7480 <__strtold+0x514>
    747c:	ce50      	ldmia	r6, {r4, r6}
    747e:	e034      	b.n	74ea <__strtold+0x57e>
    7480:	ce50      	ldmia	r6, {r4, r6}
    7482:	e0cb      	b.n	761c <__strtold+0x6b0>
    7484:	9b04      	ldr	r3, [sp, #16]
    7486:	4f69      	ldr	r7, [pc, #420]	; (762c <__strtold+0x6c0>)
    7488:	eb03 0a00 	add.w	sl, r3, r0
    748c:	a812      	add	r0, sp, #72	; 0x48
    748e:	f8d7 8000 	ldr.w	r8, [r7]
    7492:	f8ad a04a 	strh.w	sl, [sp, #74]	; 0x4a
    7496:	f000 fb53 	bl	7b40 <__dec2num>
    749a:	f8c7 8000 	str.w	r8, [r7]
    749e:	2200      	movs	r2, #0
    74a0:	2300      	movs	r3, #0
    74a2:	4604      	mov	r4, r0
    74a4:	460e      	mov	r6, r1
    74a6:	f7f9 fdcb 	bl	1040 <__aeabi_dcmpeq>
    74aa:	b138      	cbz	r0, 74bc <__strtold+0x550>
    74ac:	f89d 104d 	ldrb.w	r1, [sp, #77]	; 0x4d
    74b0:	2930      	cmp	r1, #48	; 0x30
    74b2:	d010      	beq.n	74d6 <__strtold+0x56a>
    74b4:	9a26      	ldr	r2, [sp, #152]	; 0x98
    74b6:	2301      	movs	r3, #1
    74b8:	6013      	str	r3, [r2, #0]
    74ba:	e00c      	b.n	74d6 <__strtold+0x56a>
    74bc:	4a5c      	ldr	r2, [pc, #368]	; (7630 <__strtold+0x6c4>)
    74be:	4620      	mov	r0, r4
    74c0:	4631      	mov	r1, r6
    74c2:	e9d2 2300 	ldrd	r2, r3, [r2]
    74c6:	f7f9 fde3 	bl	1090 <__aeabi_dcmpgt>
    74ca:	b120      	cbz	r0, 74d6 <__strtold+0x56a>
    74cc:	9c26      	ldr	r4, [sp, #152]	; 0x98
    74ce:	4e56      	ldr	r6, [pc, #344]	; (7628 <__strtold+0x6bc>)
    74d0:	2001      	movs	r0, #1
    74d2:	6020      	str	r0, [r4, #0]
    74d4:	ce50      	ldmia	r6, {r4, r6}
    74d6:	9807      	ldr	r0, [sp, #28]
    74d8:	2800      	cmp	r0, #0
    74da:	f000 809f 	beq.w	761c <__strtold+0x6b0>
    74de:	f640 612c 	movw	r1, #3628	; 0xe2c
    74e2:	4029      	ands	r1, r5
    74e4:	2900      	cmp	r1, #0
    74e6:	f000 8099 	beq.w	761c <__strtold+0x6b0>
    74ea:	f106 4600 	add.w	r6, r6, #2147483648	; 0x80000000
    74ee:	e095      	b.n	761c <__strtold+0x6b0>
    74f0:	9e0b      	ldr	r6, [sp, #44]	; 0x2c
    74f2:	b116      	cbz	r6, 74fa <__strtold+0x58e>
    74f4:	9d06      	ldr	r5, [sp, #24]
    74f6:	4268      	negs	r0, r5
    74f8:	9006      	str	r0, [sp, #24]
    74fa:	9d06      	ldr	r5, [sp, #24]
    74fc:	f89d 2040 	ldrb.w	r2, [sp, #64]	; 0x40
    7500:	eb05 0989 	add.w	r9, r5, r9, lsl #2
    7504:	2300      	movs	r3, #0
    7506:	2180      	movs	r1, #128	; 0x80
    7508:	fa21 f103 	lsr.w	r1, r1, r3
    750c:	4211      	tst	r1, r2
    750e:	d104      	bne.n	751a <__strtold+0x5ae>
    7510:	3301      	adds	r3, #1
    7512:	2b04      	cmp	r3, #4
    7514:	f109 39ff 	add.w	r9, r9, #4294967295
    7518:	d1f5      	bne.n	7506 <__strtold+0x59a>
    751a:	2000      	movs	r0, #0
    751c:	ae10      	add	r6, sp, #64	; 0x40
    751e:	5d84      	ldrb	r4, [r0, r6]
    7520:	b91c      	cbnz	r4, 752a <__strtold+0x5be>
    7522:	3001      	adds	r0, #1
    7524:	2808      	cmp	r0, #8
    7526:	d1f9      	bne.n	751c <__strtold+0x5b0>
    7528:	e077      	b.n	761a <__strtold+0x6ae>
    752a:	1c5d      	adds	r5, r3, #1
    752c:	1db2      	adds	r2, r6, #6
    752e:	f10d 043e 	add.w	r4, sp, #62	; 0x3e
    7532:	2100      	movs	r1, #0
    7534:	7850      	ldrb	r0, [r2, #1]
    7536:	fa00 f605 	lsl.w	r6, r0, r5
    753a:	4331      	orrs	r1, r6
    753c:	7051      	strb	r1, [r2, #1]
    753e:	f1c3 0107 	rsb	r1, r3, #7
    7542:	3a01      	subs	r2, #1
    7544:	fa40 f001 	asr.w	r0, r0, r1
    7548:	42a2      	cmp	r2, r4
    754a:	b2c1      	uxtb	r1, r0
    754c:	d1f2      	bne.n	7534 <__strtold+0x5c8>
    754e:	2300      	movs	r3, #0
    7550:	930e      	str	r3, [sp, #56]	; 0x38
    7552:	930f      	str	r3, [sp, #60]	; 0x3c
    7554:	ad1c      	add	r5, sp, #112	; 0x70
    7556:	eb05 04d3 	add.w	r4, r5, r3, lsr #3
    755a:	f103 0108 	add.w	r1, r3, #8
    755e:	2934      	cmp	r1, #52	; 0x34
    7560:	f103 060c 	add.w	r6, r3, #12
    7564:	f814 2c30 	ldrb.w	r2, [r4, #-48]
    7568:	d905      	bls.n	7576 <__strtold+0x60a>
    756a:	f1c3 0034 	rsb	r0, r3, #52	; 0x34
    756e:	25ff      	movs	r5, #255	; 0xff
    7570:	fa05 f400 	lsl.w	r4, r5, r0
    7574:	4022      	ands	r2, r4
    7576:	08f6      	lsrs	r6, r6, #3
    7578:	ad0e      	add	r5, sp, #56	; 0x38
    757a:	3314      	adds	r3, #20
    757c:	5da8      	ldrb	r0, [r5, r6]
    757e:	ea40 1412 	orr.w	r4, r0, r2, lsr #4
    7582:	08db      	lsrs	r3, r3, #3
    7584:	55ac      	strb	r4, [r5, r6]
    7586:	5cee      	ldrb	r6, [r5, r3]
    7588:	2938      	cmp	r1, #56	; 0x38
    758a:	ea46 1202 	orr.w	r2, r6, r2, lsl #4
    758e:	54ea      	strb	r2, [r5, r3]
    7590:	460b      	mov	r3, r1
    7592:	d1df      	bne.n	7554 <__strtold+0x5e8>
    7594:	9904      	ldr	r1, [sp, #16]
    7596:	f201 3afe 	addw	sl, r1, #1022	; 0x3fe
    759a:	44d1      	add	r9, sl
    759c:	f429 60ff 	bic.w	r0, r9, #2040	; 0x7f8
    75a0:	f020 0407 	bic.w	r4, r0, #7
    75a4:	b124      	cbz	r4, 75b0 <__strtold+0x644>
    75a6:	9c26      	ldr	r4, [sp, #152]	; 0x98
    75a8:	2601      	movs	r6, #1
    75aa:	6026      	str	r6, [r4, #0]
    75ac:	2400      	movs	r4, #0
    75ae:	e034      	b.n	761a <__strtold+0x6ae>
    75b0:	f89d 5038 	ldrb.w	r5, [sp, #56]	; 0x38
    75b4:	f89d 2039 	ldrb.w	r2, [sp, #57]	; 0x39
    75b8:	ea4f 5949 	mov.w	r9, r9, lsl #21
    75bc:	ea45 6659 	orr.w	r6, r5, r9, lsr #25
    75c0:	9d07      	ldr	r5, [sp, #28]
    75c2:	f88d 6038 	strb.w	r6, [sp, #56]	; 0x38
    75c6:	ea42 4359 	orr.w	r3, r2, r9, lsr #17
    75ca:	fa5f f983 	uxtb.w	r9, r3
    75ce:	b11d      	cbz	r5, 75d8 <__strtold+0x66c>
    75d0:	f066 017f 	orn	r1, r6, #127	; 0x7f
    75d4:	f88d 1038 	strb.w	r1, [sp, #56]	; 0x38
    75d8:	f89d 0038 	ldrb.w	r0, [sp, #56]	; 0x38
    75dc:	f89d 403f 	ldrb.w	r4, [sp, #63]	; 0x3f
    75e0:	f89d 603e 	ldrb.w	r6, [sp, #62]	; 0x3e
    75e4:	f88d 003f 	strb.w	r0, [sp, #63]	; 0x3f
    75e8:	f89d 303a 	ldrb.w	r3, [sp, #58]	; 0x3a
    75ec:	f89d 203d 	ldrb.w	r2, [sp, #61]	; 0x3d
    75f0:	f89d 103b 	ldrb.w	r1, [sp, #59]	; 0x3b
    75f4:	f89d 003c 	ldrb.w	r0, [sp, #60]	; 0x3c
    75f8:	f88d 6039 	strb.w	r6, [sp, #57]	; 0x39
    75fc:	f88d 4038 	strb.w	r4, [sp, #56]	; 0x38
    7600:	f88d 903e 	strb.w	r9, [sp, #62]	; 0x3e
    7604:	f88d 203a 	strb.w	r2, [sp, #58]	; 0x3a
    7608:	f88d 303d 	strb.w	r3, [sp, #61]	; 0x3d
    760c:	f88d 003b 	strb.w	r0, [sp, #59]	; 0x3b
    7610:	f88d 103c 	strb.w	r1, [sp, #60]	; 0x3c
    7614:	9c0e      	ldr	r4, [sp, #56]	; 0x38
    7616:	9e0f      	ldr	r6, [sp, #60]	; 0x3c
    7618:	e000      	b.n	761c <__strtold+0x6b0>
    761a:	4626      	mov	r6, r4
    761c:	4620      	mov	r0, r4
    761e:	4631      	mov	r1, r6
    7620:	b01d      	add	sp, #116	; 0x74
    7622:	e8bd 8ff0 	ldmia.w	sp!, {r4, r5, r6, r7, r8, r9, sl, fp, pc}
    7626:	bf00      	nop
    7628:	1fffe018 	.word	0x1fffe018
    762c:	1fffe17c 	.word	0x1fffe17c
    7630:	1fffe024 	.word	0x1fffe024

00007634 <__strtoul>:
    7634:	e92d 4ff7 	stmdb	sp!, {r0, r1, r2, r4, r5, r6, r7, r8, r9, sl, fp, lr}
    7638:	4615      	mov	r5, r2
    763a:	461e      	mov	r6, r3
    763c:	9a0e      	ldr	r2, [sp, #56]	; 0x38
    763e:	9b0d      	ldr	r3, [sp, #52]	; 0x34
    7640:	9101      	str	r1, [sp, #4]
    7642:	2100      	movs	r1, #0
    7644:	f1b0 0900 	subs.w	r9, r0, #0
    7648:	6019      	str	r1, [r3, #0]
    764a:	6011      	str	r1, [r2, #0]
    764c:	db18      	blt.n	7680 <__strtoul+0x4c>
    764e:	f1b9 0f01 	cmp.w	r9, #1
    7652:	d015      	beq.n	7680 <__strtoul+0x4c>
    7654:	f1b9 0f24 	cmp.w	r9, #36	; 0x24
    7658:	dc12      	bgt.n	7680 <__strtoul+0x4c>
    765a:	9801      	ldr	r0, [sp, #4]
    765c:	4288      	cmp	r0, r1
    765e:	dd07      	ble.n	7670 <__strtoul+0x3c>
    7660:	4630      	mov	r0, r6
    7662:	460a      	mov	r2, r1
    7664:	47a8      	blx	r5
    7666:	f04f 0b01 	mov.w	fp, #1
    766a:	4682      	mov	sl, r0
    766c:	465c      	mov	r4, fp
    766e:	e002      	b.n	7676 <__strtoul+0x42>
    7670:	468a      	mov	sl, r1
    7672:	468b      	mov	fp, r1
    7674:	2440      	movs	r4, #64	; 0x40
    7676:	46c8      	mov	r8, r9
    7678:	f1b9 0f00 	cmp.w	r9, #0
    767c:	d007      	beq.n	768e <__strtoul+0x5a>
    767e:	e002      	b.n	7686 <__strtoul+0x52>
    7680:	468a      	mov	sl, r1
    7682:	468b      	mov	fp, r1
    7684:	2440      	movs	r4, #64	; 0x40
    7686:	f04f 38ff 	mov.w	r8, #4294967295
    768a:	fbb8 f8f9 	udiv	r8, r8, r9
    768e:	2700      	movs	r7, #0
    7690:	9700      	str	r7, [sp, #0]
    7692:	9b01      	ldr	r3, [sp, #4]
    7694:	459b      	cmp	fp, r3
    7696:	f300 80c1 	bgt.w	781c <__strtoul+0x1e8>
    769a:	f1ba 3fff 	cmp.w	sl, #4294967295
    769e:	f000 80bd 	beq.w	781c <__strtoul+0x1e8>
    76a2:	f014 0f60 	tst.w	r4, #96	; 0x60
    76a6:	f040 80b9 	bne.w	781c <__strtoul+0x1e8>
    76aa:	1e60      	subs	r0, r4, #1
    76ac:	280f      	cmp	r0, #15
    76ae:	d8f0      	bhi.n	7692 <__strtoul+0x5e>
    76b0:	a301      	add	r3, pc, #4	; (adr r3, 76b8 <__strtoul+0x84>)
    76b2:	f853 f020 	ldr.w	pc, [r3, r0, lsl #2]
    76b6:	bf00      	nop
    76b8:	000076f9 	.word	0x000076f9
    76bc:	00007745 	.word	0x00007745
    76c0:	00007693 	.word	0x00007693
    76c4:	00007769 	.word	0x00007769
    76c8:	00007693 	.word	0x00007693
    76cc:	00007693 	.word	0x00007693
    76d0:	00007693 	.word	0x00007693
    76d4:	0000779b 	.word	0x0000779b
    76d8:	00007693 	.word	0x00007693
    76dc:	00007693 	.word	0x00007693
    76e0:	00007693 	.word	0x00007693
    76e4:	00007693 	.word	0x00007693
    76e8:	00007693 	.word	0x00007693
    76ec:	00007693 	.word	0x00007693
    76f0:	00007693 	.word	0x00007693
    76f4:	0000779b 	.word	0x0000779b
    76f8:	4650      	mov	r0, sl
    76fa:	f7ff fc07 	bl	6f0c <isspace>
    76fe:	4601      	mov	r1, r0
    7700:	b140      	cbz	r0, 7714 <__strtoul+0xe0>
    7702:	2100      	movs	r1, #0
    7704:	4630      	mov	r0, r6
    7706:	460a      	mov	r2, r1
    7708:	47a8      	blx	r5
    770a:	9b00      	ldr	r3, [sp, #0]
    770c:	4682      	mov	sl, r0
    770e:	1c58      	adds	r0, r3, #1
    7710:	9000      	str	r0, [sp, #0]
    7712:	e7be      	b.n	7692 <__strtoul+0x5e>
    7714:	f1ba 0f2b 	cmp.w	sl, #43	; 0x2b
    7718:	d106      	bne.n	7728 <__strtoul+0xf4>
    771a:	4630      	mov	r0, r6
    771c:	460a      	mov	r2, r1
    771e:	47a8      	blx	r5
    7720:	f10b 0b01 	add.w	fp, fp, #1
    7724:	4682      	mov	sl, r0
    7726:	e00b      	b.n	7740 <__strtoul+0x10c>
    7728:	f1ba 0f2d 	cmp.w	sl, #45	; 0x2d
    772c:	d108      	bne.n	7740 <__strtoul+0x10c>
    772e:	460a      	mov	r2, r1
    7730:	4630      	mov	r0, r6
    7732:	47a8      	blx	r5
    7734:	9a0d      	ldr	r2, [sp, #52]	; 0x34
    7736:	2101      	movs	r1, #1
    7738:	f10b 0b01 	add.w	fp, fp, #1
    773c:	4682      	mov	sl, r0
    773e:	6011      	str	r1, [r2, #0]
    7740:	2402      	movs	r4, #2
    7742:	e7a6      	b.n	7692 <__strtoul+0x5e>
    7744:	f1b9 0f00 	cmp.w	r9, #0
    7748:	d002      	beq.n	7750 <__strtoul+0x11c>
    774a:	f1b9 0f10 	cmp.w	r9, #16
    774e:	d163      	bne.n	7818 <__strtoul+0x1e4>
    7750:	f1ba 0f30 	cmp.w	sl, #48	; 0x30
    7754:	d160      	bne.n	7818 <__strtoul+0x1e4>
    7756:	2100      	movs	r1, #0
    7758:	4630      	mov	r0, r6
    775a:	460a      	mov	r2, r1
    775c:	47a8      	blx	r5
    775e:	f10b 0b01 	add.w	fp, fp, #1
    7762:	4682      	mov	sl, r0
    7764:	2404      	movs	r4, #4
    7766:	e794      	b.n	7692 <__strtoul+0x5e>
    7768:	f1ba 0f58 	cmp.w	sl, #88	; 0x58
    776c:	d002      	beq.n	7774 <__strtoul+0x140>
    776e:	f1ba 0f78 	cmp.w	sl, #120	; 0x78
    7772:	d10a      	bne.n	778a <__strtoul+0x156>
    7774:	2100      	movs	r1, #0
    7776:	4630      	mov	r0, r6
    7778:	460a      	mov	r2, r1
    777a:	47a8      	blx	r5
    777c:	f10b 0b01 	add.w	fp, fp, #1
    7780:	4682      	mov	sl, r0
    7782:	2408      	movs	r4, #8
    7784:	f04f 0910 	mov.w	r9, #16
    7788:	e783      	b.n	7692 <__strtoul+0x5e>
    778a:	2410      	movs	r4, #16
    778c:	f1b9 0f00 	cmp.w	r9, #0
    7790:	f47f af7f 	bne.w	7692 <__strtoul+0x5e>
    7794:	f04f 0908 	mov.w	r9, #8
    7798:	e77b      	b.n	7692 <__strtoul+0x5e>
    779a:	f1b9 0f00 	cmp.w	r9, #0
    779e:	bf08      	it	eq
    77a0:	f04f 090a 	moveq.w	r9, #10
    77a4:	f1b8 0f00 	cmp.w	r8, #0
    77a8:	d103      	bne.n	77b2 <__strtoul+0x17e>
    77aa:	f04f 3eff 	mov.w	lr, #4294967295
    77ae:	fbbe f8f9 	udiv	r8, lr, r9
    77b2:	f1aa 0230 	sub.w	r2, sl, #48	; 0x30
    77b6:	2a09      	cmp	r2, #9
    77b8:	d802      	bhi.n	77c0 <__strtoul+0x18c>
    77ba:	454a      	cmp	r2, r9
    77bc:	db12      	blt.n	77e4 <__strtoul+0x1b0>
    77be:	e00a      	b.n	77d6 <__strtoul+0x1a2>
    77c0:	4650      	mov	r0, sl
    77c2:	f7ff fb95 	bl	6ef0 <isalpha>
    77c6:	b130      	cbz	r0, 77d6 <__strtoul+0x1a2>
    77c8:	4650      	mov	r0, sl
    77ca:	f7ff fbc9 	bl	6f60 <toupper>
    77ce:	f1a0 0336 	sub.w	r3, r0, #54	; 0x36
    77d2:	454b      	cmp	r3, r9
    77d4:	dd04      	ble.n	77e0 <__strtoul+0x1ac>
    77d6:	2c10      	cmp	r4, #16
    77d8:	bf14      	ite	ne
    77da:	2440      	movne	r4, #64	; 0x40
    77dc:	2420      	moveq	r4, #32
    77de:	e758      	b.n	7692 <__strtoul+0x5e>
    77e0:	f1a0 0237 	sub.w	r2, r0, #55	; 0x37
    77e4:	4547      	cmp	r7, r8
    77e6:	bf98      	it	ls
    77e8:	9c0e      	ldrls	r4, [sp, #56]	; 0x38
    77ea:	fb07 f709 	mul.w	r7, r7, r9
    77ee:	bf98      	it	ls
    77f0:	6821      	ldrls	r1, [r4, #0]
    77f2:	9c0e      	ldr	r4, [sp, #56]	; 0x38
    77f4:	bf88      	it	hi
    77f6:	2101      	movhi	r1, #1
    77f8:	b2d3      	uxtb	r3, r2
    77fa:	43f8      	mvns	r0, r7
    77fc:	4283      	cmp	r3, r0
    77fe:	bf88      	it	hi
    7800:	2101      	movhi	r1, #1
    7802:	6021      	str	r1, [r4, #0]
    7804:	2100      	movs	r1, #0
    7806:	19d7      	adds	r7, r2, r7
    7808:	4630      	mov	r0, r6
    780a:	460a      	mov	r2, r1
    780c:	47a8      	blx	r5
    780e:	f10b 0b01 	add.w	fp, fp, #1
    7812:	4682      	mov	sl, r0
    7814:	2410      	movs	r4, #16
    7816:	e73c      	b.n	7692 <__strtoul+0x5e>
    7818:	2408      	movs	r4, #8
    781a:	e73a      	b.n	7692 <__strtoul+0x5e>
    781c:	f014 0434 	ands.w	r4, r4, #52	; 0x34
    7820:	d103      	bne.n	782a <__strtoul+0x1f6>
    7822:	9f0c      	ldr	r7, [sp, #48]	; 0x30
    7824:	603c      	str	r4, [r7, #0]
    7826:	4627      	mov	r7, r4
    7828:	e006      	b.n	7838 <__strtoul+0x204>
    782a:	9900      	ldr	r1, [sp, #0]
    782c:	9a0c      	ldr	r2, [sp, #48]	; 0x30
    782e:	f10b 3cff 	add.w	ip, fp, #4294967295
    7832:	eb0c 0001 	add.w	r0, ip, r1
    7836:	6010      	str	r0, [r2, #0]
    7838:	4630      	mov	r0, r6
    783a:	4651      	mov	r1, sl
    783c:	2201      	movs	r2, #1
    783e:	47a8      	blx	r5
    7840:	4638      	mov	r0, r7
    7842:	e8bd 8ffe 	ldmia.w	sp!, {r1, r2, r3, r4, r5, r6, r7, r8, r9, sl, fp, pc}
    7846:	bf00      	nop

00007848 <__fill_mem>:
    7848:	2a1f      	cmp	r2, #31
    784a:	b530      	push	{r4, r5, lr}
    784c:	b2c9      	uxtb	r1, r1
    784e:	d92f      	bls.n	78b0 <__fill_mem+0x68>
    7850:	4244      	negs	r4, r0
    7852:	f014 0403 	ands.w	r4, r4, #3
    7856:	d006      	beq.n	7866 <__fill_mem+0x1e>
    7858:	1b12      	subs	r2, r2, r4
    785a:	2300      	movs	r3, #0
    785c:	54c1      	strb	r1, [r0, r3]
    785e:	3301      	adds	r3, #1
    7860:	42a3      	cmp	r3, r4
    7862:	d1fb      	bne.n	785c <__fill_mem+0x14>
    7864:	18c0      	adds	r0, r0, r3
    7866:	b129      	cbz	r1, 7874 <__fill_mem+0x2c>
    7868:	040d      	lsls	r5, r1, #16
    786a:	ea45 6301 	orr.w	r3, r5, r1, lsl #24
    786e:	430b      	orrs	r3, r1
    7870:	ea43 2101 	orr.w	r1, r3, r1, lsl #8
    7874:	0955      	lsrs	r5, r2, #5
    7876:	d00e      	beq.n	7896 <__fill_mem+0x4e>
    7878:	462c      	mov	r4, r5
    787a:	4603      	mov	r3, r0
    787c:	6019      	str	r1, [r3, #0]
    787e:	6059      	str	r1, [r3, #4]
    7880:	6099      	str	r1, [r3, #8]
    7882:	60d9      	str	r1, [r3, #12]
    7884:	6119      	str	r1, [r3, #16]
    7886:	6159      	str	r1, [r3, #20]
    7888:	6199      	str	r1, [r3, #24]
    788a:	61d9      	str	r1, [r3, #28]
    788c:	3320      	adds	r3, #32
    788e:	3c01      	subs	r4, #1
    7890:	d1f4      	bne.n	787c <__fill_mem+0x34>
    7892:	eb00 1045 	add.w	r0, r0, r5, lsl #5
    7896:	f3c2 0382 	ubfx	r3, r2, #2, #3
    789a:	b13b      	cbz	r3, 78ac <__fill_mem+0x64>
    789c:	461c      	mov	r4, r3
    789e:	4605      	mov	r5, r0
    78a0:	3c01      	subs	r4, #1
    78a2:	f845 1b04 	str.w	r1, [r5], #4
    78a6:	d1fb      	bne.n	78a0 <__fill_mem+0x58>
    78a8:	eb00 0083 	add.w	r0, r0, r3, lsl #2
    78ac:	f002 0203 	and.w	r2, r2, #3
    78b0:	b122      	cbz	r2, 78bc <__fill_mem+0x74>
    78b2:	1882      	adds	r2, r0, r2
    78b4:	f800 1b01 	strb.w	r1, [r0], #1
    78b8:	4290      	cmp	r0, r2
    78ba:	d1fb      	bne.n	78b4 <__fill_mem+0x6c>
    78bc:	bd30      	pop	{r4, r5, pc}

000078be <memchr>:
    78be:	b2c9      	uxtb	r1, r1
    78c0:	1882      	adds	r2, r0, r2
    78c2:	4290      	cmp	r0, r2
    78c4:	d005      	beq.n	78d2 <memchr+0x14>
    78c6:	f810 3b01 	ldrb.w	r3, [r0], #1
    78ca:	428b      	cmp	r3, r1
    78cc:	d1f9      	bne.n	78c2 <memchr+0x4>
    78ce:	3801      	subs	r0, #1
    78d0:	4770      	bx	lr
    78d2:	2000      	movs	r0, #0
    78d4:	4770      	bx	lr

000078d6 <strchr>:
    78d6:	b2c9      	uxtb	r1, r1
    78d8:	4603      	mov	r3, r0
    78da:	f813 2b01 	ldrb.w	r2, [r3], #1
    78de:	b11a      	cbz	r2, 78e8 <strchr+0x12>
    78e0:	428a      	cmp	r2, r1
    78e2:	d004      	beq.n	78ee <strchr+0x18>
    78e4:	4618      	mov	r0, r3
    78e6:	e7f7      	b.n	78d8 <strchr+0x2>
    78e8:	2900      	cmp	r1, #0
    78ea:	bf18      	it	ne
    78ec:	2000      	movne	r0, #0
    78ee:	4770      	bx	lr

000078f0 <strcpy>:
    78f0:	2300      	movs	r3, #0
    78f2:	5cca      	ldrb	r2, [r1, r3]
    78f4:	54c2      	strb	r2, [r0, r3]
    78f6:	3301      	adds	r3, #1
    78f8:	2a00      	cmp	r2, #0
    78fa:	d1fa      	bne.n	78f2 <strcpy+0x2>
    78fc:	4770      	bx	lr

000078fe <strlen>:
    78fe:	4603      	mov	r3, r0
    7900:	461a      	mov	r2, r3
    7902:	3301      	adds	r3, #1
    7904:	7811      	ldrb	r1, [r2, #0]
    7906:	2900      	cmp	r1, #0
    7908:	d1fa      	bne.n	7900 <strlen+0x2>
    790a:	1a10      	subs	r0, r2, r0
    790c:	4770      	bx	lr
	...

00007910 <__num2dec>:
    7910:	e92d 4ff0 	stmdb	sp!, {r4, r5, r6, r7, r8, r9, sl, fp, lr}
    7914:	b085      	sub	sp, #20
    7916:	4619      	mov	r1, r3
    7918:	f8b0 9002 	ldrh.w	r9, [r0, #2]
    791c:	9e0e      	ldr	r6, [sp, #56]	; 0x38
    791e:	4683      	mov	fp, r0
    7920:	4610      	mov	r0, r2
    7922:	4615      	mov	r5, r2
    7924:	461c      	mov	r4, r3
    7926:	f000 fa07 	bl	7d38 <__signbitd>
    792a:	2701      	movs	r7, #1
    792c:	2300      	movs	r3, #0
    792e:	4682      	mov	sl, r0
    7930:	7033      	strb	r3, [r6, #0]
    7932:	4698      	mov	r8, r3
    7934:	8073      	strh	r3, [r6, #2]
    7936:	7137      	strb	r7, [r6, #4]
    7938:	4628      	mov	r0, r5
    793a:	4621      	mov	r1, r4
    793c:	2200      	movs	r2, #0
    793e:	2300      	movs	r3, #0
    7940:	f7f9 fb7e 	bl	1040 <__aeabi_dcmpeq>
    7944:	b110      	cbz	r0, 794c <__num2dec+0x3c>
    7946:	2230      	movs	r2, #48	; 0x30
    7948:	7172      	strb	r2, [r6, #5]
    794a:	e0e6      	b.n	7b1a <__num2dec+0x20a>
    794c:	4628      	mov	r0, r5
    794e:	4621      	mov	r1, r4
    7950:	f000 f9f4 	bl	7d3c <__fpclassifyd>
    7954:	2802      	cmp	r0, #2
    7956:	dc10      	bgt.n	797a <__num2dec+0x6a>
    7958:	f11a 0a00 	adds.w	sl, sl, #0
    795c:	bf18      	it	ne
    795e:	f04f 0a01 	movne.w	sl, #1
    7962:	f886 a000 	strb.w	sl, [r6]
    7966:	4628      	mov	r0, r5
    7968:	4621      	mov	r1, r4
    796a:	f000 f9e7 	bl	7d3c <__fpclassifyd>
    796e:	2801      	cmp	r0, #1
    7970:	bf14      	ite	ne
    7972:	2349      	movne	r3, #73	; 0x49
    7974:	234e      	moveq	r3, #78	; 0x4e
    7976:	7173      	strb	r3, [r6, #5]
    7978:	e0cf      	b.n	7b1a <__num2dec+0x20a>
    797a:	f886 8004 	strb.w	r8, [r6, #4]
    797e:	4628      	mov	r0, r5
    7980:	4621      	mov	r1, r4
    7982:	2200      	movs	r2, #0
    7984:	2300      	movs	r3, #0
    7986:	f7f9 fb65 	bl	1054 <__aeabi_dcmplt>
    798a:	b110      	cbz	r0, 7992 <__num2dec+0x82>
    798c:	7037      	strb	r7, [r6, #0]
    798e:	f104 4400 	add.w	r4, r4, #2147483648	; 0x80000000
    7992:	aa03      	add	r2, sp, #12
    7994:	4628      	mov	r0, r5
    7996:	4621      	mov	r1, r4
    7998:	f000 fa36 	bl	7e08 <frexp>
    799c:	4f62      	ldr	r7, [pc, #392]	; (7b28 <__num2dec+0x218>)
    799e:	9803      	ldr	r0, [sp, #12]
    79a0:	4a62      	ldr	r2, [pc, #392]	; (7b2c <__num2dec+0x21c>)
    79a2:	4347      	muls	r7, r0
    79a4:	fb97 f7f2 	sdiv	r7, r7, r2
    79a8:	2f00      	cmp	r7, #0
    79aa:	da14      	bge.n	79d6 <__num2dec+0xc6>
    79ac:	f8df a18c 	ldr.w	sl, [pc, #396]	; 7b3c <__num2dec+0x22c>
    79b0:	f1c7 0800 	rsb	r8, r7, #0
    79b4:	f018 0f01 	tst.w	r8, #1
    79b8:	d007      	beq.n	79ca <__num2dec+0xba>
    79ba:	4628      	mov	r0, r5
    79bc:	4621      	mov	r1, r4
    79be:	e95a 2302 	ldrd	r2, r3, [sl, #-8]
    79c2:	f7f9 f8d5 	bl	b70 <__aeabi_dmul>
    79c6:	4605      	mov	r5, r0
    79c8:	460c      	mov	r4, r1
    79ca:	ea5f 0868 	movs.w	r8, r8, asr #1
    79ce:	f10a 0a08 	add.w	sl, sl, #8
    79d2:	d1ef      	bne.n	79b4 <__num2dec+0xa4>
    79d4:	e01b      	b.n	7a0e <__num2dec+0xfe>
    79d6:	d01a      	beq.n	7a0e <__num2dec+0xfe>
    79d8:	f8df a160 	ldr.w	sl, [pc, #352]	; 7b3c <__num2dec+0x22c>
    79dc:	4b54      	ldr	r3, [pc, #336]	; (7b30 <__num2dec+0x220>)
    79de:	46b8      	mov	r8, r7
    79e0:	2200      	movs	r2, #0
    79e2:	f018 0f01 	tst.w	r8, #1
    79e6:	d007      	beq.n	79f8 <__num2dec+0xe8>
    79e8:	4610      	mov	r0, r2
    79ea:	4619      	mov	r1, r3
    79ec:	e95a 2302 	ldrd	r2, r3, [sl, #-8]
    79f0:	f7f9 f8be 	bl	b70 <__aeabi_dmul>
    79f4:	4602      	mov	r2, r0
    79f6:	460b      	mov	r3, r1
    79f8:	ea5f 0868 	movs.w	r8, r8, asr #1
    79fc:	f10a 0a08 	add.w	sl, sl, #8
    7a00:	d1ef      	bne.n	79e2 <__num2dec+0xd2>
    7a02:	4628      	mov	r0, r5
    7a04:	4621      	mov	r1, r4
    7a06:	f7f9 f9dd 	bl	dc4 <__aeabi_ddiv>
    7a0a:	4605      	mov	r5, r0
    7a0c:	460c      	mov	r4, r1
    7a0e:	4628      	mov	r0, r5
    7a10:	4621      	mov	r1, r4
    7a12:	2200      	movs	r2, #0
    7a14:	4b46      	ldr	r3, [pc, #280]	; (7b30 <__num2dec+0x220>)
    7a16:	f7f9 fb31 	bl	107c <__aeabi_dcmpge>
    7a1a:	b150      	cbz	r0, 7a32 <__num2dec+0x122>
    7a1c:	4628      	mov	r0, r5
    7a1e:	4621      	mov	r1, r4
    7a20:	a33f      	add	r3, pc, #252	; (adr r3, 7b20 <__num2dec+0x210>)
    7a22:	e9d3 2300 	ldrd	r2, r3, [r3]
    7a26:	f7f9 f8a3 	bl	b70 <__aeabi_dmul>
    7a2a:	3701      	adds	r7, #1
    7a2c:	4605      	mov	r5, r0
    7a2e:	460c      	mov	r4, r1
    7a30:	e7ed      	b.n	7a0e <__num2dec+0xfe>
    7a32:	4628      	mov	r0, r5
    7a34:	4621      	mov	r1, r4
    7a36:	a33a      	add	r3, pc, #232	; (adr r3, 7b20 <__num2dec+0x210>)
    7a38:	e9d3 2300 	ldrd	r2, r3, [r3]
    7a3c:	f7f9 fb0a 	bl	1054 <__aeabi_dcmplt>
    7a40:	b148      	cbz	r0, 7a56 <__num2dec+0x146>
    7a42:	4628      	mov	r0, r5
    7a44:	4621      	mov	r1, r4
    7a46:	2200      	movs	r2, #0
    7a48:	4b3a      	ldr	r3, [pc, #232]	; (7b34 <__num2dec+0x224>)
    7a4a:	f7f9 f891 	bl	b70 <__aeabi_dmul>
    7a4e:	3f01      	subs	r7, #1
    7a50:	4605      	mov	r5, r0
    7a52:	460c      	mov	r4, r1
    7a54:	e7ed      	b.n	7a32 <__num2dec+0x122>
    7a56:	fa0f f989 	sxth.w	r9, r9
    7a5a:	f1b9 0f10 	cmp.w	r9, #16
    7a5e:	bfa8      	it	ge
    7a60:	f04f 0910 	movge.w	r9, #16
    7a64:	f106 0e05 	add.w	lr, r6, #5
    7a68:	7931      	ldrb	r1, [r6, #4]
    7a6a:	f1b9 0f00 	cmp.w	r9, #0
    7a6e:	d03c      	beq.n	7aea <__num2dec+0x1da>
    7a70:	4831      	ldr	r0, [pc, #196]	; (7b38 <__num2dec+0x228>)
    7a72:	f1b9 0f08 	cmp.w	r9, #8
    7a76:	bfb4      	ite	lt
    7a78:	46c8      	movlt	r8, r9
    7a7a:	f04f 0808 	movge.w	r8, #8
    7a7e:	eb08 0301 	add.w	r3, r8, r1
    7a82:	eb00 02c8 	add.w	r2, r0, r8, lsl #3
    7a86:	eb0e 0c08 	add.w	ip, lr, r8
    7a8a:	7133      	strb	r3, [r6, #4]
    7a8c:	4628      	mov	r0, r5
    7a8e:	e952 2302 	ldrd	r2, r3, [r2, #-8]
    7a92:	4621      	mov	r1, r4
    7a94:	f8cd c004 	str.w	ip, [sp, #4]
    7a98:	f7f9 f86a 	bl	b70 <__aeabi_dmul>
    7a9c:	460d      	mov	r5, r1
    7a9e:	4604      	mov	r4, r0
    7aa0:	f7f9 fb00 	bl	10a4 <__aeabi_d2iz>
    7aa4:	4682      	mov	sl, r0
    7aa6:	f7f8 fffd 	bl	aa4 <__aeabi_i2d>
    7aaa:	460b      	mov	r3, r1
    7aac:	4602      	mov	r2, r0
    7aae:	4629      	mov	r1, r5
    7ab0:	4620      	mov	r0, r4
    7ab2:	f7f8 fea9 	bl	808 <__aeabi_dsub>
    7ab6:	f8dd c004 	ldr.w	ip, [sp, #4]
    7aba:	ebc8 0909 	rsb	r9, r8, r9
    7abe:	ebc8 0707 	rsb	r7, r8, r7
    7ac2:	4605      	mov	r5, r0
    7ac4:	460c      	mov	r4, r1
    7ac6:	4643      	mov	r3, r8
    7ac8:	3b01      	subs	r3, #1
    7aca:	1c5a      	adds	r2, r3, #1
    7acc:	ebc8 020c 	rsb	r2, r8, ip
    7ad0:	d008      	beq.n	7ae4 <__num2dec+0x1d4>
    7ad2:	200a      	movs	r0, #10
    7ad4:	fb9a f1f0 	sdiv	r1, sl, r0
    7ad8:	fb00 a011 	mls	r0, r0, r1, sl
    7adc:	3030      	adds	r0, #48	; 0x30
    7ade:	54d0      	strb	r0, [r2, r3]
    7ae0:	468a      	mov	sl, r1
    7ae2:	e7f1      	b.n	7ac8 <__num2dec+0x1b8>
    7ae4:	eb02 0e08 	add.w	lr, r2, r8
    7ae8:	e7be      	b.n	7a68 <__num2dec+0x158>
    7aea:	f9bb 3002 	ldrsh.w	r3, [fp, #2]
    7aee:	2b20      	cmp	r3, #32
    7af0:	bfd4      	ite	le
    7af2:	ebc1 0103 	rsble	r1, r1, r3
    7af6:	f1c1 0120 	rsbgt	r1, r1, #32
    7afa:	2900      	cmp	r1, #0
    7afc:	dd0c      	ble.n	7b18 <__num2dec+0x208>
    7afe:	2030      	movs	r0, #48	; 0x30
    7b00:	f80e 0009 	strb.w	r0, [lr, r9]
    7b04:	f109 0901 	add.w	r9, r9, #1
    7b08:	4589      	cmp	r9, r1
    7b0a:	d1f8      	bne.n	7afe <__num2dec+0x1ee>
    7b0c:	7932      	ldrb	r2, [r6, #4]
    7b0e:	eb09 0102 	add.w	r1, r9, r2
    7b12:	7131      	strb	r1, [r6, #4]
    7b14:	ebc9 0707 	rsb	r7, r9, r7
    7b18:	8077      	strh	r7, [r6, #2]
    7b1a:	b005      	add	sp, #20
    7b1c:	e8bd 8ff0 	ldmia.w	sp!, {r4, r5, r6, r7, r8, r9, sl, fp, pc}
    7b20:	9999999a 	.word	0x9999999a
    7b24:	3fb99999 	.word	0x3fb99999
    7b28:	000497e5 	.word	0x000497e5
    7b2c:	000f4240 	.word	0x000f4240
    7b30:	3ff00000 	.word	0x3ff00000
    7b34:	40240000 	.word	0x40240000
    7b38:	00012310 	.word	0x00012310
    7b3c:	00012358 	.word	0x00012358

00007b40 <__dec2num>:
    7b40:	e92d 4ff0 	stmdb	sp!, {r4, r5, r6, r7, r8, r9, sl, fp, lr}
    7b44:	7907      	ldrb	r7, [r0, #4]
    7b46:	f890 8000 	ldrb.w	r8, [r0]
    7b4a:	8842      	ldrh	r2, [r0, #2]
    7b4c:	7943      	ldrb	r3, [r0, #5]
    7b4e:	b085      	sub	sp, #20
    7b50:	b917      	cbnz	r7, 7b58 <__dec2num+0x18>
    7b52:	2200      	movs	r2, #0
    7b54:	4613      	mov	r3, r2
    7b56:	e08b      	b.n	7c70 <__dec2num+0x130>
    7b58:	b259      	sxtb	r1, r3
    7b5a:	2930      	cmp	r1, #48	; 0x30
    7b5c:	d0f9      	beq.n	7b52 <__dec2num+0x12>
    7b5e:	2949      	cmp	r1, #73	; 0x49
    7b60:	fa4f f888 	sxtb.w	r8, r8
    7b64:	d057      	beq.n	7c16 <__dec2num+0xd6>
    7b66:	294e      	cmp	r1, #78	; 0x4e
    7b68:	d102      	bne.n	7b70 <__dec2num+0x30>
    7b6a:	4b47      	ldr	r3, [pc, #284]	; (7c88 <__dec2num+0x148>)
    7b6c:	cb0c      	ldmia	r3, {r2, r3}
    7b6e:	e07f      	b.n	7c70 <__dec2num+0x130>
    7b70:	f017 0c07 	ands.w	ip, r7, #7
    7b74:	bf08      	it	eq
    7b76:	f04f 0c08 	moveq.w	ip, #8
    7b7a:	f100 0b05 	add.w	fp, r0, #5
    7b7e:	f107 39ff 	add.w	r9, r7, #4294967295
    7b82:	4638      	mov	r0, r7
    7b84:	f8cd c004 	str.w	ip, [sp, #4]
    7b88:	fa09 f982 	sxtah	r9, r9, r2
    7b8c:	f7f8 ff8a 	bl	aa4 <__aeabi_i2d>
    7b90:	2200      	movs	r2, #0
    7b92:	4b3e      	ldr	r3, [pc, #248]	; (7c8c <__dec2num+0x14c>)
    7b94:	f7f8 fe38 	bl	808 <__aeabi_dsub>
    7b98:	4602      	mov	r2, r0
    7b9a:	460b      	mov	r3, r1
    7b9c:	2000      	movs	r0, #0
    7b9e:	493c      	ldr	r1, [pc, #240]	; (7c90 <__dec2num+0x150>)
    7ba0:	f000 f9b0 	bl	7f04 <pow>
    7ba4:	e9cd 0102 	strd	r0, r1, [sp, #8]
    7ba8:	f8dd c004 	ldr.w	ip, [sp, #4]
    7bac:	2400      	movs	r4, #0
    7bae:	2500      	movs	r5, #0
    7bb0:	2600      	movs	r6, #0
    7bb2:	46b2      	mov	sl, r6
    7bb4:	f81b 0006 	ldrb.w	r0, [fp, r6]
    7bb8:	3601      	adds	r6, #1
    7bba:	3830      	subs	r0, #48	; 0x30
    7bbc:	220a      	movs	r2, #10
    7bbe:	4566      	cmp	r6, ip
    7bc0:	fb02 0a0a 	mla	sl, r2, sl, r0
    7bc4:	d1f6      	bne.n	7bb4 <__dec2num+0x74>
    7bc6:	a32e      	add	r3, pc, #184	; (adr r3, 7c80 <__dec2num+0x140>)
    7bc8:	e9d3 2300 	ldrd	r2, r3, [r3]
    7bcc:	4620      	mov	r0, r4
    7bce:	4629      	mov	r1, r5
    7bd0:	f7f8 ffce 	bl	b70 <__aeabi_dmul>
    7bd4:	4604      	mov	r4, r0
    7bd6:	4650      	mov	r0, sl
    7bd8:	460d      	mov	r5, r1
    7bda:	f7f8 ff63 	bl	aa4 <__aeabi_i2d>
    7bde:	4602      	mov	r2, r0
    7be0:	460b      	mov	r3, r1
    7be2:	4620      	mov	r0, r4
    7be4:	4629      	mov	r1, r5
    7be6:	f7f8 fe11 	bl	80c <__adddf3>
    7bea:	1bbf      	subs	r7, r7, r6
    7bec:	44b3      	add	fp, r6
    7bee:	4604      	mov	r4, r0
    7bf0:	460d      	mov	r5, r1
    7bf2:	f04f 0c08 	mov.w	ip, #8
    7bf6:	d1db      	bne.n	7bb0 <__dec2num+0x70>
    7bf8:	ea89 7ae9 	eor.w	sl, r9, r9, asr #31
    7bfc:	ebaa 7ae9 	sub.w	sl, sl, r9, asr #31
    7c00:	f5ba 7f00 	cmp.w	sl, #512	; 0x200
    7c04:	da04      	bge.n	7c10 <__dec2num+0xd0>
    7c06:	f8df b090 	ldr.w	fp, [pc, #144]	; 7c98 <__dec2num+0x158>
    7c0a:	4f20      	ldr	r7, [pc, #128]	; (7c8c <__dec2num+0x14c>)
    7c0c:	2600      	movs	r6, #0
    7c0e:	e015      	b.n	7c3c <__dec2num+0xfc>
    7c10:	f1b9 0f00 	cmp.w	r9, #0
    7c14:	db9d      	blt.n	7b52 <__dec2num+0x12>
    7c16:	491f      	ldr	r1, [pc, #124]	; (7c94 <__dec2num+0x154>)
    7c18:	e891 000c 	ldmia.w	r1, {r2, r3}
    7c1c:	e023      	b.n	7c66 <__dec2num+0x126>
    7c1e:	f01a 0f01 	tst.w	sl, #1
    7c22:	d007      	beq.n	7c34 <__dec2num+0xf4>
    7c24:	4630      	mov	r0, r6
    7c26:	4639      	mov	r1, r7
    7c28:	e95b 2302 	ldrd	r2, r3, [fp, #-8]
    7c2c:	f7f8 ffa0 	bl	b70 <__aeabi_dmul>
    7c30:	4606      	mov	r6, r0
    7c32:	460f      	mov	r7, r1
    7c34:	ea4f 0a6a 	mov.w	sl, sl, asr #1
    7c38:	f10b 0b08 	add.w	fp, fp, #8
    7c3c:	f1ba 0f00 	cmp.w	sl, #0
    7c40:	d1ed      	bne.n	7c1e <__dec2num+0xde>
    7c42:	e9dd 2302 	ldrd	r2, r3, [sp, #8]
    7c46:	4620      	mov	r0, r4
    7c48:	4629      	mov	r1, r5
    7c4a:	f7f9 f8bb 	bl	dc4 <__aeabi_ddiv>
    7c4e:	f1b9 0f00 	cmp.w	r9, #0
    7c52:	4632      	mov	r2, r6
    7c54:	463b      	mov	r3, r7
    7c56:	da02      	bge.n	7c5e <__dec2num+0x11e>
    7c58:	f7f9 f8b4 	bl	dc4 <__aeabi_ddiv>
    7c5c:	e001      	b.n	7c62 <__dec2num+0x122>
    7c5e:	f7f8 ff87 	bl	b70 <__aeabi_dmul>
    7c62:	4602      	mov	r2, r0
    7c64:	460b      	mov	r3, r1
    7c66:	f1b8 0f00 	cmp.w	r8, #0
    7c6a:	d001      	beq.n	7c70 <__dec2num+0x130>
    7c6c:	f103 4300 	add.w	r3, r3, #2147483648	; 0x80000000
    7c70:	4610      	mov	r0, r2
    7c72:	4619      	mov	r1, r3
    7c74:	b005      	add	sp, #20
    7c76:	e8bd 8ff0 	ldmia.w	sp!, {r4, r5, r6, r7, r8, r9, sl, fp, pc}
    7c7a:	bf00      	nop
    7c7c:	f3af 8000 	nop.w
    7c80:	00000000 	.word	0x00000000
    7c84:	4197d784 	.word	0x4197d784
    7c88:	1fffe010 	.word	0x1fffe010
    7c8c:	3ff00000 	.word	0x3ff00000
    7c90:	40240000 	.word	0x40240000
    7c94:	1fffe018 	.word	0x1fffe018
    7c98:	00012358 	.word	0x00012358
    7c9c:	f3af 8000 	nop.w

00007ca0 <__round_decimal>:
    7ca0:	2900      	cmp	r1, #0
    7ca2:	b570      	push	{r4, r5, r6, lr}
    7ca4:	da04      	bge.n	7cb0 <__round_decimal+0x10>
    7ca6:	2100      	movs	r1, #0
    7ca8:	2301      	movs	r3, #1
    7caa:	8041      	strh	r1, [r0, #2]
    7cac:	7103      	strb	r3, [r0, #4]
    7cae:	e036      	b.n	7d1e <__round_decimal+0x7e>
    7cb0:	7903      	ldrb	r3, [r0, #4]
    7cb2:	4299      	cmp	r1, r3
    7cb4:	da3f      	bge.n	7d36 <__round_decimal+0x96>
    7cb6:	1c4a      	adds	r2, r1, #1
    7cb8:	1885      	adds	r5, r0, r2
    7cba:	1d6c      	adds	r4, r5, #5
    7cbc:	1d2a      	adds	r2, r5, #4
    7cbe:	f814 5c01 	ldrb.w	r5, [r4, #-1]
    7cc2:	3d30      	subs	r5, #48	; 0x30
    7cc4:	2d05      	cmp	r5, #5
    7cc6:	d112      	bne.n	7cee <__round_decimal+0x4e>
    7cc8:	18c3      	adds	r3, r0, r3
    7cca:	3304      	adds	r3, #4
    7ccc:	4293      	cmp	r3, r2
    7cce:	461d      	mov	r5, r3
    7cd0:	d803      	bhi.n	7cda <__round_decimal+0x3a>
    7cd2:	4295      	cmp	r5, r2
    7cd4:	d006      	beq.n	7ce4 <__round_decimal+0x44>
    7cd6:	2301      	movs	r3, #1
    7cd8:	e00c      	b.n	7cf4 <__round_decimal+0x54>
    7cda:	782e      	ldrb	r6, [r5, #0]
    7cdc:	3b01      	subs	r3, #1
    7cde:	2e30      	cmp	r6, #48	; 0x30
    7ce0:	d0f4      	beq.n	7ccc <__round_decimal+0x2c>
    7ce2:	e7f6      	b.n	7cd2 <__round_decimal+0x32>
    7ce4:	f814 3c02 	ldrb.w	r3, [r4, #-2]
    7ce8:	f003 0301 	and.w	r3, r3, #1
    7cec:	e002      	b.n	7cf4 <__round_decimal+0x54>
    7cee:	bfd4      	ite	le
    7cf0:	2300      	movle	r3, #0
    7cf2:	2301      	movgt	r3, #1
    7cf4:	3a01      	subs	r2, #1
    7cf6:	b1a9      	cbz	r1, 7d24 <__round_decimal+0x84>
    7cf8:	4615      	mov	r5, r2
    7cfa:	3a01      	subs	r2, #1
    7cfc:	782c      	ldrb	r4, [r5, #0]
    7cfe:	3c30      	subs	r4, #48	; 0x30
    7d00:	18e4      	adds	r4, r4, r3
    7d02:	2c09      	cmp	r4, #9
    7d04:	bfd4      	ite	le
    7d06:	2300      	movle	r3, #0
    7d08:	2301      	movgt	r3, #1
    7d0a:	b903      	cbnz	r3, 7d0e <__round_decimal+0x6e>
    7d0c:	b90c      	cbnz	r4, 7d12 <__round_decimal+0x72>
    7d0e:	3901      	subs	r1, #1
    7d10:	e7f1      	b.n	7cf6 <__round_decimal+0x56>
    7d12:	3430      	adds	r4, #48	; 0x30
    7d14:	702c      	strb	r4, [r5, #0]
    7d16:	7101      	strb	r1, [r0, #4]
    7d18:	bd70      	pop	{r4, r5, r6, pc}
    7d1a:	8043      	strh	r3, [r0, #2]
    7d1c:	7101      	strb	r1, [r0, #4]
    7d1e:	2230      	movs	r2, #48	; 0x30
    7d20:	7142      	strb	r2, [r0, #5]
    7d22:	bd70      	pop	{r4, r5, r6, pc}
    7d24:	2101      	movs	r1, #1
    7d26:	2b00      	cmp	r3, #0
    7d28:	d0f7      	beq.n	7d1a <__round_decimal+0x7a>
    7d2a:	8842      	ldrh	r2, [r0, #2]
    7d2c:	7101      	strb	r1, [r0, #4]
    7d2e:	1c53      	adds	r3, r2, #1
    7d30:	8043      	strh	r3, [r0, #2]
    7d32:	2231      	movs	r2, #49	; 0x31
    7d34:	e7f4      	b.n	7d20 <__round_decimal+0x80>
    7d36:	bd70      	pop	{r4, r5, r6, pc}

00007d38 <__signbitd>:
    7d38:	0fc8      	lsrs	r0, r1, #31
    7d3a:	4770      	bx	lr

00007d3c <__fpclassifyd>:
    7d3c:	4b0c      	ldr	r3, [pc, #48]	; (7d70 <__fpclassifyd+0x34>)
    7d3e:	400b      	ands	r3, r1
    7d40:	b15b      	cbz	r3, 7d5a <__fpclassifyd+0x1e>
    7d42:	4a0b      	ldr	r2, [pc, #44]	; (7d70 <__fpclassifyd+0x34>)
    7d44:	4293      	cmp	r3, r2
    7d46:	d111      	bne.n	7d6c <__fpclassifyd+0x30>
    7d48:	f3c1 0113 	ubfx	r1, r1, #0, #20
    7d4c:	b109      	cbz	r1, 7d52 <__fpclassifyd+0x16>
    7d4e:	2001      	movs	r0, #1
    7d50:	4770      	bx	lr
    7d52:	2800      	cmp	r0, #0
    7d54:	d1fb      	bne.n	7d4e <__fpclassifyd+0x12>
    7d56:	2002      	movs	r0, #2
    7d58:	4770      	bx	lr
    7d5a:	f3c1 0313 	ubfx	r3, r1, #0, #20
    7d5e:	b10b      	cbz	r3, 7d64 <__fpclassifyd+0x28>
    7d60:	2005      	movs	r0, #5
    7d62:	4770      	bx	lr
    7d64:	2800      	cmp	r0, #0
    7d66:	d1fb      	bne.n	7d60 <__fpclassifyd+0x24>
    7d68:	2003      	movs	r0, #3
    7d6a:	4770      	bx	lr
    7d6c:	2004      	movs	r0, #4
    7d6e:	4770      	bx	lr
    7d70:	7ff00000 	.word	0x7ff00000

00007d74 <cos>:
    7d74:	b570      	push	{r4, r5, r6, lr}
    7d76:	4a21      	ldr	r2, [pc, #132]	; (7dfc <cos+0x88>)
    7d78:	f021 4300 	bic.w	r3, r1, #2147483648	; 0x80000000
    7d7c:	4293      	cmp	r3, r2
    7d7e:	b086      	sub	sp, #24
    7d80:	d804      	bhi.n	7d8c <cos+0x18>
    7d82:	2200      	movs	r2, #0
    7d84:	2300      	movs	r3, #0
    7d86:	f001 f93b 	bl	9000 <__kernel_cos>
    7d8a:	e006      	b.n	7d9a <cos+0x26>
    7d8c:	4a1c      	ldr	r2, [pc, #112]	; (7e00 <cos+0x8c>)
    7d8e:	4293      	cmp	r3, r2
    7d90:	d906      	bls.n	7da0 <cos+0x2c>
    7d92:	4602      	mov	r2, r0
    7d94:	460b      	mov	r3, r1
    7d96:	f7f8 fd37 	bl	808 <__aeabi_dsub>
    7d9a:	4605      	mov	r5, r0
    7d9c:	460c      	mov	r4, r1
    7d9e:	e028      	b.n	7df2 <cos+0x7e>
    7da0:	aa02      	add	r2, sp, #8
    7da2:	f000 fe61 	bl	8a68 <__ieee754_rem_pio2>
    7da6:	f010 0f01 	tst.w	r0, #1
    7daa:	4606      	mov	r6, r0
    7dac:	e9dd 2304 	ldrd	r2, r3, [sp, #16]
    7db0:	e9dd 0102 	ldrd	r0, r1, [sp, #8]
    7db4:	d008      	beq.n	7dc8 <cos+0x54>
    7db6:	2501      	movs	r5, #1
    7db8:	9500      	str	r5, [sp, #0]
    7dba:	f001 fd65 	bl	9888 <__kernel_sin>
    7dbe:	07b2      	lsls	r2, r6, #30
    7dc0:	4605      	mov	r5, r0
    7dc2:	460c      	mov	r4, r1
    7dc4:	d409      	bmi.n	7dda <cos+0x66>
    7dc6:	e005      	b.n	7dd4 <cos+0x60>
    7dc8:	f001 f91a 	bl	9000 <__kernel_cos>
    7dcc:	07b3      	lsls	r3, r6, #30
    7dce:	4605      	mov	r5, r0
    7dd0:	460c      	mov	r4, r1
    7dd2:	d502      	bpl.n	7dda <cos+0x66>
    7dd4:	f104 4000 	add.w	r0, r4, #2147483648	; 0x80000000
    7dd8:	4604      	mov	r4, r0
    7dda:	4b0a      	ldr	r3, [pc, #40]	; (7e04 <cos+0x90>)
    7ddc:	f024 4200 	bic.w	r2, r4, #2147483648	; 0x80000000
    7de0:	429a      	cmp	r2, r3
    7de2:	d806      	bhi.n	7df2 <cos+0x7e>
    7de4:	4628      	mov	r0, r5
    7de6:	4621      	mov	r1, r4
    7de8:	f7f9 f95c 	bl	10a4 <__aeabi_d2iz>
    7dec:	b908      	cbnz	r0, 7df2 <cos+0x7e>
    7dee:	2500      	movs	r5, #0
    7df0:	462c      	mov	r4, r5
    7df2:	4628      	mov	r0, r5
    7df4:	4621      	mov	r1, r4
    7df6:	b006      	add	sp, #24
    7df8:	bd70      	pop	{r4, r5, r6, pc}
    7dfa:	bf00      	nop
    7dfc:	3fe921fb 	.word	0x3fe921fb
    7e00:	7fefffff 	.word	0x7fefffff
    7e04:	3e6fffff 	.word	0x3e6fffff

00007e08 <frexp>:
    7e08:	b537      	push	{r0, r1, r2, r4, r5, lr}
    7e0a:	4614      	mov	r4, r2
    7e0c:	e9cd 0100 	strd	r0, r1, [sp]
    7e10:	2500      	movs	r5, #0
    7e12:	9a01      	ldr	r2, [sp, #4]
    7e14:	6025      	str	r5, [r4, #0]
    7e16:	4d15      	ldr	r5, [pc, #84]	; (7e6c <frexp+0x64>)
    7e18:	f022 4300 	bic.w	r3, r2, #2147483648	; 0x80000000
    7e1c:	42ab      	cmp	r3, r5
    7e1e:	d820      	bhi.n	7e62 <frexp+0x5a>
    7e20:	9d00      	ldr	r5, [sp, #0]
    7e22:	431d      	orrs	r5, r3
    7e24:	d01d      	beq.n	7e62 <frexp+0x5a>
    7e26:	f5b3 1f80 	cmp.w	r3, #1048576	; 0x100000
    7e2a:	d20b      	bcs.n	7e44 <frexp+0x3c>
    7e2c:	2200      	movs	r2, #0
    7e2e:	4b10      	ldr	r3, [pc, #64]	; (7e70 <frexp+0x68>)
    7e30:	f7f8 fe9e 	bl	b70 <__aeabi_dmul>
    7e34:	e9cd 0100 	strd	r0, r1, [sp]
    7e38:	9a01      	ldr	r2, [sp, #4]
    7e3a:	f06f 0135 	mvn.w	r1, #53	; 0x35
    7e3e:	f022 4300 	bic.w	r3, r2, #2147483648	; 0x80000000
    7e42:	6021      	str	r1, [r4, #0]
    7e44:	6821      	ldr	r1, [r4, #0]
    7e46:	0d18      	lsrs	r0, r3, #20
    7e48:	f2a0 33fe 	subw	r3, r0, #1022	; 0x3fe
    7e4c:	f022 42ff 	bic.w	r2, r2, #2139095040	; 0x7f800000
    7e50:	18c8      	adds	r0, r1, r3
    7e52:	f422 03e0 	bic.w	r3, r2, #7340032	; 0x700000
    7e56:	f043 517f 	orr.w	r1, r3, #1069547520	; 0x3fc00000
    7e5a:	6020      	str	r0, [r4, #0]
    7e5c:	f441 1000 	orr.w	r0, r1, #2097152	; 0x200000
    7e60:	9001      	str	r0, [sp, #4]
    7e62:	e9dd 0100 	ldrd	r0, r1, [sp]
    7e66:	b003      	add	sp, #12
    7e68:	bd30      	pop	{r4, r5, pc}
    7e6a:	bf00      	nop
    7e6c:	7fefffff 	.word	0x7fefffff
    7e70:	43500000 	.word	0x43500000

00007e74 <sin>:
    7e74:	b570      	push	{r4, r5, r6, lr}
    7e76:	4a20      	ldr	r2, [pc, #128]	; (7ef8 <sin+0x84>)
    7e78:	f021 4300 	bic.w	r3, r1, #2147483648	; 0x80000000
    7e7c:	4293      	cmp	r3, r2
    7e7e:	b086      	sub	sp, #24
    7e80:	d806      	bhi.n	7e90 <sin+0x1c>
    7e82:	2400      	movs	r4, #0
    7e84:	9400      	str	r4, [sp, #0]
    7e86:	2200      	movs	r2, #0
    7e88:	2300      	movs	r3, #0
    7e8a:	f001 fcfd 	bl	9888 <__kernel_sin>
    7e8e:	e006      	b.n	7e9e <sin+0x2a>
    7e90:	4a1a      	ldr	r2, [pc, #104]	; (7efc <sin+0x88>)
    7e92:	4293      	cmp	r3, r2
    7e94:	d906      	bls.n	7ea4 <sin+0x30>
    7e96:	4602      	mov	r2, r0
    7e98:	460b      	mov	r3, r1
    7e9a:	f7f8 fcb5 	bl	808 <__aeabi_dsub>
    7e9e:	4605      	mov	r5, r0
    7ea0:	460c      	mov	r4, r1
    7ea2:	e025      	b.n	7ef0 <sin+0x7c>
    7ea4:	aa02      	add	r2, sp, #8
    7ea6:	f000 fddf 	bl	8a68 <__ieee754_rem_pio2>
    7eaa:	f010 0f01 	tst.w	r0, #1
    7eae:	4606      	mov	r6, r0
    7eb0:	e9dd 2304 	ldrd	r2, r3, [sp, #16]
    7eb4:	e9dd 0102 	ldrd	r0, r1, [sp, #8]
    7eb8:	d002      	beq.n	7ec0 <sin+0x4c>
    7eba:	f001 f8a1 	bl	9000 <__kernel_cos>
    7ebe:	e003      	b.n	7ec8 <sin+0x54>
    7ec0:	2501      	movs	r5, #1
    7ec2:	9500      	str	r5, [sp, #0]
    7ec4:	f001 fce0 	bl	9888 <__kernel_sin>
    7ec8:	07b3      	lsls	r3, r6, #30
    7eca:	4605      	mov	r5, r0
    7ecc:	460c      	mov	r4, r1
    7ece:	d503      	bpl.n	7ed8 <sin+0x64>
    7ed0:	f101 4100 	add.w	r1, r1, #2147483648	; 0x80000000
    7ed4:	4605      	mov	r5, r0
    7ed6:	460c      	mov	r4, r1
    7ed8:	4809      	ldr	r0, [pc, #36]	; (7f00 <sin+0x8c>)
    7eda:	f024 4200 	bic.w	r2, r4, #2147483648	; 0x80000000
    7ede:	4282      	cmp	r2, r0
    7ee0:	d806      	bhi.n	7ef0 <sin+0x7c>
    7ee2:	4628      	mov	r0, r5
    7ee4:	4621      	mov	r1, r4
    7ee6:	f7f9 f8dd 	bl	10a4 <__aeabi_d2iz>
    7eea:	b908      	cbnz	r0, 7ef0 <sin+0x7c>
    7eec:	2500      	movs	r5, #0
    7eee:	462c      	mov	r4, r5
    7ef0:	4628      	mov	r0, r5
    7ef2:	4621      	mov	r1, r4
    7ef4:	b006      	add	sp, #24
    7ef6:	bd70      	pop	{r4, r5, r6, pc}
    7ef8:	3fe921fb 	.word	0x3fe921fb
    7efc:	7fefffff 	.word	0x7fefffff
    7f00:	3e6fffff 	.word	0x3e6fffff

00007f04 <pow>:
    7f04:	f000 b804 	b.w	7f10 <__ieee754_pow>

00007f08 <sqrt>:
    7f08:	f000 bfc6 	b.w	8e98 <__ieee754_sqrt>
    7f0c:	0000      	movs	r0, r0
	...

00007f10 <__ieee754_pow>:
    7f10:	e92d 4ff0 	stmdb	sp!, {r4, r5, r6, r7, r8, r9, sl, fp, lr}
    7f14:	4693      	mov	fp, r2
    7f16:	b09b      	sub	sp, #108	; 0x6c
    7f18:	469a      	mov	sl, r3
    7f1a:	2200      	movs	r2, #0
    7f1c:	4ba0      	ldr	r3, [pc, #640]	; (81a0 <__ieee754_pow+0x290>)
    7f1e:	4606      	mov	r6, r0
    7f20:	460f      	mov	r7, r1
    7f22:	f7f9 f88d 	bl	1040 <__aeabi_dcmpeq>
    7f26:	b128      	cbz	r0, 7f34 <__ieee754_pow+0x24>
    7f28:	f04f 0b00 	mov.w	fp, #0
    7f2c:	f8df a270 	ldr.w	sl, [pc, #624]	; 81a0 <__ieee754_pow+0x290>
    7f30:	f000 bd71 	b.w	8a16 <__ieee754_pow+0xb06>
    7f34:	4630      	mov	r0, r6
    7f36:	4639      	mov	r1, r7
    7f38:	2200      	movs	r2, #0
    7f3a:	4b9a      	ldr	r3, [pc, #616]	; (81a4 <__ieee754_pow+0x294>)
    7f3c:	f7f9 f880 	bl	1040 <__aeabi_dcmpeq>
    7f40:	b968      	cbnz	r0, 7f5e <__ieee754_pow+0x4e>
    7f42:	f02a 4100 	bic.w	r1, sl, #2147483648	; 0x80000000
    7f46:	f027 4400 	bic.w	r4, r7, #2147483648	; 0x80000000
    7f4a:	ea51 080b 	orrs.w	r8, r1, fp
    7f4e:	9704      	str	r7, [sp, #16]
    7f50:	4630      	mov	r0, r6
    7f52:	4655      	mov	r5, sl
    7f54:	465b      	mov	r3, fp
    7f56:	ea44 0206 	orr.w	r2, r4, r6
    7f5a:	d007      	beq.n	7f6c <__ieee754_pow+0x5c>
    7f5c:	e00d      	b.n	7f7a <__ieee754_pow+0x6a>
    7f5e:	4658      	mov	r0, fp
    7f60:	4651      	mov	r1, sl
    7f62:	f7ff feeb 	bl	7d3c <__fpclassifyd>
    7f66:	2802      	cmp	r0, #2
    7f68:	d1eb      	bne.n	7f42 <__ieee754_pow+0x32>
    7f6a:	e7dd      	b.n	7f28 <__ieee754_pow+0x18>
    7f6c:	b92a      	cbnz	r2, 7f7a <__ieee754_pow+0x6a>
    7f6e:	4a8e      	ldr	r2, [pc, #568]	; (81a8 <__ieee754_pow+0x298>)
    7f70:	f04f 0921 	mov.w	r9, #33	; 0x21
    7f74:	f8c2 9000 	str.w	r9, [r2]
    7f78:	e000      	b.n	7f7c <__ieee754_pow+0x6c>
    7f7a:	b932      	cbnz	r2, 7f8a <__ieee754_pow+0x7a>
    7f7c:	2d00      	cmp	r5, #0
    7f7e:	da04      	bge.n	7f8a <__ieee754_pow+0x7a>
    7f80:	4a89      	ldr	r2, [pc, #548]	; (81a8 <__ieee754_pow+0x298>)
    7f82:	f04f 0921 	mov.w	r9, #33	; 0x21
    7f86:	f8c2 9000 	str.w	r9, [r2]
    7f8a:	f1b8 0f00 	cmp.w	r8, #0
    7f8e:	d0cb      	beq.n	7f28 <__ieee754_pow+0x18>
    7f90:	4a86      	ldr	r2, [pc, #536]	; (81ac <__ieee754_pow+0x29c>)
    7f92:	4294      	cmp	r4, r2
    7f94:	d805      	bhi.n	7fa2 <__ieee754_pow+0x92>
    7f96:	d100      	bne.n	7f9a <__ieee754_pow+0x8a>
    7f98:	b918      	cbnz	r0, 7fa2 <__ieee754_pow+0x92>
    7f9a:	4291      	cmp	r1, r2
    7f9c:	d801      	bhi.n	7fa2 <__ieee754_pow+0x92>
    7f9e:	d10b      	bne.n	7fb8 <__ieee754_pow+0xa8>
    7fa0:	b153      	cbz	r3, 7fb8 <__ieee754_pow+0xa8>
    7fa2:	4b81      	ldr	r3, [pc, #516]	; (81a8 <__ieee754_pow+0x298>)
    7fa4:	2022      	movs	r0, #34	; 0x22
    7fa6:	6018      	str	r0, [r3, #0]
    7fa8:	4651      	mov	r1, sl
    7faa:	4658      	mov	r0, fp
    7fac:	4632      	mov	r2, r6
    7fae:	463b      	mov	r3, r7
    7fb0:	f7f8 fc2c 	bl	80c <__adddf3>
    7fb4:	f000 bd2a 	b.w	8a0c <__ieee754_pow+0xafc>
    7fb8:	9a04      	ldr	r2, [sp, #16]
    7fba:	2a00      	cmp	r2, #0
    7fbc:	da2c      	bge.n	8018 <__ieee754_pow+0x108>
    7fbe:	4a7c      	ldr	r2, [pc, #496]	; (81b0 <__ieee754_pow+0x2a0>)
    7fc0:	4291      	cmp	r1, r2
    7fc2:	d826      	bhi.n	8012 <__ieee754_pow+0x102>
    7fc4:	f1a2 7254 	sub.w	r2, r2, #55574528	; 0x3500000
    7fc8:	4291      	cmp	r1, r2
    7fca:	d925      	bls.n	8018 <__ieee754_pow+0x108>
    7fcc:	0d0a      	lsrs	r2, r1, #20
    7fce:	f240 4813 	movw	r8, #1043	; 0x413
    7fd2:	4542      	cmp	r2, r8
    7fd4:	dd0d      	ble.n	7ff2 <__ieee754_pow+0xe2>
    7fd6:	f5c2 6286 	rsb	r2, r2, #1072	; 0x430
    7fda:	3203      	adds	r2, #3
    7fdc:	fa23 f802 	lsr.w	r8, r3, r2
    7fe0:	fa08 f202 	lsl.w	r2, r8, r2
    7fe4:	429a      	cmp	r2, r3
    7fe6:	d117      	bne.n	8018 <__ieee754_pow+0x108>
    7fe8:	f008 0801 	and.w	r8, r8, #1
    7fec:	f1c8 0c02 	rsb	ip, r8, #2
    7ff0:	e014      	b.n	801c <__ieee754_pow+0x10c>
    7ff2:	2b00      	cmp	r3, #0
    7ff4:	d158      	bne.n	80a8 <__ieee754_pow+0x198>
    7ff6:	f5c2 6282 	rsb	r2, r2, #1040	; 0x410
    7ffa:	3203      	adds	r2, #3
    7ffc:	fa21 f802 	lsr.w	r8, r1, r2
    8000:	fa08 f202 	lsl.w	r2, r8, r2
    8004:	428a      	cmp	r2, r1
    8006:	d12e      	bne.n	8066 <__ieee754_pow+0x156>
    8008:	f008 0801 	and.w	r8, r8, #1
    800c:	f1c8 0c02 	rsb	ip, r8, #2
    8010:	e02a      	b.n	8068 <__ieee754_pow+0x158>
    8012:	f04f 0c02 	mov.w	ip, #2
    8016:	e001      	b.n	801c <__ieee754_pow+0x10c>
    8018:	f04f 0c00 	mov.w	ip, #0
    801c:	2b00      	cmp	r3, #0
    801e:	d145      	bne.n	80ac <__ieee754_pow+0x19c>
    8020:	4b62      	ldr	r3, [pc, #392]	; (81ac <__ieee754_pow+0x29c>)
    8022:	4299      	cmp	r1, r3
    8024:	d120      	bne.n	8068 <__ieee754_pow+0x158>
    8026:	f104 4140 	add.w	r1, r4, #3221225472	; 0xc0000000
    802a:	f501 1380 	add.w	r3, r1, #1048576	; 0x100000
    802e:	4303      	orrs	r3, r0
    8030:	d107      	bne.n	8042 <__ieee754_pow+0x132>
    8032:	4658      	mov	r0, fp
    8034:	4651      	mov	r1, sl
    8036:	465a      	mov	r2, fp
    8038:	4653      	mov	r3, sl
    803a:	f7f8 fbe5 	bl	808 <__aeabi_dsub>
    803e:	f000 bce5 	b.w	8a0c <__ieee754_pow+0xafc>
    8042:	485c      	ldr	r0, [pc, #368]	; (81b4 <__ieee754_pow+0x2a4>)
    8044:	4284      	cmp	r4, r0
    8046:	d907      	bls.n	8058 <__ieee754_pow+0x148>
    8048:	2d00      	cmp	r5, #0
    804a:	f280 84e4 	bge.w	8a16 <__ieee754_pow+0xb06>
    804e:	f04f 0b00 	mov.w	fp, #0
    8052:	46da      	mov	sl, fp
    8054:	f000 bcdf 	b.w	8a16 <__ieee754_pow+0xb06>
    8058:	2d00      	cmp	r5, #0
    805a:	daf8      	bge.n	804e <__ieee754_pow+0x13e>
    805c:	f10a 4100 	add.w	r1, sl, #2147483648	; 0x80000000
    8060:	468a      	mov	sl, r1
    8062:	f000 bcd8 	b.w	8a16 <__ieee754_pow+0xb06>
    8066:	469c      	mov	ip, r3
    8068:	4a4d      	ldr	r2, [pc, #308]	; (81a0 <__ieee754_pow+0x290>)
    806a:	4291      	cmp	r1, r2
    806c:	d10a      	bne.n	8084 <__ieee754_pow+0x174>
    806e:	2d00      	cmp	r5, #0
    8070:	f280 84cf 	bge.w	8a12 <__ieee754_pow+0xb02>
    8074:	2000      	movs	r0, #0
    8076:	4632      	mov	r2, r6
    8078:	463b      	mov	r3, r7
    807a:	4949      	ldr	r1, [pc, #292]	; (81a0 <__ieee754_pow+0x290>)
    807c:	f7f8 fea2 	bl	dc4 <__aeabi_ddiv>
    8080:	f000 bcc4 	b.w	8a0c <__ieee754_pow+0xafc>
    8084:	f1b5 4f80 	cmp.w	r5, #1073741824	; 0x40000000
    8088:	d102      	bne.n	8090 <__ieee754_pow+0x180>
    808a:	4630      	mov	r0, r6
    808c:	4639      	mov	r1, r7
    808e:	e076      	b.n	817e <__ieee754_pow+0x26e>
    8090:	4b49      	ldr	r3, [pc, #292]	; (81b8 <__ieee754_pow+0x2a8>)
    8092:	429d      	cmp	r5, r3
    8094:	d10a      	bne.n	80ac <__ieee754_pow+0x19c>
    8096:	9a04      	ldr	r2, [sp, #16]
    8098:	2a00      	cmp	r2, #0
    809a:	db07      	blt.n	80ac <__ieee754_pow+0x19c>
    809c:	4630      	mov	r0, r6
    809e:	4639      	mov	r1, r7
    80a0:	f7ff ff32 	bl	7f08 <sqrt>
    80a4:	f000 bcb2 	b.w	8a0c <__ieee754_pow+0xafc>
    80a8:	f04f 0c00 	mov.w	ip, #0
    80ac:	f027 4800 	bic.w	r8, r7, #2147483648	; 0x80000000
    80b0:	4632      	mov	r2, r6
    80b2:	4643      	mov	r3, r8
    80b4:	46b1      	mov	r9, r6
    80b6:	e9cd 230e 	strd	r2, r3, [sp, #56]	; 0x38
    80ba:	2800      	cmp	r0, #0
    80bc:	d13e      	bne.n	813c <__ieee754_pow+0x22c>
    80be:	483b      	ldr	r0, [pc, #236]	; (81ac <__ieee754_pow+0x29c>)
    80c0:	4284      	cmp	r4, r0
    80c2:	d004      	beq.n	80ce <__ieee754_pow+0x1be>
    80c4:	b11c      	cbz	r4, 80ce <__ieee754_pow+0x1be>
    80c6:	f100 4340 	add.w	r3, r0, #3221225472	; 0xc0000000
    80ca:	429c      	cmp	r4, r3
    80cc:	d136      	bne.n	813c <__ieee754_pow+0x22c>
    80ce:	2d00      	cmp	r5, #0
    80d0:	db04      	blt.n	80dc <__ieee754_pow+0x1cc>
    80d2:	464a      	mov	r2, r9
    80d4:	4643      	mov	r3, r8
    80d6:	e9cd 2316 	strd	r2, r3, [sp, #88]	; 0x58
    80da:	e00b      	b.n	80f4 <__ieee754_pow+0x1e4>
    80dc:	2000      	movs	r0, #0
    80de:	4930      	ldr	r1, [pc, #192]	; (81a0 <__ieee754_pow+0x290>)
    80e0:	f8cd c004 	str.w	ip, [sp, #4]
    80e4:	464a      	mov	r2, r9
    80e6:	4643      	mov	r3, r8
    80e8:	f7f8 fe6c 	bl	dc4 <__aeabi_ddiv>
    80ec:	e9cd 0116 	strd	r0, r1, [sp, #88]	; 0x58
    80f0:	f8dd c004 	ldr.w	ip, [sp, #4]
    80f4:	9904      	ldr	r1, [sp, #16]
    80f6:	2900      	cmp	r1, #0
    80f8:	da1a      	bge.n	8130 <__ieee754_pow+0x220>
    80fa:	f104 4440 	add.w	r4, r4, #3221225472	; 0xc0000000
    80fe:	f504 1080 	add.w	r0, r4, #1048576	; 0x100000
    8102:	ea5c 0400 	orrs.w	r4, ip, r0
    8106:	d10c      	bne.n	8122 <__ieee754_pow+0x212>
    8108:	e9dd 0116 	ldrd	r0, r1, [sp, #88]	; 0x58
    810c:	4602      	mov	r2, r0
    810e:	460b      	mov	r3, r1
    8110:	f7f8 fb7a 	bl	808 <__aeabi_dsub>
    8114:	4602      	mov	r2, r0
    8116:	460b      	mov	r3, r1
    8118:	f7f8 fe54 	bl	dc4 <__aeabi_ddiv>
    811c:	e9cd 0116 	strd	r0, r1, [sp, #88]	; 0x58
    8120:	e006      	b.n	8130 <__ieee754_pow+0x220>
    8122:	f1bc 0f01 	cmp.w	ip, #1
    8126:	d103      	bne.n	8130 <__ieee754_pow+0x220>
    8128:	9b17      	ldr	r3, [sp, #92]	; 0x5c
    812a:	f103 4200 	add.w	r2, r3, #2147483648	; 0x80000000
    812e:	9217      	str	r2, [sp, #92]	; 0x5c
    8130:	f8dd b058 	ldr.w	fp, [sp, #88]	; 0x58
    8134:	f8dd a05c 	ldr.w	sl, [sp, #92]	; 0x5c
    8138:	f000 bc6d 	b.w	8a16 <__ieee754_pow+0xb06>
    813c:	9a04      	ldr	r2, [sp, #16]
    813e:	0fd0      	lsrs	r0, r2, #31
    8140:	1e43      	subs	r3, r0, #1
    8142:	ea5c 0303 	orrs.w	r3, ip, r3
    8146:	d109      	bne.n	815c <__ieee754_pow+0x24c>
    8148:	4a1c      	ldr	r2, [pc, #112]	; (81bc <__ieee754_pow+0x2ac>)
    814a:	4b17      	ldr	r3, [pc, #92]	; (81a8 <__ieee754_pow+0x298>)
    814c:	f8d2 b000 	ldr.w	fp, [r2]
    8150:	f8d2 a004 	ldr.w	sl, [r2, #4]
    8154:	2021      	movs	r0, #33	; 0x21
    8156:	6018      	str	r0, [r3, #0]
    8158:	f000 bc5d 	b.w	8a16 <__ieee754_pow+0xb06>
    815c:	4a18      	ldr	r2, [pc, #96]	; (81c0 <__ieee754_pow+0x2b0>)
    815e:	4291      	cmp	r1, r2
    8160:	f240 8095 	bls.w	828e <__ieee754_pow+0x37e>
    8164:	f102 7204 	add.w	r2, r2, #34603008	; 0x2100000
    8168:	4291      	cmp	r1, r2
    816a:	d90c      	bls.n	8186 <__ieee754_pow+0x276>
    816c:	4911      	ldr	r1, [pc, #68]	; (81b4 <__ieee754_pow+0x2a4>)
    816e:	428c      	cmp	r4, r1
    8170:	d80f      	bhi.n	8192 <__ieee754_pow+0x282>
    8172:	2d00      	cmp	r5, #0
    8174:	f6bf af6b 	bge.w	804e <__ieee754_pow+0x13e>
    8178:	a107      	add	r1, pc, #28	; (adr r1, 8198 <__ieee754_pow+0x288>)
    817a:	e9d1 0100 	ldrd	r0, r1, [r1]
    817e:	4602      	mov	r2, r0
    8180:	460b      	mov	r3, r1
    8182:	f000 bc41 	b.w	8a08 <__ieee754_pow+0xaf8>
    8186:	490f      	ldr	r1, [pc, #60]	; (81c4 <__ieee754_pow+0x2b4>)
    8188:	428c      	cmp	r4, r1
    818a:	d9f2      	bls.n	8172 <__ieee754_pow+0x262>
    818c:	4804      	ldr	r0, [pc, #16]	; (81a0 <__ieee754_pow+0x290>)
    818e:	4284      	cmp	r4, r0
    8190:	d91a      	bls.n	81c8 <__ieee754_pow+0x2b8>
    8192:	2d00      	cmp	r5, #0
    8194:	dcf0      	bgt.n	8178 <__ieee754_pow+0x268>
    8196:	e75a      	b.n	804e <__ieee754_pow+0x13e>
    8198:	8800759c 	.word	0x8800759c
    819c:	7e37e43c 	.word	0x7e37e43c
    81a0:	3ff00000 	.word	0x3ff00000
    81a4:	bff00000 	.word	0xbff00000
    81a8:	1fffe17c 	.word	0x1fffe17c
    81ac:	7ff00000 	.word	0x7ff00000
    81b0:	433fffff 	.word	0x433fffff
    81b4:	3fefffff 	.word	0x3fefffff
    81b8:	3fe00000 	.word	0x3fe00000
    81bc:	1fffe010 	.word	0x1fffe010
    81c0:	41e00000 	.word	0x41e00000
    81c4:	3feffffe 	.word	0x3feffffe
    81c8:	4630      	mov	r0, r6
    81ca:	4639      	mov	r1, r7
    81cc:	2200      	movs	r2, #0
    81ce:	4b4e      	ldr	r3, [pc, #312]	; (8308 <__ieee754_pow+0x3f8>)
    81d0:	f8cd c004 	str.w	ip, [sp, #4]
    81d4:	f7f8 fb18 	bl	808 <__aeabi_dsub>
    81d8:	a343      	add	r3, pc, #268	; (adr r3, 82e8 <__ieee754_pow+0x3d8>)
    81da:	e9d3 2300 	ldrd	r2, r3, [r3]
    81de:	4604      	mov	r4, r0
    81e0:	460d      	mov	r5, r1
    81e2:	f7f8 fcc5 	bl	b70 <__aeabi_dmul>
    81e6:	a342      	add	r3, pc, #264	; (adr r3, 82f0 <__ieee754_pow+0x3e0>)
    81e8:	e9d3 2300 	ldrd	r2, r3, [r3]
    81ec:	4606      	mov	r6, r0
    81ee:	460f      	mov	r7, r1
    81f0:	4620      	mov	r0, r4
    81f2:	4629      	mov	r1, r5
    81f4:	f7f8 fcbc 	bl	b70 <__aeabi_dmul>
    81f8:	4622      	mov	r2, r4
    81fa:	e9cd 0102 	strd	r0, r1, [sp, #8]
    81fe:	462b      	mov	r3, r5
    8200:	4620      	mov	r0, r4
    8202:	4629      	mov	r1, r5
    8204:	f7f8 fcb4 	bl	b70 <__aeabi_dmul>
    8208:	2200      	movs	r2, #0
    820a:	4680      	mov	r8, r0
    820c:	4689      	mov	r9, r1
    820e:	4620      	mov	r0, r4
    8210:	4629      	mov	r1, r5
    8212:	4b3e      	ldr	r3, [pc, #248]	; (830c <__ieee754_pow+0x3fc>)
    8214:	f7f8 fcac 	bl	b70 <__aeabi_dmul>
    8218:	4602      	mov	r2, r0
    821a:	460b      	mov	r3, r1
    821c:	a136      	add	r1, pc, #216	; (adr r1, 82f8 <__ieee754_pow+0x3e8>)
    821e:	e9d1 0100 	ldrd	r0, r1, [r1]
    8222:	f7f8 faf1 	bl	808 <__aeabi_dsub>
    8226:	4602      	mov	r2, r0
    8228:	460b      	mov	r3, r1
    822a:	4620      	mov	r0, r4
    822c:	4629      	mov	r1, r5
    822e:	f7f8 fc9f 	bl	b70 <__aeabi_dmul>
    8232:	4602      	mov	r2, r0
    8234:	460b      	mov	r3, r1
    8236:	2000      	movs	r0, #0
    8238:	4935      	ldr	r1, [pc, #212]	; (8310 <__ieee754_pow+0x400>)
    823a:	f7f8 fae5 	bl	808 <__aeabi_dsub>
    823e:	4602      	mov	r2, r0
    8240:	460b      	mov	r3, r1
    8242:	4640      	mov	r0, r8
    8244:	4649      	mov	r1, r9
    8246:	f7f8 fc93 	bl	b70 <__aeabi_dmul>
    824a:	a32d      	add	r3, pc, #180	; (adr r3, 8300 <__ieee754_pow+0x3f0>)
    824c:	e9d3 2300 	ldrd	r2, r3, [r3]
    8250:	f7f8 fc8e 	bl	b70 <__aeabi_dmul>
    8254:	4602      	mov	r2, r0
    8256:	460b      	mov	r3, r1
    8258:	e9dd 0102 	ldrd	r0, r1, [sp, #8]
    825c:	f7f8 fad4 	bl	808 <__aeabi_dsub>
    8260:	4604      	mov	r4, r0
    8262:	460d      	mov	r5, r1
    8264:	4622      	mov	r2, r4
    8266:	462b      	mov	r3, r5
    8268:	4630      	mov	r0, r6
    826a:	4639      	mov	r1, r7
    826c:	f7f8 face 	bl	80c <__adddf3>
    8270:	2300      	movs	r3, #0
    8272:	e9cd 0112 	strd	r0, r1, [sp, #72]	; 0x48
    8276:	9312      	str	r3, [sp, #72]	; 0x48
    8278:	4632      	mov	r2, r6
    827a:	463b      	mov	r3, r7
    827c:	e9dd 0112 	ldrd	r0, r1, [sp, #72]	; 0x48
    8280:	f7f8 fac2 	bl	808 <__aeabi_dsub>
    8284:	4602      	mov	r2, r0
    8286:	460b      	mov	r3, r1
    8288:	4620      	mov	r0, r4
    828a:	4629      	mov	r1, r5
    828c:	e1f1      	b.n	8672 <__ieee754_pow+0x762>
    828e:	f5b4 1f80 	cmp.w	r4, #1048576	; 0x100000
    8292:	d20f      	bcs.n	82b4 <__ieee754_pow+0x3a4>
    8294:	4648      	mov	r0, r9
    8296:	4641      	mov	r1, r8
    8298:	2200      	movs	r2, #0
    829a:	4b1e      	ldr	r3, [pc, #120]	; (8314 <__ieee754_pow+0x404>)
    829c:	f8cd c004 	str.w	ip, [sp, #4]
    82a0:	f7f8 fc66 	bl	b70 <__aeabi_dmul>
    82a4:	e9cd 010e 	strd	r0, r1, [sp, #56]	; 0x38
    82a8:	9c0f      	ldr	r4, [sp, #60]	; 0x3c
    82aa:	f8dd c004 	ldr.w	ip, [sp, #4]
    82ae:	f06f 0534 	mvn.w	r5, #52	; 0x34
    82b2:	e000      	b.n	82b6 <__ieee754_pow+0x3a6>
    82b4:	2500      	movs	r5, #0
    82b6:	0d26      	lsrs	r6, r4, #20
    82b8:	4a17      	ldr	r2, [pc, #92]	; (8318 <__ieee754_pow+0x408>)
    82ba:	f024 447f 	bic.w	r4, r4, #4278190080	; 0xff000000
    82be:	f424 0070 	bic.w	r0, r4, #15728640	; 0xf00000
    82c2:	f2a6 37ff 	subw	r7, r6, #1023	; 0x3ff
    82c6:	19e9      	adds	r1, r5, r7
    82c8:	f040 537f 	orr.w	r3, r0, #1069547520	; 0x3fc00000
    82cc:	4290      	cmp	r0, r2
    82ce:	910a      	str	r1, [sp, #40]	; 0x28
    82d0:	f443 1540 	orr.w	r5, r3, #3145728	; 0x300000
    82d4:	d906      	bls.n	82e4 <__ieee754_pow+0x3d4>
    82d6:	4e11      	ldr	r6, [pc, #68]	; (831c <__ieee754_pow+0x40c>)
    82d8:	42b0      	cmp	r0, r6
    82da:	d921      	bls.n	8320 <__ieee754_pow+0x410>
    82dc:	1c4f      	adds	r7, r1, #1
    82de:	970a      	str	r7, [sp, #40]	; 0x28
    82e0:	f5a5 1580 	sub.w	r5, r5, #1048576	; 0x100000
    82e4:	2400      	movs	r4, #0
    82e6:	e01c      	b.n	8322 <__ieee754_pow+0x412>
    82e8:	60000000 	.word	0x60000000
    82ec:	3ff71547 	.word	0x3ff71547
    82f0:	f85ddf44 	.word	0xf85ddf44
    82f4:	3e54ae0b 	.word	0x3e54ae0b
    82f8:	55555555 	.word	0x55555555
    82fc:	3fd55555 	.word	0x3fd55555
    8300:	652b82fe 	.word	0x652b82fe
    8304:	3ff71547 	.word	0x3ff71547
    8308:	3ff00000 	.word	0x3ff00000
    830c:	3fd00000 	.word	0x3fd00000
    8310:	3fe00000 	.word	0x3fe00000
    8314:	43400000 	.word	0x43400000
    8318:	0003988e 	.word	0x0003988e
    831c:	000bb679 	.word	0x000bb679
    8320:	2401      	movs	r4, #1
    8322:	950f      	str	r5, [sp, #60]	; 0x3c
    8324:	e9dd 010e 	ldrd	r0, r1, [sp, #56]	; 0x38
    8328:	e9cd 0108 	strd	r0, r1, [sp, #32]
    832c:	00e1      	lsls	r1, r4, #3
    832e:	910b      	str	r1, [sp, #44]	; 0x2c
    8330:	9a0b      	ldr	r2, [sp, #44]	; 0x2c
    8332:	4ba3      	ldr	r3, [pc, #652]	; (85c0 <__ieee754_pow+0x6b0>)
    8334:	f8cd c004 	str.w	ip, [sp, #4]
    8338:	189e      	adds	r6, r3, r2
    833a:	e9d6 8900 	ldrd	r8, r9, [r6]
    833e:	e9dd 0108 	ldrd	r0, r1, [sp, #32]
    8342:	4642      	mov	r2, r8
    8344:	464b      	mov	r3, r9
    8346:	f7f8 fa5f 	bl	808 <__aeabi_dsub>
    834a:	4642      	mov	r2, r8
    834c:	4606      	mov	r6, r0
    834e:	460f      	mov	r7, r1
    8350:	464b      	mov	r3, r9
    8352:	e9dd 0108 	ldrd	r0, r1, [sp, #32]
    8356:	f7f8 fa59 	bl	80c <__adddf3>
    835a:	4602      	mov	r2, r0
    835c:	460b      	mov	r3, r1
    835e:	2000      	movs	r0, #0
    8360:	4998      	ldr	r1, [pc, #608]	; (85c4 <__ieee754_pow+0x6b4>)
    8362:	f7f8 fd2f 	bl	dc4 <__aeabi_ddiv>
    8366:	e9cd 010c 	strd	r0, r1, [sp, #48]	; 0x30
    836a:	e9dd 230c 	ldrd	r2, r3, [sp, #48]	; 0x30
    836e:	4630      	mov	r0, r6
    8370:	4639      	mov	r1, r7
    8372:	f7f8 fbfd 	bl	b70 <__aeabi_dmul>
    8376:	086d      	lsrs	r5, r5, #1
    8378:	e9cd 0116 	strd	r0, r1, [sp, #88]	; 0x58
    837c:	e9cd 0106 	strd	r0, r1, [sp, #24]
    8380:	f045 5100 	orr.w	r1, r5, #536870912	; 0x20000000
    8384:	2200      	movs	r2, #0
    8386:	2300      	movs	r3, #0
    8388:	eb01 4484 	add.w	r4, r1, r4, lsl #18
    838c:	e9cd 2318 	strd	r2, r3, [sp, #96]	; 0x60
    8390:	2000      	movs	r0, #0
    8392:	f504 2300 	add.w	r3, r4, #524288	; 0x80000
    8396:	9016      	str	r0, [sp, #88]	; 0x58
    8398:	9319      	str	r3, [sp, #100]	; 0x64
    839a:	e9dd 4518 	ldrd	r4, r5, [sp, #96]	; 0x60
    839e:	e9dd 2316 	ldrd	r2, r3, [sp, #88]	; 0x58
    83a2:	e9cd 2302 	strd	r2, r3, [sp, #8]
    83a6:	4610      	mov	r0, r2
    83a8:	4619      	mov	r1, r3
    83aa:	4622      	mov	r2, r4
    83ac:	462b      	mov	r3, r5
    83ae:	f7f8 fbdf 	bl	b70 <__aeabi_dmul>
    83b2:	4602      	mov	r2, r0
    83b4:	460b      	mov	r3, r1
    83b6:	4630      	mov	r0, r6
    83b8:	4639      	mov	r1, r7
    83ba:	f7f8 fa25 	bl	808 <__aeabi_dsub>
    83be:	4642      	mov	r2, r8
    83c0:	4606      	mov	r6, r0
    83c2:	460f      	mov	r7, r1
    83c4:	464b      	mov	r3, r9
    83c6:	4620      	mov	r0, r4
    83c8:	4629      	mov	r1, r5
    83ca:	f7f8 fa1d 	bl	808 <__aeabi_dsub>
    83ce:	4602      	mov	r2, r0
    83d0:	460b      	mov	r3, r1
    83d2:	e9dd 0108 	ldrd	r0, r1, [sp, #32]
    83d6:	f7f8 fa17 	bl	808 <__aeabi_dsub>
    83da:	4602      	mov	r2, r0
    83dc:	460b      	mov	r3, r1
    83de:	e9dd 0102 	ldrd	r0, r1, [sp, #8]
    83e2:	f7f8 fbc5 	bl	b70 <__aeabi_dmul>
    83e6:	4602      	mov	r2, r0
    83e8:	460b      	mov	r3, r1
    83ea:	4630      	mov	r0, r6
    83ec:	4639      	mov	r1, r7
    83ee:	f7f8 fa0b 	bl	808 <__aeabi_dsub>
    83f2:	4602      	mov	r2, r0
    83f4:	460b      	mov	r3, r1
    83f6:	e9dd 010c 	ldrd	r0, r1, [sp, #48]	; 0x30
    83fa:	f7f8 fbb9 	bl	b70 <__aeabi_dmul>
    83fe:	4606      	mov	r6, r0
    8400:	460f      	mov	r7, r1
    8402:	e9dd 0106 	ldrd	r0, r1, [sp, #24]
    8406:	4602      	mov	r2, r0
    8408:	460b      	mov	r3, r1
    840a:	f7f8 fbb1 	bl	b70 <__aeabi_dmul>
    840e:	4602      	mov	r2, r0
    8410:	460b      	mov	r3, r1
    8412:	4604      	mov	r4, r0
    8414:	460d      	mov	r5, r1
    8416:	f7f8 fbab 	bl	b70 <__aeabi_dmul>
    841a:	a359      	add	r3, pc, #356	; (adr r3, 8580 <__ieee754_pow+0x670>)
    841c:	e9d3 2300 	ldrd	r2, r3, [r3]
    8420:	4680      	mov	r8, r0
    8422:	4689      	mov	r9, r1
    8424:	4620      	mov	r0, r4
    8426:	4629      	mov	r1, r5
    8428:	f7f8 fba2 	bl	b70 <__aeabi_dmul>
    842c:	a356      	add	r3, pc, #344	; (adr r3, 8588 <__ieee754_pow+0x678>)
    842e:	e9d3 2300 	ldrd	r2, r3, [r3]
    8432:	f7f8 f9eb 	bl	80c <__adddf3>
    8436:	4602      	mov	r2, r0
    8438:	460b      	mov	r3, r1
    843a:	4620      	mov	r0, r4
    843c:	4629      	mov	r1, r5
    843e:	f7f8 fb97 	bl	b70 <__aeabi_dmul>
    8442:	a353      	add	r3, pc, #332	; (adr r3, 8590 <__ieee754_pow+0x680>)
    8444:	e9d3 2300 	ldrd	r2, r3, [r3]
    8448:	f7f8 f9e0 	bl	80c <__adddf3>
    844c:	4602      	mov	r2, r0
    844e:	460b      	mov	r3, r1
    8450:	4620      	mov	r0, r4
    8452:	4629      	mov	r1, r5
    8454:	f7f8 fb8c 	bl	b70 <__aeabi_dmul>
    8458:	a34f      	add	r3, pc, #316	; (adr r3, 8598 <__ieee754_pow+0x688>)
    845a:	e9d3 2300 	ldrd	r2, r3, [r3]
    845e:	f7f8 f9d5 	bl	80c <__adddf3>
    8462:	4602      	mov	r2, r0
    8464:	460b      	mov	r3, r1
    8466:	4620      	mov	r0, r4
    8468:	4629      	mov	r1, r5
    846a:	f7f8 fb81 	bl	b70 <__aeabi_dmul>
    846e:	a34c      	add	r3, pc, #304	; (adr r3, 85a0 <__ieee754_pow+0x690>)
    8470:	e9d3 2300 	ldrd	r2, r3, [r3]
    8474:	f7f8 f9ca 	bl	80c <__adddf3>
    8478:	4602      	mov	r2, r0
    847a:	460b      	mov	r3, r1
    847c:	4620      	mov	r0, r4
    847e:	4629      	mov	r1, r5
    8480:	f7f8 fb76 	bl	b70 <__aeabi_dmul>
    8484:	a348      	add	r3, pc, #288	; (adr r3, 85a8 <__ieee754_pow+0x698>)
    8486:	e9d3 2300 	ldrd	r2, r3, [r3]
    848a:	f7f8 f9bf 	bl	80c <__adddf3>
    848e:	4602      	mov	r2, r0
    8490:	460b      	mov	r3, r1
    8492:	4640      	mov	r0, r8
    8494:	4649      	mov	r1, r9
    8496:	f7f8 fb6b 	bl	b70 <__aeabi_dmul>
    849a:	e9dd 2306 	ldrd	r2, r3, [sp, #24]
    849e:	4604      	mov	r4, r0
    84a0:	460d      	mov	r5, r1
    84a2:	e9dd 0102 	ldrd	r0, r1, [sp, #8]
    84a6:	f7f8 f9b1 	bl	80c <__adddf3>
    84aa:	4602      	mov	r2, r0
    84ac:	460b      	mov	r3, r1
    84ae:	4630      	mov	r0, r6
    84b0:	4639      	mov	r1, r7
    84b2:	f7f8 fb5d 	bl	b70 <__aeabi_dmul>
    84b6:	4602      	mov	r2, r0
    84b8:	460b      	mov	r3, r1
    84ba:	4620      	mov	r0, r4
    84bc:	4629      	mov	r1, r5
    84be:	f7f8 f9a5 	bl	80c <__adddf3>
    84c2:	4680      	mov	r8, r0
    84c4:	4689      	mov	r9, r1
    84c6:	e9dd 0102 	ldrd	r0, r1, [sp, #8]
    84ca:	4602      	mov	r2, r0
    84cc:	460b      	mov	r3, r1
    84ce:	f7f8 fb4f 	bl	b70 <__aeabi_dmul>
    84d2:	2200      	movs	r2, #0
    84d4:	4b3c      	ldr	r3, [pc, #240]	; (85c8 <__ieee754_pow+0x6b8>)
    84d6:	e9cd 0108 	strd	r0, r1, [sp, #32]
    84da:	f7f8 f997 	bl	80c <__adddf3>
    84de:	4642      	mov	r2, r8
    84e0:	464b      	mov	r3, r9
    84e2:	f7f8 f993 	bl	80c <__adddf3>
    84e6:	2200      	movs	r2, #0
    84e8:	e9cd 0118 	strd	r0, r1, [sp, #96]	; 0x60
    84ec:	9218      	str	r2, [sp, #96]	; 0x60
    84ee:	e9dd 4518 	ldrd	r4, r5, [sp, #96]	; 0x60
    84f2:	e9dd 0102 	ldrd	r0, r1, [sp, #8]
    84f6:	4622      	mov	r2, r4
    84f8:	462b      	mov	r3, r5
    84fa:	f7f8 fb39 	bl	b70 <__aeabi_dmul>
    84fe:	4622      	mov	r2, r4
    8500:	e9cd 0102 	strd	r0, r1, [sp, #8]
    8504:	462b      	mov	r3, r5
    8506:	4630      	mov	r0, r6
    8508:	4639      	mov	r1, r7
    850a:	f7f8 fb31 	bl	b70 <__aeabi_dmul>
    850e:	2200      	movs	r2, #0
    8510:	4606      	mov	r6, r0
    8512:	460f      	mov	r7, r1
    8514:	4620      	mov	r0, r4
    8516:	4629      	mov	r1, r5
    8518:	4b2b      	ldr	r3, [pc, #172]	; (85c8 <__ieee754_pow+0x6b8>)
    851a:	f7f8 f975 	bl	808 <__aeabi_dsub>
    851e:	e9dd 2308 	ldrd	r2, r3, [sp, #32]
    8522:	f7f8 f971 	bl	808 <__aeabi_dsub>
    8526:	4602      	mov	r2, r0
    8528:	460b      	mov	r3, r1
    852a:	4640      	mov	r0, r8
    852c:	4649      	mov	r1, r9
    852e:	f7f8 f96b 	bl	808 <__aeabi_dsub>
    8532:	e9dd 2306 	ldrd	r2, r3, [sp, #24]
    8536:	f7f8 fb1b 	bl	b70 <__aeabi_dmul>
    853a:	4602      	mov	r2, r0
    853c:	460b      	mov	r3, r1
    853e:	4630      	mov	r0, r6
    8540:	4639      	mov	r1, r7
    8542:	f7f8 f963 	bl	80c <__adddf3>
    8546:	4680      	mov	r8, r0
    8548:	4689      	mov	r9, r1
    854a:	4642      	mov	r2, r8
    854c:	464b      	mov	r3, r9
    854e:	e9dd 0102 	ldrd	r0, r1, [sp, #8]
    8552:	f7f8 f95b 	bl	80c <__adddf3>
    8556:	e9cd 0110 	strd	r0, r1, [sp, #64]	; 0x40
    855a:	2000      	movs	r0, #0
    855c:	9010      	str	r0, [sp, #64]	; 0x40
    855e:	e9dd 4510 	ldrd	r4, r5, [sp, #64]	; 0x40
    8562:	a313      	add	r3, pc, #76	; (adr r3, 85b0 <__ieee754_pow+0x6a0>)
    8564:	e9d3 2300 	ldrd	r2, r3, [r3]
    8568:	4620      	mov	r0, r4
    856a:	4629      	mov	r1, r5
    856c:	f7f8 fb00 	bl	b70 <__aeabi_dmul>
    8570:	a311      	add	r3, pc, #68	; (adr r3, 85b8 <__ieee754_pow+0x6a8>)
    8572:	e9d3 2300 	ldrd	r2, r3, [r3]
    8576:	e9cd 0106 	strd	r0, r1, [sp, #24]
    857a:	4620      	mov	r0, r4
    857c:	e026      	b.n	85cc <__ieee754_pow+0x6bc>
    857e:	bf00      	nop
    8580:	4a454eef 	.word	0x4a454eef
    8584:	3fca7e28 	.word	0x3fca7e28
    8588:	93c9db65 	.word	0x93c9db65
    858c:	3fcd864a 	.word	0x3fcd864a
    8590:	a91d4101 	.word	0xa91d4101
    8594:	3fd17460 	.word	0x3fd17460
    8598:	518f264d 	.word	0x518f264d
    859c:	3fd55555 	.word	0x3fd55555
    85a0:	db6fabff 	.word	0xdb6fabff
    85a4:	3fdb6db6 	.word	0x3fdb6db6
    85a8:	33333303 	.word	0x33333303
    85ac:	3fe33333 	.word	0x3fe33333
    85b0:	e0000000 	.word	0xe0000000
    85b4:	3feec709 	.word	0x3feec709
    85b8:	145b01f5 	.word	0x145b01f5
    85bc:	be3e2fe0 	.word	0xbe3e2fe0
    85c0:	000123b8 	.word	0x000123b8
    85c4:	3ff00000 	.word	0x3ff00000
    85c8:	40080000 	.word	0x40080000
    85cc:	4629      	mov	r1, r5
    85ce:	f7f8 facf 	bl	b70 <__aeabi_dmul>
    85d2:	e9dd 2302 	ldrd	r2, r3, [sp, #8]
    85d6:	4606      	mov	r6, r0
    85d8:	460f      	mov	r7, r1
    85da:	4620      	mov	r0, r4
    85dc:	4629      	mov	r1, r5
    85de:	f7f8 f913 	bl	808 <__aeabi_dsub>
    85e2:	4602      	mov	r2, r0
    85e4:	460b      	mov	r3, r1
    85e6:	4640      	mov	r0, r8
    85e8:	4649      	mov	r1, r9
    85ea:	f7f8 f90d 	bl	808 <__aeabi_dsub>
    85ee:	a388      	add	r3, pc, #544	; (adr r3, 8810 <__ieee754_pow+0x900>)
    85f0:	e9d3 2300 	ldrd	r2, r3, [r3]
    85f4:	f7f8 fabc 	bl	b70 <__aeabi_dmul>
    85f8:	4602      	mov	r2, r0
    85fa:	460b      	mov	r3, r1
    85fc:	4630      	mov	r0, r6
    85fe:	4639      	mov	r1, r7
    8600:	f7f8 f904 	bl	80c <__adddf3>
    8604:	9c0b      	ldr	r4, [sp, #44]	; 0x2c
    8606:	4b8a      	ldr	r3, [pc, #552]	; (8830 <__ieee754_pow+0x920>)
    8608:	191d      	adds	r5, r3, r4
    860a:	e9d5 2300 	ldrd	r2, r3, [r5]
    860e:	f7f8 f8fd 	bl	80c <__adddf3>
    8612:	4606      	mov	r6, r0
    8614:	980a      	ldr	r0, [sp, #40]	; 0x28
    8616:	460f      	mov	r7, r1
    8618:	f7f8 fa44 	bl	aa4 <__aeabi_i2d>
    861c:	4a85      	ldr	r2, [pc, #532]	; (8834 <__ieee754_pow+0x924>)
    861e:	460d      	mov	r5, r1
    8620:	990b      	ldr	r1, [sp, #44]	; 0x2c
    8622:	4604      	mov	r4, r0
    8624:	1850      	adds	r0, r2, r1
    8626:	e9d0 8900 	ldrd	r8, r9, [r0]
    862a:	4632      	mov	r2, r6
    862c:	e9dd 0106 	ldrd	r0, r1, [sp, #24]
    8630:	463b      	mov	r3, r7
    8632:	f7f8 f8eb 	bl	80c <__adddf3>
    8636:	4642      	mov	r2, r8
    8638:	464b      	mov	r3, r9
    863a:	f7f8 f8e7 	bl	80c <__adddf3>
    863e:	4622      	mov	r2, r4
    8640:	462b      	mov	r3, r5
    8642:	f7f8 f8e3 	bl	80c <__adddf3>
    8646:	2300      	movs	r3, #0
    8648:	e9cd 0112 	strd	r0, r1, [sp, #72]	; 0x48
    864c:	9312      	str	r3, [sp, #72]	; 0x48
    864e:	4622      	mov	r2, r4
    8650:	462b      	mov	r3, r5
    8652:	e9dd 0112 	ldrd	r0, r1, [sp, #72]	; 0x48
    8656:	f7f8 f8d7 	bl	808 <__aeabi_dsub>
    865a:	4642      	mov	r2, r8
    865c:	464b      	mov	r3, r9
    865e:	f7f8 f8d3 	bl	808 <__aeabi_dsub>
    8662:	e9dd 2306 	ldrd	r2, r3, [sp, #24]
    8666:	f7f8 f8cf 	bl	808 <__aeabi_dsub>
    866a:	4602      	mov	r2, r0
    866c:	460b      	mov	r3, r1
    866e:	4630      	mov	r0, r6
    8670:	4639      	mov	r1, r7
    8672:	f7f8 f8c9 	bl	808 <__aeabi_dsub>
    8676:	460d      	mov	r5, r1
    8678:	9904      	ldr	r1, [sp, #16]
    867a:	f8dd c004 	ldr.w	ip, [sp, #4]
    867e:	4604      	mov	r4, r0
    8680:	17c8      	asrs	r0, r1, #31
    8682:	f10c 32ff 	add.w	r2, ip, #4294967295
    8686:	1c46      	adds	r6, r0, #1
    8688:	ea52 0306 	orrs.w	r3, r2, r6
    868c:	bf14      	ite	ne
    868e:	4b6a      	ldrne	r3, [pc, #424]	; (8838 <__ieee754_pow+0x928>)
    8690:	4b6a      	ldreq	r3, [pc, #424]	; (883c <__ieee754_pow+0x92c>)
    8692:	f04f 0200 	mov.w	r2, #0
    8696:	e9cd 2304 	strd	r2, r3, [sp, #16]
    869a:	2700      	movs	r7, #0
    869c:	465a      	mov	r2, fp
    869e:	4653      	mov	r3, sl
    86a0:	e9cd 2318 	strd	r2, r3, [sp, #96]	; 0x60
    86a4:	9718      	str	r7, [sp, #96]	; 0x60
    86a6:	e9dd 6718 	ldrd	r6, r7, [sp, #96]	; 0x60
    86aa:	e9dd 8912 	ldrd	r8, r9, [sp, #72]	; 0x48
    86ae:	4632      	mov	r2, r6
    86b0:	463b      	mov	r3, r7
    86b2:	4658      	mov	r0, fp
    86b4:	4651      	mov	r1, sl
    86b6:	f7f8 f8a7 	bl	808 <__aeabi_dsub>
    86ba:	4642      	mov	r2, r8
    86bc:	464b      	mov	r3, r9
    86be:	f7f8 fa57 	bl	b70 <__aeabi_dmul>
    86c2:	4622      	mov	r2, r4
    86c4:	e9cd 0102 	strd	r0, r1, [sp, #8]
    86c8:	462b      	mov	r3, r5
    86ca:	4658      	mov	r0, fp
    86cc:	4651      	mov	r1, sl
    86ce:	f7f8 fa4f 	bl	b70 <__aeabi_dmul>
    86d2:	4602      	mov	r2, r0
    86d4:	460b      	mov	r3, r1
    86d6:	e9dd 0102 	ldrd	r0, r1, [sp, #8]
    86da:	f7f8 f897 	bl	80c <__adddf3>
    86de:	4642      	mov	r2, r8
    86e0:	464b      	mov	r3, r9
    86e2:	4604      	mov	r4, r0
    86e4:	460d      	mov	r5, r1
    86e6:	4630      	mov	r0, r6
    86e8:	4639      	mov	r1, r7
    86ea:	f7f8 fa41 	bl	b70 <__aeabi_dmul>
    86ee:	4606      	mov	r6, r0
    86f0:	460f      	mov	r7, r1
    86f2:	4632      	mov	r2, r6
    86f4:	463b      	mov	r3, r7
    86f6:	4620      	mov	r0, r4
    86f8:	4629      	mov	r1, r5
    86fa:	e9cd 6710 	strd	r6, r7, [sp, #64]	; 0x40
    86fe:	f7f8 f885 	bl	80c <__adddf3>
    8702:	4680      	mov	r8, r0
    8704:	4689      	mov	r9, r1
    8706:	e9cd 8916 	strd	r8, r9, [sp, #88]	; 0x58
    870a:	f8dd b05c 	ldr.w	fp, [sp, #92]	; 0x5c
    870e:	4b4c      	ldr	r3, [pc, #304]	; (8840 <__ieee754_pow+0x930>)
    8710:	9a16      	ldr	r2, [sp, #88]	; 0x58
    8712:	459b      	cmp	fp, r3
    8714:	dd27      	ble.n	8766 <__ieee754_pow+0x856>
    8716:	f10b 413f 	add.w	r1, fp, #3204448256	; 0xbf000000
    871a:	f501 00e0 	add.w	r0, r1, #7340032	; 0x700000
    871e:	ea50 0302 	orrs.w	r3, r0, r2
    8722:	d115      	bne.n	8750 <__ieee754_pow+0x840>
    8724:	a33c      	add	r3, pc, #240	; (adr r3, 8818 <__ieee754_pow+0x908>)
    8726:	e9d3 2300 	ldrd	r2, r3, [r3]
    872a:	4620      	mov	r0, r4
    872c:	4629      	mov	r1, r5
    872e:	f7f8 f86d 	bl	80c <__adddf3>
    8732:	4632      	mov	r2, r6
    8734:	e9cd 0102 	strd	r0, r1, [sp, #8]
    8738:	463b      	mov	r3, r7
    873a:	4640      	mov	r0, r8
    873c:	4649      	mov	r1, r9
    873e:	f7f8 f863 	bl	808 <__aeabi_dsub>
    8742:	4602      	mov	r2, r0
    8744:	460b      	mov	r3, r1
    8746:	e9dd 0102 	ldrd	r0, r1, [sp, #8]
    874a:	f7f8 fca1 	bl	1090 <__aeabi_dcmpgt>
    874e:	b348      	cbz	r0, 87a4 <__ieee754_pow+0x894>
    8750:	a333      	add	r3, pc, #204	; (adr r3, 8820 <__ieee754_pow+0x910>)
    8752:	e9d3 2300 	ldrd	r2, r3, [r3]
    8756:	e9dd 0104 	ldrd	r0, r1, [sp, #16]
    875a:	f7f8 fa09 	bl	b70 <__aeabi_dmul>
    875e:	a330      	add	r3, pc, #192	; (adr r3, 8820 <__ieee754_pow+0x910>)
    8760:	e9d3 2300 	ldrd	r2, r3, [r3]
    8764:	e150      	b.n	8a08 <__ieee754_pow+0xaf8>
    8766:	4b37      	ldr	r3, [pc, #220]	; (8844 <__ieee754_pow+0x934>)
    8768:	f02b 4e00 	bic.w	lr, fp, #2147483648	; 0x80000000
    876c:	459e      	cmp	lr, r3
    876e:	d919      	bls.n	87a4 <__ieee754_pow+0x894>
    8770:	4b35      	ldr	r3, [pc, #212]	; (8848 <__ieee754_pow+0x938>)
    8772:	445b      	add	r3, fp
    8774:	4313      	orrs	r3, r2
    8776:	d10a      	bne.n	878e <__ieee754_pow+0x87e>
    8778:	4632      	mov	r2, r6
    877a:	463b      	mov	r3, r7
    877c:	f7f8 f844 	bl	808 <__aeabi_dsub>
    8780:	4602      	mov	r2, r0
    8782:	460b      	mov	r3, r1
    8784:	4620      	mov	r0, r4
    8786:	4629      	mov	r1, r5
    8788:	f7f8 fc6e 	bl	1068 <__aeabi_dcmple>
    878c:	b150      	cbz	r0, 87a4 <__ieee754_pow+0x894>
    878e:	a326      	add	r3, pc, #152	; (adr r3, 8828 <__ieee754_pow+0x918>)
    8790:	e9d3 2300 	ldrd	r2, r3, [r3]
    8794:	e9dd 0104 	ldrd	r0, r1, [sp, #16]
    8798:	f7f8 f9ea 	bl	b70 <__aeabi_dmul>
    879c:	a322      	add	r3, pc, #136	; (adr r3, 8828 <__ieee754_pow+0x918>)
    879e:	e9d3 2300 	ldrd	r2, r3, [r3]
    87a2:	e131      	b.n	8a08 <__ieee754_pow+0xaf8>
    87a4:	4b29      	ldr	r3, [pc, #164]	; (884c <__ieee754_pow+0x93c>)
    87a6:	f02b 4200 	bic.w	r2, fp, #2147483648	; 0x80000000
    87aa:	429a      	cmp	r2, r3
    87ac:	d952      	bls.n	8854 <__ieee754_pow+0x944>
    87ae:	0d11      	lsrs	r1, r2, #20
    87b0:	f2a1 30fe 	subw	r0, r1, #1022	; 0x3fe
    87b4:	f44f 1280 	mov.w	r2, #1048576	; 0x100000
    87b8:	fa22 f300 	lsr.w	r3, r2, r0
    87bc:	eb0b 0103 	add.w	r1, fp, r3
    87c0:	2200      	movs	r2, #0
    87c2:	2300      	movs	r3, #0
    87c4:	e9cd 2314 	strd	r2, r3, [sp, #80]	; 0x50
    87c8:	f3c1 500a 	ubfx	r0, r1, #20, #11
    87cc:	4a20      	ldr	r2, [pc, #128]	; (8850 <__ieee754_pow+0x940>)
    87ce:	f2a0 33ff 	subw	r3, r0, #1023	; 0x3ff
    87d2:	fa42 f303 	asr.w	r3, r2, r3
    87d6:	f021 487f 	bic.w	r8, r1, #4278190080	; 0xff000000
    87da:	ea21 0203 	bic.w	r2, r1, r3
    87de:	f428 0970 	bic.w	r9, r8, #15728640	; 0xf00000
    87e2:	f5c0 6182 	rsb	r1, r0, #1040	; 0x410
    87e6:	1cc8      	adds	r0, r1, #3
    87e8:	9215      	str	r2, [sp, #84]	; 0x54
    87ea:	f449 1c80 	orr.w	ip, r9, #1048576	; 0x100000
    87ee:	fa4c fa00 	asr.w	sl, ip, r0
    87f2:	f1bb 0f00 	cmp.w	fp, #0
    87f6:	4630      	mov	r0, r6
    87f8:	4639      	mov	r1, r7
    87fa:	e9dd 2314 	ldrd	r2, r3, [sp, #80]	; 0x50
    87fe:	bfb8      	it	lt
    8800:	f1ca 0a00 	rsblt	sl, sl, #0
    8804:	f7f8 f800 	bl	808 <__aeabi_dsub>
    8808:	e9cd 0110 	strd	r0, r1, [sp, #64]	; 0x40
    880c:	e024      	b.n	8858 <__ieee754_pow+0x948>
    880e:	bf00      	nop
    8810:	dc3a03fd 	.word	0xdc3a03fd
    8814:	3feec709 	.word	0x3feec709
    8818:	652b82fe 	.word	0x652b82fe
    881c:	3c971547 	.word	0x3c971547
    8820:	8800759c 	.word	0x8800759c
    8824:	7e37e43c 	.word	0x7e37e43c
    8828:	c2f8f359 	.word	0xc2f8f359
    882c:	01a56e1f 	.word	0x01a56e1f
    8830:	000123a8 	.word	0x000123a8
    8834:	00012398 	.word	0x00012398
    8838:	3ff00000 	.word	0x3ff00000
    883c:	bff00000 	.word	0xbff00000
    8840:	408fffff 	.word	0x408fffff
    8844:	4090cbff 	.word	0x4090cbff
    8848:	3f6f3400 	.word	0x3f6f3400
    884c:	3fe00000 	.word	0x3fe00000
    8850:	000fffff 	.word	0x000fffff
    8854:	f04f 0a00 	mov.w	sl, #0
    8858:	e9dd 8910 	ldrd	r8, r9, [sp, #64]	; 0x40
    885c:	4620      	mov	r0, r4
    885e:	4642      	mov	r2, r8
    8860:	464b      	mov	r3, r9
    8862:	4629      	mov	r1, r5
    8864:	f7f7 ffd2 	bl	80c <__adddf3>
    8868:	2600      	movs	r6, #0
    886a:	e9cd 0114 	strd	r0, r1, [sp, #80]	; 0x50
    886e:	9614      	str	r6, [sp, #80]	; 0x50
    8870:	e9dd 6714 	ldrd	r6, r7, [sp, #80]	; 0x50
    8874:	a36a      	add	r3, pc, #424	; (adr r3, 8a20 <__ieee754_pow+0xb10>)
    8876:	e9d3 2300 	ldrd	r2, r3, [r3]
    887a:	4630      	mov	r0, r6
    887c:	4639      	mov	r1, r7
    887e:	f7f8 f977 	bl	b70 <__aeabi_dmul>
    8882:	4642      	mov	r2, r8
    8884:	e9cd 0102 	strd	r0, r1, [sp, #8]
    8888:	464b      	mov	r3, r9
    888a:	4630      	mov	r0, r6
    888c:	4639      	mov	r1, r7
    888e:	f7f7 ffbb 	bl	808 <__aeabi_dsub>
    8892:	4602      	mov	r2, r0
    8894:	460b      	mov	r3, r1
    8896:	4620      	mov	r0, r4
    8898:	4629      	mov	r1, r5
    889a:	f7f7 ffb5 	bl	808 <__aeabi_dsub>
    889e:	a362      	add	r3, pc, #392	; (adr r3, 8a28 <__ieee754_pow+0xb18>)
    88a0:	e9d3 2300 	ldrd	r2, r3, [r3]
    88a4:	f7f8 f964 	bl	b70 <__aeabi_dmul>
    88a8:	a361      	add	r3, pc, #388	; (adr r3, 8a30 <__ieee754_pow+0xb20>)
    88aa:	e9d3 2300 	ldrd	r2, r3, [r3]
    88ae:	4604      	mov	r4, r0
    88b0:	460d      	mov	r5, r1
    88b2:	4630      	mov	r0, r6
    88b4:	4639      	mov	r1, r7
    88b6:	f7f8 f95b 	bl	b70 <__aeabi_dmul>
    88ba:	4602      	mov	r2, r0
    88bc:	460b      	mov	r3, r1
    88be:	4620      	mov	r0, r4
    88c0:	4629      	mov	r1, r5
    88c2:	f7f7 ffa3 	bl	80c <__adddf3>
    88c6:	4606      	mov	r6, r0
    88c8:	460f      	mov	r7, r1
    88ca:	4632      	mov	r2, r6
    88cc:	e9dd 0102 	ldrd	r0, r1, [sp, #8]
    88d0:	463b      	mov	r3, r7
    88d2:	f7f7 ff9b 	bl	80c <__adddf3>
    88d6:	e9dd 2302 	ldrd	r2, r3, [sp, #8]
    88da:	4604      	mov	r4, r0
    88dc:	460d      	mov	r5, r1
    88de:	f7f7 ff93 	bl	808 <__aeabi_dsub>
    88e2:	4602      	mov	r2, r0
    88e4:	460b      	mov	r3, r1
    88e6:	4630      	mov	r0, r6
    88e8:	4639      	mov	r1, r7
    88ea:	f7f7 ff8d 	bl	808 <__aeabi_dsub>
    88ee:	4622      	mov	r2, r4
    88f0:	4680      	mov	r8, r0
    88f2:	4689      	mov	r9, r1
    88f4:	462b      	mov	r3, r5
    88f6:	4620      	mov	r0, r4
    88f8:	4629      	mov	r1, r5
    88fa:	f7f8 f939 	bl	b70 <__aeabi_dmul>
    88fe:	a34e      	add	r3, pc, #312	; (adr r3, 8a38 <__ieee754_pow+0xb28>)
    8900:	e9d3 2300 	ldrd	r2, r3, [r3]
    8904:	4606      	mov	r6, r0
    8906:	460f      	mov	r7, r1
    8908:	e9cd 6714 	strd	r6, r7, [sp, #80]	; 0x50
    890c:	f7f8 f930 	bl	b70 <__aeabi_dmul>
    8910:	a34b      	add	r3, pc, #300	; (adr r3, 8a40 <__ieee754_pow+0xb30>)
    8912:	e9d3 2300 	ldrd	r2, r3, [r3]
    8916:	f7f7 ff77 	bl	808 <__aeabi_dsub>
    891a:	4602      	mov	r2, r0
    891c:	460b      	mov	r3, r1
    891e:	4630      	mov	r0, r6
    8920:	4639      	mov	r1, r7
    8922:	f7f8 f925 	bl	b70 <__aeabi_dmul>
    8926:	a348      	add	r3, pc, #288	; (adr r3, 8a48 <__ieee754_pow+0xb38>)
    8928:	e9d3 2300 	ldrd	r2, r3, [r3]
    892c:	f7f7 ff6e 	bl	80c <__adddf3>
    8930:	4602      	mov	r2, r0
    8932:	460b      	mov	r3, r1
    8934:	4630      	mov	r0, r6
    8936:	4639      	mov	r1, r7
    8938:	f7f8 f91a 	bl	b70 <__aeabi_dmul>
    893c:	a344      	add	r3, pc, #272	; (adr r3, 8a50 <__ieee754_pow+0xb40>)
    893e:	e9d3 2300 	ldrd	r2, r3, [r3]
    8942:	f7f7 ff61 	bl	808 <__aeabi_dsub>
    8946:	4602      	mov	r2, r0
    8948:	460b      	mov	r3, r1
    894a:	4630      	mov	r0, r6
    894c:	4639      	mov	r1, r7
    894e:	f7f8 f90f 	bl	b70 <__aeabi_dmul>
    8952:	a341      	add	r3, pc, #260	; (adr r3, 8a58 <__ieee754_pow+0xb48>)
    8954:	e9d3 2300 	ldrd	r2, r3, [r3]
    8958:	f7f7 ff58 	bl	80c <__adddf3>
    895c:	4602      	mov	r2, r0
    895e:	460b      	mov	r3, r1
    8960:	4630      	mov	r0, r6
    8962:	4639      	mov	r1, r7
    8964:	f7f8 f904 	bl	b70 <__aeabi_dmul>
    8968:	4602      	mov	r2, r0
    896a:	460b      	mov	r3, r1
    896c:	4620      	mov	r0, r4
    896e:	4629      	mov	r1, r5
    8970:	f7f7 ff4a 	bl	808 <__aeabi_dsub>
    8974:	4606      	mov	r6, r0
    8976:	460f      	mov	r7, r1
    8978:	4632      	mov	r2, r6
    897a:	463b      	mov	r3, r7
    897c:	4620      	mov	r0, r4
    897e:	4629      	mov	r1, r5
    8980:	e9cd 6712 	strd	r6, r7, [sp, #72]	; 0x48
    8984:	f7f8 f8f4 	bl	b70 <__aeabi_dmul>
    8988:	2200      	movs	r2, #0
    898a:	e9cd 0102 	strd	r0, r1, [sp, #8]
    898e:	f04f 4380 	mov.w	r3, #1073741824	; 0x40000000
    8992:	4630      	mov	r0, r6
    8994:	4639      	mov	r1, r7
    8996:	f7f7 ff37 	bl	808 <__aeabi_dsub>
    899a:	4602      	mov	r2, r0
    899c:	460b      	mov	r3, r1
    899e:	e9dd 0102 	ldrd	r0, r1, [sp, #8]
    89a2:	f7f8 fa0f 	bl	dc4 <__aeabi_ddiv>
    89a6:	4642      	mov	r2, r8
    89a8:	4606      	mov	r6, r0
    89aa:	460f      	mov	r7, r1
    89ac:	464b      	mov	r3, r9
    89ae:	4620      	mov	r0, r4
    89b0:	4629      	mov	r1, r5
    89b2:	f7f8 f8dd 	bl	b70 <__aeabi_dmul>
    89b6:	4602      	mov	r2, r0
    89b8:	460b      	mov	r3, r1
    89ba:	4640      	mov	r0, r8
    89bc:	4649      	mov	r1, r9
    89be:	f7f7 ff25 	bl	80c <__adddf3>
    89c2:	4602      	mov	r2, r0
    89c4:	460b      	mov	r3, r1
    89c6:	4630      	mov	r0, r6
    89c8:	4639      	mov	r1, r7
    89ca:	f7f7 ff1d 	bl	808 <__aeabi_dsub>
    89ce:	4622      	mov	r2, r4
    89d0:	462b      	mov	r3, r5
    89d2:	f7f7 ff19 	bl	808 <__aeabi_dsub>
    89d6:	4602      	mov	r2, r0
    89d8:	460b      	mov	r3, r1
    89da:	2000      	movs	r0, #0
    89dc:	4920      	ldr	r1, [pc, #128]	; (8a60 <__ieee754_pow+0xb50>)
    89de:	f7f7 ff13 	bl	808 <__aeabi_dsub>
    89e2:	e9cd 0116 	strd	r0, r1, [sp, #88]	; 0x58
    89e6:	9b17      	ldr	r3, [sp, #92]	; 0x5c
    89e8:	eb03 520a 	add.w	r2, r3, sl, lsl #20
    89ec:	f5b2 1f80 	cmp.w	r2, #1048576	; 0x100000
    89f0:	da05      	bge.n	89fe <__ieee754_pow+0xaee>
    89f2:	4652      	mov	r2, sl
    89f4:	f001 f88c 	bl	9b10 <scalbn>
    89f8:	e9cd 0116 	strd	r0, r1, [sp, #88]	; 0x58
    89fc:	e000      	b.n	8a00 <__ieee754_pow+0xaf0>
    89fe:	9217      	str	r2, [sp, #92]	; 0x5c
    8a00:	e9dd 0104 	ldrd	r0, r1, [sp, #16]
    8a04:	e9dd 2316 	ldrd	r2, r3, [sp, #88]	; 0x58
    8a08:	f7f8 f8b2 	bl	b70 <__aeabi_dmul>
    8a0c:	4683      	mov	fp, r0
    8a0e:	468a      	mov	sl, r1
    8a10:	e001      	b.n	8a16 <__ieee754_pow+0xb06>
    8a12:	46b3      	mov	fp, r6
    8a14:	46ba      	mov	sl, r7
    8a16:	4658      	mov	r0, fp
    8a18:	4651      	mov	r1, sl
    8a1a:	b01b      	add	sp, #108	; 0x6c
    8a1c:	e8bd 8ff0 	ldmia.w	sp!, {r4, r5, r6, r7, r8, r9, sl, fp, pc}
    8a20:	00000000 	.word	0x00000000
    8a24:	3fe62e43 	.word	0x3fe62e43
    8a28:	fefa39ef 	.word	0xfefa39ef
    8a2c:	3fe62e42 	.word	0x3fe62e42
    8a30:	0ca86c39 	.word	0x0ca86c39
    8a34:	be205c61 	.word	0xbe205c61
    8a38:	72bea4d0 	.word	0x72bea4d0
    8a3c:	3e663769 	.word	0x3e663769
    8a40:	c5d26bf1 	.word	0xc5d26bf1
    8a44:	3ebbbd41 	.word	0x3ebbbd41
    8a48:	af25de2c 	.word	0xaf25de2c
    8a4c:	3f11566a 	.word	0x3f11566a
    8a50:	16bebd93 	.word	0x16bebd93
    8a54:	3f66c16c 	.word	0x3f66c16c
    8a58:	5555553e 	.word	0x5555553e
    8a5c:	3fc55555 	.word	0x3fc55555
    8a60:	3ff00000 	.word	0x3ff00000
    8a64:	f3af 8000 	nop.w

00008a68 <__ieee754_rem_pio2>:
    8a68:	e92d 4ff0 	stmdb	sp!, {r4, r5, r6, r7, r8, r9, sl, fp, lr}
    8a6c:	4b4c      	ldr	r3, [pc, #304]	; (8ba0 <__ieee754_rem_pio2+0x138>)
    8a6e:	f021 4b00 	bic.w	fp, r1, #2147483648	; 0x80000000
    8a72:	459b      	cmp	fp, r3
    8a74:	b091      	sub	sp, #68	; 0x44
    8a76:	4605      	mov	r5, r0
    8a78:	460c      	mov	r4, r1
    8a7a:	4690      	mov	r8, r2
    8a7c:	468a      	mov	sl, r1
    8a7e:	dc08      	bgt.n	8a92 <__ieee754_rem_pio2+0x2a>
    8a80:	4602      	mov	r2, r0
    8a82:	460b      	mov	r3, r1
    8a84:	e9c8 2300 	strd	r2, r3, [r8]
    8a88:	2200      	movs	r2, #0
    8a8a:	2300      	movs	r3, #0
    8a8c:	e9c8 2302 	strd	r2, r3, [r8, #8]
    8a90:	e177      	b.n	8d82 <__ieee754_rem_pio2+0x31a>
    8a92:	4a44      	ldr	r2, [pc, #272]	; (8ba4 <__ieee754_rem_pio2+0x13c>)
    8a94:	4593      	cmp	fp, r2
    8a96:	f300 8089 	bgt.w	8bac <__ieee754_rem_pio2+0x144>
    8a9a:	2900      	cmp	r1, #0
    8a9c:	a338      	add	r3, pc, #224	; (adr r3, 8b80 <__ieee754_rem_pio2+0x118>)
    8a9e:	e9d3 2300 	ldrd	r2, r3, [r3]
    8aa2:	4e41      	ldr	r6, [pc, #260]	; (8ba8 <__ieee754_rem_pio2+0x140>)
    8aa4:	dd34      	ble.n	8b10 <__ieee754_rem_pio2+0xa8>
    8aa6:	f7f7 feaf 	bl	808 <__aeabi_dsub>
    8aaa:	45b3      	cmp	fp, r6
    8aac:	4604      	mov	r4, r0
    8aae:	460d      	mov	r5, r1
    8ab0:	d010      	beq.n	8ad4 <__ieee754_rem_pio2+0x6c>
    8ab2:	a335      	add	r3, pc, #212	; (adr r3, 8b88 <__ieee754_rem_pio2+0x120>)
    8ab4:	e9d3 2300 	ldrd	r2, r3, [r3]
    8ab8:	f7f7 fea6 	bl	808 <__aeabi_dsub>
    8abc:	4602      	mov	r2, r0
    8abe:	460b      	mov	r3, r1
    8ac0:	e9c8 2300 	strd	r2, r3, [r8]
    8ac4:	4620      	mov	r0, r4
    8ac6:	4629      	mov	r1, r5
    8ac8:	f7f7 fe9e 	bl	808 <__aeabi_dsub>
    8acc:	a32e      	add	r3, pc, #184	; (adr r3, 8b88 <__ieee754_rem_pio2+0x120>)
    8ace:	e9d3 2300 	ldrd	r2, r3, [r3]
    8ad2:	e016      	b.n	8b02 <__ieee754_rem_pio2+0x9a>
    8ad4:	a32e      	add	r3, pc, #184	; (adr r3, 8b90 <__ieee754_rem_pio2+0x128>)
    8ad6:	e9d3 2300 	ldrd	r2, r3, [r3]
    8ada:	f7f7 fe95 	bl	808 <__aeabi_dsub>
    8ade:	a32e      	add	r3, pc, #184	; (adr r3, 8b98 <__ieee754_rem_pio2+0x130>)
    8ae0:	e9d3 2300 	ldrd	r2, r3, [r3]
    8ae4:	4604      	mov	r4, r0
    8ae6:	460d      	mov	r5, r1
    8ae8:	f7f7 fe8e 	bl	808 <__aeabi_dsub>
    8aec:	4602      	mov	r2, r0
    8aee:	460b      	mov	r3, r1
    8af0:	e9c8 2300 	strd	r2, r3, [r8]
    8af4:	4620      	mov	r0, r4
    8af6:	4629      	mov	r1, r5
    8af8:	f7f7 fe86 	bl	808 <__aeabi_dsub>
    8afc:	a326      	add	r3, pc, #152	; (adr r3, 8b98 <__ieee754_rem_pio2+0x130>)
    8afe:	e9d3 2300 	ldrd	r2, r3, [r3]
    8b02:	f7f7 fe81 	bl	808 <__aeabi_dsub>
    8b06:	f04f 0901 	mov.w	r9, #1
    8b0a:	e9c8 0102 	strd	r0, r1, [r8, #8]
    8b0e:	e1bd      	b.n	8e8c <__ieee754_rem_pio2+0x424>
    8b10:	f7f7 fe7c 	bl	80c <__adddf3>
    8b14:	45b3      	cmp	fp, r6
    8b16:	4604      	mov	r4, r0
    8b18:	460d      	mov	r5, r1
    8b1a:	d010      	beq.n	8b3e <__ieee754_rem_pio2+0xd6>
    8b1c:	a31a      	add	r3, pc, #104	; (adr r3, 8b88 <__ieee754_rem_pio2+0x120>)
    8b1e:	e9d3 2300 	ldrd	r2, r3, [r3]
    8b22:	f7f7 fe73 	bl	80c <__adddf3>
    8b26:	4602      	mov	r2, r0
    8b28:	460b      	mov	r3, r1
    8b2a:	e9c8 2300 	strd	r2, r3, [r8]
    8b2e:	4620      	mov	r0, r4
    8b30:	4629      	mov	r1, r5
    8b32:	f7f7 fe69 	bl	808 <__aeabi_dsub>
    8b36:	a314      	add	r3, pc, #80	; (adr r3, 8b88 <__ieee754_rem_pio2+0x120>)
    8b38:	e9d3 2300 	ldrd	r2, r3, [r3]
    8b3c:	e016      	b.n	8b6c <__ieee754_rem_pio2+0x104>
    8b3e:	a314      	add	r3, pc, #80	; (adr r3, 8b90 <__ieee754_rem_pio2+0x128>)
    8b40:	e9d3 2300 	ldrd	r2, r3, [r3]
    8b44:	f7f7 fe62 	bl	80c <__adddf3>
    8b48:	a313      	add	r3, pc, #76	; (adr r3, 8b98 <__ieee754_rem_pio2+0x130>)
    8b4a:	e9d3 2300 	ldrd	r2, r3, [r3]
    8b4e:	4604      	mov	r4, r0
    8b50:	460d      	mov	r5, r1
    8b52:	f7f7 fe5b 	bl	80c <__adddf3>
    8b56:	4602      	mov	r2, r0
    8b58:	460b      	mov	r3, r1
    8b5a:	e9c8 2300 	strd	r2, r3, [r8]
    8b5e:	4620      	mov	r0, r4
    8b60:	4629      	mov	r1, r5
    8b62:	f7f7 fe51 	bl	808 <__aeabi_dsub>
    8b66:	a30c      	add	r3, pc, #48	; (adr r3, 8b98 <__ieee754_rem_pio2+0x130>)
    8b68:	e9d3 2300 	ldrd	r2, r3, [r3]
    8b6c:	f7f7 fe4e 	bl	80c <__adddf3>
    8b70:	f04f 39ff 	mov.w	r9, #4294967295
    8b74:	e9c8 0102 	strd	r0, r1, [r8, #8]
    8b78:	e188      	b.n	8e8c <__ieee754_rem_pio2+0x424>
    8b7a:	bf00      	nop
    8b7c:	f3af 8000 	nop.w
    8b80:	54400000 	.word	0x54400000
    8b84:	3ff921fb 	.word	0x3ff921fb
    8b88:	1a626331 	.word	0x1a626331
    8b8c:	3dd0b461 	.word	0x3dd0b461
    8b90:	1a600000 	.word	0x1a600000
    8b94:	3dd0b461 	.word	0x3dd0b461
    8b98:	2e037073 	.word	0x2e037073
    8b9c:	3ba3198a 	.word	0x3ba3198a
    8ba0:	3fe921fb 	.word	0x3fe921fb
    8ba4:	4002d97b 	.word	0x4002d97b
    8ba8:	3ff921fb 	.word	0x3ff921fb
    8bac:	4ba4      	ldr	r3, [pc, #656]	; (8e40 <__ieee754_rem_pio2+0x3d8>)
    8bae:	459b      	cmp	fp, r3
    8bb0:	f300 80dc 	bgt.w	8d6c <__ieee754_rem_pio2+0x304>
    8bb4:	f021 4700 	bic.w	r7, r1, #2147483648	; 0x80000000
    8bb8:	a393      	add	r3, pc, #588	; (adr r3, 8e08 <__ieee754_rem_pio2+0x3a0>)
    8bba:	e9d3 2300 	ldrd	r2, r3, [r3]
    8bbe:	4639      	mov	r1, r7
    8bc0:	f7f7 ffd6 	bl	b70 <__aeabi_dmul>
    8bc4:	2200      	movs	r2, #0
    8bc6:	4b9f      	ldr	r3, [pc, #636]	; (8e44 <__ieee754_rem_pio2+0x3dc>)
    8bc8:	f7f7 fe20 	bl	80c <__adddf3>
    8bcc:	f7f8 fa6a 	bl	10a4 <__aeabi_d2iz>
    8bd0:	4681      	mov	r9, r0
    8bd2:	f7f7 ff67 	bl	aa4 <__aeabi_i2d>
    8bd6:	a38e      	add	r3, pc, #568	; (adr r3, 8e10 <__ieee754_rem_pio2+0x3a8>)
    8bd8:	e9d3 2300 	ldrd	r2, r3, [r3]
    8bdc:	e9cd 0104 	strd	r0, r1, [sp, #16]
    8be0:	f7f7 ffc6 	bl	b70 <__aeabi_dmul>
    8be4:	4602      	mov	r2, r0
    8be6:	460b      	mov	r3, r1
    8be8:	4628      	mov	r0, r5
    8bea:	4639      	mov	r1, r7
    8bec:	f7f7 fe0c 	bl	808 <__aeabi_dsub>
    8bf0:	a389      	add	r3, pc, #548	; (adr r3, 8e18 <__ieee754_rem_pio2+0x3b0>)
    8bf2:	e9d3 2300 	ldrd	r2, r3, [r3]
    8bf6:	4604      	mov	r4, r0
    8bf8:	460d      	mov	r5, r1
    8bfa:	e9dd 0104 	ldrd	r0, r1, [sp, #16]
    8bfe:	f7f7 ffb7 	bl	b70 <__aeabi_dmul>
    8c02:	f1b9 0f1f 	cmp.w	r9, #31
    8c06:	4606      	mov	r6, r0
    8c08:	460f      	mov	r7, r1
    8c0a:	dc06      	bgt.n	8c1a <__ieee754_rem_pio2+0x1b2>
    8c0c:	f109 30ff 	add.w	r0, r9, #4294967295
    8c10:	498d      	ldr	r1, [pc, #564]	; (8e48 <__ieee754_rem_pio2+0x3e0>)
    8c12:	f851 3020 	ldr.w	r3, [r1, r0, lsl #2]
    8c16:	459b      	cmp	fp, r3
    8c18:	d176      	bne.n	8d08 <__ieee754_rem_pio2+0x2a0>
    8c1a:	4632      	mov	r2, r6
    8c1c:	4620      	mov	r0, r4
    8c1e:	4629      	mov	r1, r5
    8c20:	463b      	mov	r3, r7
    8c22:	f7f7 fdf1 	bl	808 <__aeabi_dsub>
    8c26:	e9c8 0100 	strd	r0, r1, [r8]
    8c2a:	f8d8 2004 	ldr.w	r2, [r8, #4]
    8c2e:	ea4f 5b2b 	mov.w	fp, fp, asr #20
    8c32:	f3c2 500a 	ubfx	r0, r2, #20, #11
    8c36:	ebc0 010b 	rsb	r1, r0, fp
    8c3a:	2910      	cmp	r1, #16
    8c3c:	dd6f      	ble.n	8d1e <__ieee754_rem_pio2+0x2b6>
    8c3e:	a378      	add	r3, pc, #480	; (adr r3, 8e20 <__ieee754_rem_pio2+0x3b8>)
    8c40:	e9d3 2300 	ldrd	r2, r3, [r3]
    8c44:	e9dd 0104 	ldrd	r0, r1, [sp, #16]
    8c48:	f7f7 ff92 	bl	b70 <__aeabi_dmul>
    8c4c:	4606      	mov	r6, r0
    8c4e:	460f      	mov	r7, r1
    8c50:	4632      	mov	r2, r6
    8c52:	463b      	mov	r3, r7
    8c54:	4620      	mov	r0, r4
    8c56:	4629      	mov	r1, r5
    8c58:	f7f7 fdd6 	bl	808 <__aeabi_dsub>
    8c5c:	e9cd 0106 	strd	r0, r1, [sp, #24]
    8c60:	e9dd 2306 	ldrd	r2, r3, [sp, #24]
    8c64:	4620      	mov	r0, r4
    8c66:	4629      	mov	r1, r5
    8c68:	f7f7 fdce 	bl	808 <__aeabi_dsub>
    8c6c:	4632      	mov	r2, r6
    8c6e:	463b      	mov	r3, r7
    8c70:	f7f7 fdca 	bl	808 <__aeabi_dsub>
    8c74:	a36c      	add	r3, pc, #432	; (adr r3, 8e28 <__ieee754_rem_pio2+0x3c0>)
    8c76:	e9d3 2300 	ldrd	r2, r3, [r3]
    8c7a:	4604      	mov	r4, r0
    8c7c:	460d      	mov	r5, r1
    8c7e:	e9dd 0104 	ldrd	r0, r1, [sp, #16]
    8c82:	f7f7 ff75 	bl	b70 <__aeabi_dmul>
    8c86:	4622      	mov	r2, r4
    8c88:	462b      	mov	r3, r5
    8c8a:	f7f7 fdbd 	bl	808 <__aeabi_dsub>
    8c8e:	4606      	mov	r6, r0
    8c90:	460f      	mov	r7, r1
    8c92:	4632      	mov	r2, r6
    8c94:	463b      	mov	r3, r7
    8c96:	e9dd 0106 	ldrd	r0, r1, [sp, #24]
    8c9a:	f7f7 fdb5 	bl	808 <__aeabi_dsub>
    8c9e:	e9c8 0100 	strd	r0, r1, [r8]
    8ca2:	f8d8 3004 	ldr.w	r3, [r8, #4]
    8ca6:	f3c3 520a 	ubfx	r2, r3, #20, #11
    8caa:	ebc2 0c0b 	rsb	ip, r2, fp
    8cae:	f1bc 0f31 	cmp.w	ip, #49	; 0x31
    8cb2:	dd32      	ble.n	8d1a <__ieee754_rem_pio2+0x2b2>
    8cb4:	a35e      	add	r3, pc, #376	; (adr r3, 8e30 <__ieee754_rem_pio2+0x3c8>)
    8cb6:	e9d3 2300 	ldrd	r2, r3, [r3]
    8cba:	e9dd 0104 	ldrd	r0, r1, [sp, #16]
    8cbe:	f7f7 ff57 	bl	b70 <__aeabi_dmul>
    8cc2:	4606      	mov	r6, r0
    8cc4:	460f      	mov	r7, r1
    8cc6:	4632      	mov	r2, r6
    8cc8:	463b      	mov	r3, r7
    8cca:	e9dd 0106 	ldrd	r0, r1, [sp, #24]
    8cce:	f7f7 fd9b 	bl	808 <__aeabi_dsub>
    8cd2:	4604      	mov	r4, r0
    8cd4:	460d      	mov	r5, r1
    8cd6:	4622      	mov	r2, r4
    8cd8:	462b      	mov	r3, r5
    8cda:	e9dd 0106 	ldrd	r0, r1, [sp, #24]
    8cde:	f7f7 fd93 	bl	808 <__aeabi_dsub>
    8ce2:	4632      	mov	r2, r6
    8ce4:	463b      	mov	r3, r7
    8ce6:	f7f7 fd8f 	bl	808 <__aeabi_dsub>
    8cea:	a353      	add	r3, pc, #332	; (adr r3, 8e38 <__ieee754_rem_pio2+0x3d0>)
    8cec:	e9d3 2300 	ldrd	r2, r3, [r3]
    8cf0:	4606      	mov	r6, r0
    8cf2:	460f      	mov	r7, r1
    8cf4:	e9dd 0104 	ldrd	r0, r1, [sp, #16]
    8cf8:	f7f7 ff3a 	bl	b70 <__aeabi_dmul>
    8cfc:	4632      	mov	r2, r6
    8cfe:	463b      	mov	r3, r7
    8d00:	f7f7 fd82 	bl	808 <__aeabi_dsub>
    8d04:	4606      	mov	r6, r0
    8d06:	460f      	mov	r7, r1
    8d08:	4620      	mov	r0, r4
    8d0a:	4629      	mov	r1, r5
    8d0c:	4632      	mov	r2, r6
    8d0e:	463b      	mov	r3, r7
    8d10:	f7f7 fd7a 	bl	808 <__aeabi_dsub>
    8d14:	e9c8 0100 	strd	r0, r1, [r8]
    8d18:	e001      	b.n	8d1e <__ieee754_rem_pio2+0x2b6>
    8d1a:	e9dd 4506 	ldrd	r4, r5, [sp, #24]
    8d1e:	f8d8 e000 	ldr.w	lr, [r8]
    8d22:	f8d8 b004 	ldr.w	fp, [r8, #4]
    8d26:	f8cd e00c 	str.w	lr, [sp, #12]
    8d2a:	4672      	mov	r2, lr
    8d2c:	465b      	mov	r3, fp
    8d2e:	4620      	mov	r0, r4
    8d30:	4629      	mov	r1, r5
    8d32:	f7f7 fd69 	bl	808 <__aeabi_dsub>
    8d36:	4632      	mov	r2, r6
    8d38:	463b      	mov	r3, r7
    8d3a:	f7f7 fd65 	bl	808 <__aeabi_dsub>
    8d3e:	f1ba 0f00 	cmp.w	sl, #0
    8d42:	4602      	mov	r2, r0
    8d44:	460b      	mov	r3, r1
    8d46:	e9c8 2302 	strd	r2, r3, [r8, #8]
    8d4a:	f8dd c00c 	ldr.w	ip, [sp, #12]
    8d4e:	f280 809d 	bge.w	8e8c <__ieee754_rem_pio2+0x424>
    8d52:	f10b 4300 	add.w	r3, fp, #2147483648	; 0x80000000
    8d56:	f8c8 0008 	str.w	r0, [r8, #8]
    8d5a:	f101 4000 	add.w	r0, r1, #2147483648	; 0x80000000
    8d5e:	f8c8 c000 	str.w	ip, [r8]
    8d62:	f8c8 3004 	str.w	r3, [r8, #4]
    8d66:	f8c8 000c 	str.w	r0, [r8, #12]
    8d6a:	e08d      	b.n	8e88 <__ieee754_rem_pio2+0x420>
    8d6c:	4a37      	ldr	r2, [pc, #220]	; (8e4c <__ieee754_rem_pio2+0x3e4>)
    8d6e:	4593      	cmp	fp, r2
    8d70:	dd0a      	ble.n	8d88 <__ieee754_rem_pio2+0x320>
    8d72:	4602      	mov	r2, r0
    8d74:	460b      	mov	r3, r1
    8d76:	f7f7 fd47 	bl	808 <__aeabi_dsub>
    8d7a:	e9c8 0102 	strd	r0, r1, [r8, #8]
    8d7e:	e9c8 0100 	strd	r0, r1, [r8]
    8d82:	f04f 0900 	mov.w	r9, #0
    8d86:	e081      	b.n	8e8c <__ieee754_rem_pio2+0x424>
    8d88:	ea4f 562b 	mov.w	r6, fp, asr #20
    8d8c:	f2a6 4616 	subw	r6, r6, #1046	; 0x416
    8d90:	9008      	str	r0, [sp, #32]
    8d92:	0530      	lsls	r0, r6, #20
    8d94:	ebc0 010b 	rsb	r1, r0, fp
    8d98:	9109      	str	r1, [sp, #36]	; 0x24
    8d9a:	e9dd 4508 	ldrd	r4, r5, [sp, #32]
    8d9e:	4629      	mov	r1, r5
    8da0:	4620      	mov	r0, r4
    8da2:	f7f8 f97f 	bl	10a4 <__aeabi_d2iz>
    8da6:	f7f7 fe7d 	bl	aa4 <__aeabi_i2d>
    8daa:	4602      	mov	r2, r0
    8dac:	460b      	mov	r3, r1
    8dae:	4620      	mov	r0, r4
    8db0:	4629      	mov	r1, r5
    8db2:	e9cd 230a 	strd	r2, r3, [sp, #40]	; 0x28
    8db6:	f7f7 fd27 	bl	808 <__aeabi_dsub>
    8dba:	2200      	movs	r2, #0
    8dbc:	4b24      	ldr	r3, [pc, #144]	; (8e50 <__ieee754_rem_pio2+0x3e8>)
    8dbe:	f7f7 fed7 	bl	b70 <__aeabi_dmul>
    8dc2:	460d      	mov	r5, r1
    8dc4:	4604      	mov	r4, r0
    8dc6:	f7f8 f96d 	bl	10a4 <__aeabi_d2iz>
    8dca:	f7f7 fe6b 	bl	aa4 <__aeabi_i2d>
    8dce:	4602      	mov	r2, r0
    8dd0:	460b      	mov	r3, r1
    8dd2:	4620      	mov	r0, r4
    8dd4:	4629      	mov	r1, r5
    8dd6:	e9cd 230c 	strd	r2, r3, [sp, #48]	; 0x30
    8dda:	f7f7 fd15 	bl	808 <__aeabi_dsub>
    8dde:	2200      	movs	r2, #0
    8de0:	4b1b      	ldr	r3, [pc, #108]	; (8e50 <__ieee754_rem_pio2+0x3e8>)
    8de2:	f7f7 fec5 	bl	b70 <__aeabi_dmul>
    8de6:	e9cd 0108 	strd	r0, r1, [sp, #32]
    8dea:	e9cd 010e 	strd	r0, r1, [sp, #56]	; 0x38
    8dee:	ad10      	add	r5, sp, #64	; 0x40
    8df0:	2403      	movs	r4, #3
    8df2:	e975 0102 	ldrd	r0, r1, [r5, #-8]!
    8df6:	2200      	movs	r2, #0
    8df8:	2300      	movs	r3, #0
    8dfa:	f7f8 f921 	bl	1040 <__aeabi_dcmpeq>
    8dfe:	b348      	cbz	r0, 8e54 <__ieee754_rem_pio2+0x3ec>
    8e00:	3c01      	subs	r4, #1
    8e02:	e7f6      	b.n	8df2 <__ieee754_rem_pio2+0x38a>
    8e04:	f3af 8000 	nop.w
    8e08:	6dc9c883 	.word	0x6dc9c883
    8e0c:	3fe45f30 	.word	0x3fe45f30
    8e10:	54400000 	.word	0x54400000
    8e14:	3ff921fb 	.word	0x3ff921fb
    8e18:	1a626331 	.word	0x1a626331
    8e1c:	3dd0b461 	.word	0x3dd0b461
    8e20:	1a600000 	.word	0x1a600000
    8e24:	3dd0b461 	.word	0x3dd0b461
    8e28:	2e037073 	.word	0x2e037073
    8e2c:	3ba3198a 	.word	0x3ba3198a
    8e30:	2e000000 	.word	0x2e000000
    8e34:	3ba3198a 	.word	0x3ba3198a
    8e38:	252049c1 	.word	0x252049c1
    8e3c:	397b839a 	.word	0x397b839a
    8e40:	413921fb 	.word	0x413921fb
    8e44:	3fe00000 	.word	0x3fe00000
    8e48:	000123c8 	.word	0x000123c8
    8e4c:	7fefffff 	.word	0x7fefffff
    8e50:	41700000 	.word	0x41700000
    8e54:	4a0f      	ldr	r2, [pc, #60]	; (8e94 <__ieee754_rem_pio2+0x42c>)
    8e56:	2302      	movs	r3, #2
    8e58:	9300      	str	r3, [sp, #0]
    8e5a:	9201      	str	r2, [sp, #4]
    8e5c:	a80a      	add	r0, sp, #40	; 0x28
    8e5e:	4641      	mov	r1, r8
    8e60:	4632      	mov	r2, r6
    8e62:	4623      	mov	r3, r4
    8e64:	f000 f9bc 	bl	91e0 <__kernel_rem_pio2>
    8e68:	f1ba 0f00 	cmp.w	sl, #0
    8e6c:	4681      	mov	r9, r0
    8e6e:	da0d      	bge.n	8e8c <__ieee754_rem_pio2+0x424>
    8e70:	f8d8 0004 	ldr.w	r0, [r8, #4]
    8e74:	f8d8 300c 	ldr.w	r3, [r8, #12]
    8e78:	f100 4100 	add.w	r1, r0, #2147483648	; 0x80000000
    8e7c:	f103 4200 	add.w	r2, r3, #2147483648	; 0x80000000
    8e80:	f8c8 1004 	str.w	r1, [r8, #4]
    8e84:	f8c8 200c 	str.w	r2, [r8, #12]
    8e88:	f1c9 0900 	rsb	r9, r9, #0
    8e8c:	4648      	mov	r0, r9
    8e8e:	b011      	add	sp, #68	; 0x44
    8e90:	e8bd 8ff0 	ldmia.w	sp!, {r4, r5, r6, r7, r8, r9, sl, fp, pc}
    8e94:	00012448 	.word	0x00012448

00008e98 <__ieee754_sqrt>:
    8e98:	e92d 43f7 	stmdb	sp!, {r0, r1, r2, r4, r5, r6, r7, r8, r9, lr}
    8e9c:	4d54      	ldr	r5, [pc, #336]	; (8ff0 <__ieee754_sqrt+0x158>)
    8e9e:	f8df 8150 	ldr.w	r8, [pc, #336]	; 8ff0 <__ieee754_sqrt+0x158>
    8ea2:	400d      	ands	r5, r1
    8ea4:	4545      	cmp	r5, r8
    8ea6:	4607      	mov	r7, r0
    8ea8:	460e      	mov	r6, r1
    8eaa:	460c      	mov	r4, r1
    8eac:	460b      	mov	r3, r1
    8eae:	4684      	mov	ip, r0
    8eb0:	4602      	mov	r2, r0
    8eb2:	d10a      	bne.n	8eca <__ieee754_sqrt+0x32>
    8eb4:	f7f7 fe5c 	bl	b70 <__aeabi_dmul>
    8eb8:	4602      	mov	r2, r0
    8eba:	460b      	mov	r3, r1
    8ebc:	4638      	mov	r0, r7
    8ebe:	4631      	mov	r1, r6
    8ec0:	f7f7 fca4 	bl	80c <__adddf3>
    8ec4:	4607      	mov	r7, r0
    8ec6:	460e      	mov	r6, r1
    8ec8:	e08d      	b.n	8fe6 <__ieee754_sqrt+0x14e>
    8eca:	2900      	cmp	r1, #0
    8ecc:	dc0d      	bgt.n	8eea <__ieee754_sqrt+0x52>
    8ece:	f021 4100 	bic.w	r1, r1, #2147483648	; 0x80000000
    8ed2:	ea51 0c0c 	orrs.w	ip, r1, ip
    8ed6:	f000 8086 	beq.w	8fe6 <__ieee754_sqrt+0x14e>
    8eda:	b136      	cbz	r6, 8eea <__ieee754_sqrt+0x52>
    8edc:	4b45      	ldr	r3, [pc, #276]	; (8ff4 <__ieee754_sqrt+0x15c>)
    8ede:	4846      	ldr	r0, [pc, #280]	; (8ff8 <__ieee754_sqrt+0x160>)
    8ee0:	681f      	ldr	r7, [r3, #0]
    8ee2:	2621      	movs	r6, #33	; 0x21
    8ee4:	6006      	str	r6, [r0, #0]
    8ee6:	685e      	ldr	r6, [r3, #4]
    8ee8:	e07d      	b.n	8fe6 <__ieee754_sqrt+0x14e>
    8eea:	0d24      	lsrs	r4, r4, #20
    8eec:	d113      	bne.n	8f16 <__ieee754_sqrt+0x7e>
    8eee:	b91b      	cbnz	r3, 8ef8 <__ieee754_sqrt+0x60>
    8ef0:	0ad3      	lsrs	r3, r2, #11
    8ef2:	3c15      	subs	r4, #21
    8ef4:	0552      	lsls	r2, r2, #21
    8ef6:	e7fa      	b.n	8eee <__ieee754_sqrt+0x56>
    8ef8:	2100      	movs	r1, #0
    8efa:	02de      	lsls	r6, r3, #11
    8efc:	d402      	bmi.n	8f04 <__ieee754_sqrt+0x6c>
    8efe:	005b      	lsls	r3, r3, #1
    8f00:	3101      	adds	r1, #1
    8f02:	e7fa      	b.n	8efa <__ieee754_sqrt+0x62>
    8f04:	f1c1 0520 	rsb	r5, r1, #32
    8f08:	fa22 f605 	lsr.w	r6, r2, r5
    8f0c:	f1c1 0001 	rsb	r0, r1, #1
    8f10:	1824      	adds	r4, r4, r0
    8f12:	4333      	orrs	r3, r6
    8f14:	408a      	lsls	r2, r1
    8f16:	f2a4 37ff 	subw	r7, r4, #1023	; 0x3ff
    8f1a:	f023 437f 	bic.w	r3, r3, #4278190080	; 0xff000000
    8f1e:	f423 0170 	bic.w	r1, r3, #15728640	; 0xf00000
    8f22:	07fd      	lsls	r5, r7, #31
    8f24:	f441 1680 	orr.w	r6, r1, #1048576	; 0x100000
    8f28:	d503      	bpl.n	8f32 <__ieee754_sqrt+0x9a>
    8f2a:	0fd0      	lsrs	r0, r2, #31
    8f2c:	eb00 0646 	add.w	r6, r0, r6, lsl #1
    8f30:	0052      	lsls	r2, r2, #1
    8f32:	0fd5      	lsrs	r5, r2, #31
    8f34:	eb05 0346 	add.w	r3, r5, r6, lsl #1
    8f38:	2500      	movs	r5, #0
    8f3a:	107c      	asrs	r4, r7, #1
    8f3c:	0052      	lsls	r2, r2, #1
    8f3e:	2116      	movs	r1, #22
    8f40:	4628      	mov	r0, r5
    8f42:	f44f 1600 	mov.w	r6, #2097152	; 0x200000
    8f46:	1987      	adds	r7, r0, r6
    8f48:	429f      	cmp	r7, r3
    8f4a:	dc02      	bgt.n	8f52 <__ieee754_sqrt+0xba>
    8f4c:	19b8      	adds	r0, r7, r6
    8f4e:	1bdb      	subs	r3, r3, r7
    8f50:	19ad      	adds	r5, r5, r6
    8f52:	0fd7      	lsrs	r7, r2, #31
    8f54:	0876      	lsrs	r6, r6, #1
    8f56:	0052      	lsls	r2, r2, #1
    8f58:	3901      	subs	r1, #1
    8f5a:	eb07 0343 	add.w	r3, r7, r3, lsl #1
    8f5e:	d1f2      	bne.n	8f46 <__ieee754_sqrt+0xae>
    8f60:	f04f 0c20 	mov.w	ip, #32
    8f64:	4688      	mov	r8, r1
    8f66:	f04f 4600 	mov.w	r6, #2147483648	; 0x80000000
    8f6a:	4298      	cmp	r0, r3
    8f6c:	eb08 0706 	add.w	r7, r8, r6
    8f70:	db02      	blt.n	8f78 <__ieee754_sqrt+0xe0>
    8f72:	d116      	bne.n	8fa2 <__ieee754_sqrt+0x10a>
    8f74:	4297      	cmp	r7, r2
    8f76:	d814      	bhi.n	8fa2 <__ieee754_sqrt+0x10a>
    8f78:	f007 4900 	and.w	r9, r7, #2147483648	; 0x80000000
    8f7c:	f1b9 4f00 	cmp.w	r9, #2147483648	; 0x80000000
    8f80:	eb07 0806 	add.w	r8, r7, r6
    8f84:	d105      	bne.n	8f92 <__ieee754_sqrt+0xfa>
    8f86:	f1b8 0f00 	cmp.w	r8, #0
    8f8a:	db02      	blt.n	8f92 <__ieee754_sqrt+0xfa>
    8f8c:	f100 0901 	add.w	r9, r0, #1
    8f90:	e000      	b.n	8f94 <__ieee754_sqrt+0xfc>
    8f92:	4681      	mov	r9, r0
    8f94:	1a1b      	subs	r3, r3, r0
    8f96:	42ba      	cmp	r2, r7
    8f98:	bf38      	it	cc
    8f9a:	3b01      	subcc	r3, #1
    8f9c:	1bd2      	subs	r2, r2, r7
    8f9e:	1989      	adds	r1, r1, r6
    8fa0:	4648      	mov	r0, r9
    8fa2:	0fd7      	lsrs	r7, r2, #31
    8fa4:	0876      	lsrs	r6, r6, #1
    8fa6:	0052      	lsls	r2, r2, #1
    8fa8:	f1bc 0c01 	subs.w	ip, ip, #1
    8fac:	eb07 0343 	add.w	r3, r7, r3, lsl #1
    8fb0:	d1db      	bne.n	8f6a <__ieee754_sqrt+0xd2>
    8fb2:	4313      	orrs	r3, r2
    8fb4:	d007      	beq.n	8fc6 <__ieee754_sqrt+0x12e>
    8fb6:	1c48      	adds	r0, r1, #1
    8fb8:	d102      	bne.n	8fc0 <__ieee754_sqrt+0x128>
    8fba:	3501      	adds	r5, #1
    8fbc:	4661      	mov	r1, ip
    8fbe:	e002      	b.n	8fc6 <__ieee754_sqrt+0x12e>
    8fc0:	f001 0001 	and.w	r0, r1, #1
    8fc4:	1841      	adds	r1, r0, r1
    8fc6:	0849      	lsrs	r1, r1, #1
    8fc8:	086f      	lsrs	r7, r5, #1
    8fca:	07ea      	lsls	r2, r5, #31
    8fcc:	bf48      	it	mi
    8fce:	f041 4100 	orrmi.w	r1, r1, #2147483648	; 0x80000000
    8fd2:	0524      	lsls	r4, r4, #20
    8fd4:	f104 537f 	add.w	r3, r4, #1069547520	; 0x3fc00000
    8fd8:	f503 1200 	add.w	r2, r3, #2097152	; 0x200000
    8fdc:	19d4      	adds	r4, r2, r7
    8fde:	e88d 0012 	stmia.w	sp, {r1, r4}
    8fe2:	460f      	mov	r7, r1
    8fe4:	4626      	mov	r6, r4
    8fe6:	4638      	mov	r0, r7
    8fe8:	4631      	mov	r1, r6
    8fea:	b003      	add	sp, #12
    8fec:	e8bd 83f0 	ldmia.w	sp!, {r4, r5, r6, r7, r8, r9, pc}
    8ff0:	7ff00000 	.word	0x7ff00000
    8ff4:	1fffe010 	.word	0x1fffe010
    8ff8:	1fffe17c 	.word	0x1fffe17c
    8ffc:	00000000 	.word	0x00000000

00009000 <__kernel_cos>:
    9000:	e92d 4ff0 	stmdb	sp!, {r4, r5, r6, r7, r8, r9, sl, fp, lr}
    9004:	f021 4400 	bic.w	r4, r1, #2147483648	; 0x80000000
    9008:	f1b4 5f79 	cmp.w	r4, #1044381696	; 0x3e400000
    900c:	b087      	sub	sp, #28
    900e:	4681      	mov	r9, r0
    9010:	4688      	mov	r8, r1
    9012:	4692      	mov	sl, r2
    9014:	469b      	mov	fp, r3
    9016:	d204      	bcs.n	9022 <__kernel_cos+0x22>
    9018:	f7f8 f844 	bl	10a4 <__aeabi_d2iz>
    901c:	2800      	cmp	r0, #0
    901e:	f000 80b4 	beq.w	918a <__kernel_cos+0x18a>
    9022:	464a      	mov	r2, r9
    9024:	4643      	mov	r3, r8
    9026:	4648      	mov	r0, r9
    9028:	4641      	mov	r1, r8
    902a:	f7f7 fda1 	bl	b70 <__aeabi_dmul>
    902e:	a35a      	add	r3, pc, #360	; (adr r3, 9198 <__kernel_cos+0x198>)
    9030:	e9d3 2300 	ldrd	r2, r3, [r3]
    9034:	4606      	mov	r6, r0
    9036:	460f      	mov	r7, r1
    9038:	f7f7 fd9a 	bl	b70 <__aeabi_dmul>
    903c:	a358      	add	r3, pc, #352	; (adr r3, 91a0 <__kernel_cos+0x1a0>)
    903e:	e9d3 2300 	ldrd	r2, r3, [r3]
    9042:	f7f7 fbe3 	bl	80c <__adddf3>
    9046:	4602      	mov	r2, r0
    9048:	460b      	mov	r3, r1
    904a:	4630      	mov	r0, r6
    904c:	4639      	mov	r1, r7
    904e:	f7f7 fd8f 	bl	b70 <__aeabi_dmul>
    9052:	a355      	add	r3, pc, #340	; (adr r3, 91a8 <__kernel_cos+0x1a8>)
    9054:	e9d3 2300 	ldrd	r2, r3, [r3]
    9058:	f7f7 fbd6 	bl	808 <__aeabi_dsub>
    905c:	4602      	mov	r2, r0
    905e:	460b      	mov	r3, r1
    9060:	4630      	mov	r0, r6
    9062:	4639      	mov	r1, r7
    9064:	f7f7 fd84 	bl	b70 <__aeabi_dmul>
    9068:	a351      	add	r3, pc, #324	; (adr r3, 91b0 <__kernel_cos+0x1b0>)
    906a:	e9d3 2300 	ldrd	r2, r3, [r3]
    906e:	f7f7 fbcd 	bl	80c <__adddf3>
    9072:	4602      	mov	r2, r0
    9074:	460b      	mov	r3, r1
    9076:	4630      	mov	r0, r6
    9078:	4639      	mov	r1, r7
    907a:	f7f7 fd79 	bl	b70 <__aeabi_dmul>
    907e:	a34e      	add	r3, pc, #312	; (adr r3, 91b8 <__kernel_cos+0x1b8>)
    9080:	e9d3 2300 	ldrd	r2, r3, [r3]
    9084:	f7f7 fbc0 	bl	808 <__aeabi_dsub>
    9088:	4602      	mov	r2, r0
    908a:	460b      	mov	r3, r1
    908c:	4630      	mov	r0, r6
    908e:	4639      	mov	r1, r7
    9090:	f7f7 fd6e 	bl	b70 <__aeabi_dmul>
    9094:	a34a      	add	r3, pc, #296	; (adr r3, 91c0 <__kernel_cos+0x1c0>)
    9096:	e9d3 2300 	ldrd	r2, r3, [r3]
    909a:	f7f7 fbb7 	bl	80c <__adddf3>
    909e:	460b      	mov	r3, r1
    90a0:	4602      	mov	r2, r0
    90a2:	4639      	mov	r1, r7
    90a4:	4630      	mov	r0, r6
    90a6:	f7f7 fd63 	bl	b70 <__aeabi_dmul>
    90aa:	4b47      	ldr	r3, [pc, #284]	; (91c8 <__kernel_cos+0x1c8>)
    90ac:	429c      	cmp	r4, r3
    90ae:	e9cd 0100 	strd	r0, r1, [sp]
    90b2:	d826      	bhi.n	9102 <__kernel_cos+0x102>
    90b4:	4630      	mov	r0, r6
    90b6:	4639      	mov	r1, r7
    90b8:	2200      	movs	r2, #0
    90ba:	4b44      	ldr	r3, [pc, #272]	; (91cc <__kernel_cos+0x1cc>)
    90bc:	f7f7 fd58 	bl	b70 <__aeabi_dmul>
    90c0:	e9dd 2300 	ldrd	r2, r3, [sp]
    90c4:	4604      	mov	r4, r0
    90c6:	460d      	mov	r5, r1
    90c8:	4630      	mov	r0, r6
    90ca:	4639      	mov	r1, r7
    90cc:	f7f7 fd50 	bl	b70 <__aeabi_dmul>
    90d0:	4652      	mov	r2, sl
    90d2:	4606      	mov	r6, r0
    90d4:	460f      	mov	r7, r1
    90d6:	465b      	mov	r3, fp
    90d8:	4648      	mov	r0, r9
    90da:	4641      	mov	r1, r8
    90dc:	f7f7 fd48 	bl	b70 <__aeabi_dmul>
    90e0:	4602      	mov	r2, r0
    90e2:	460b      	mov	r3, r1
    90e4:	4630      	mov	r0, r6
    90e6:	4639      	mov	r1, r7
    90e8:	f7f7 fb8e 	bl	808 <__aeabi_dsub>
    90ec:	4602      	mov	r2, r0
    90ee:	460b      	mov	r3, r1
    90f0:	4620      	mov	r0, r4
    90f2:	4629      	mov	r1, r5
    90f4:	f7f7 fb88 	bl	808 <__aeabi_dsub>
    90f8:	4602      	mov	r2, r0
    90fa:	460b      	mov	r3, r1
    90fc:	2000      	movs	r0, #0
    90fe:	4934      	ldr	r1, [pc, #208]	; (91d0 <__kernel_cos+0x1d0>)
    9100:	e040      	b.n	9184 <__kernel_cos+0x184>
    9102:	4834      	ldr	r0, [pc, #208]	; (91d4 <__kernel_cos+0x1d4>)
    9104:	4284      	cmp	r4, r0
    9106:	d904      	bls.n	9112 <__kernel_cos+0x112>
    9108:	4b33      	ldr	r3, [pc, #204]	; (91d8 <__kernel_cos+0x1d8>)
    910a:	2200      	movs	r2, #0
    910c:	e9cd 2304 	strd	r2, r3, [sp, #16]
    9110:	e004      	b.n	911c <__kernel_cos+0x11c>
    9112:	f5a4 1100 	sub.w	r1, r4, #2097152	; 0x200000
    9116:	2200      	movs	r2, #0
    9118:	9105      	str	r1, [sp, #20]
    911a:	9204      	str	r2, [sp, #16]
    911c:	e9dd 4504 	ldrd	r4, r5, [sp, #16]
    9120:	2000      	movs	r0, #0
    9122:	4622      	mov	r2, r4
    9124:	462b      	mov	r3, r5
    9126:	492a      	ldr	r1, [pc, #168]	; (91d0 <__kernel_cos+0x1d0>)
    9128:	f7f7 fb6e 	bl	808 <__aeabi_dsub>
    912c:	2200      	movs	r2, #0
    912e:	e9cd 0102 	strd	r0, r1, [sp, #8]
    9132:	4b26      	ldr	r3, [pc, #152]	; (91cc <__kernel_cos+0x1cc>)
    9134:	4630      	mov	r0, r6
    9136:	4639      	mov	r1, r7
    9138:	f7f7 fd1a 	bl	b70 <__aeabi_dmul>
    913c:	4622      	mov	r2, r4
    913e:	462b      	mov	r3, r5
    9140:	f7f7 fb62 	bl	808 <__aeabi_dsub>
    9144:	e9dd 2300 	ldrd	r2, r3, [sp]
    9148:	4604      	mov	r4, r0
    914a:	460d      	mov	r5, r1
    914c:	4630      	mov	r0, r6
    914e:	4639      	mov	r1, r7
    9150:	f7f7 fd0e 	bl	b70 <__aeabi_dmul>
    9154:	4652      	mov	r2, sl
    9156:	4606      	mov	r6, r0
    9158:	460f      	mov	r7, r1
    915a:	465b      	mov	r3, fp
    915c:	4648      	mov	r0, r9
    915e:	4641      	mov	r1, r8
    9160:	f7f7 fd06 	bl	b70 <__aeabi_dmul>
    9164:	4602      	mov	r2, r0
    9166:	460b      	mov	r3, r1
    9168:	4630      	mov	r0, r6
    916a:	4639      	mov	r1, r7
    916c:	f7f7 fb4c 	bl	808 <__aeabi_dsub>
    9170:	4602      	mov	r2, r0
    9172:	460b      	mov	r3, r1
    9174:	4620      	mov	r0, r4
    9176:	4629      	mov	r1, r5
    9178:	f7f7 fb46 	bl	808 <__aeabi_dsub>
    917c:	4602      	mov	r2, r0
    917e:	460b      	mov	r3, r1
    9180:	e9dd 0102 	ldrd	r0, r1, [sp, #8]
    9184:	f7f7 fb40 	bl	808 <__aeabi_dsub>
    9188:	e001      	b.n	918e <__kernel_cos+0x18e>
    918a:	4911      	ldr	r1, [pc, #68]	; (91d0 <__kernel_cos+0x1d0>)
    918c:	2000      	movs	r0, #0
    918e:	b007      	add	sp, #28
    9190:	e8bd 8ff0 	ldmia.w	sp!, {r4, r5, r6, r7, r8, r9, sl, fp, pc}
    9194:	f3af 8000 	nop.w
    9198:	be8838d4 	.word	0xbe8838d4
    919c:	bda8fae9 	.word	0xbda8fae9
    91a0:	bdb4b1c4 	.word	0xbdb4b1c4
    91a4:	3e21ee9e 	.word	0x3e21ee9e
    91a8:	809c52ad 	.word	0x809c52ad
    91ac:	3e927e4f 	.word	0x3e927e4f
    91b0:	19cb1590 	.word	0x19cb1590
    91b4:	3efa01a0 	.word	0x3efa01a0
    91b8:	16c15177 	.word	0x16c15177
    91bc:	3f56c16c 	.word	0x3f56c16c
    91c0:	5555554c 	.word	0x5555554c
    91c4:	3fa55555 	.word	0x3fa55555
    91c8:	3fd33332 	.word	0x3fd33332
    91cc:	3fe00000 	.word	0x3fe00000
    91d0:	3ff00000 	.word	0x3ff00000
    91d4:	3fe90000 	.word	0x3fe90000
    91d8:	3fd20000 	.word	0x3fd20000
    91dc:	f3af 8000 	nop.w

000091e0 <__kernel_rem_pio2>:
    91e0:	e92d 4ff0 	stmdb	sp!, {r4, r5, r6, r7, r8, r9, sl, fp, lr}
    91e4:	f5ad 7d1d 	sub.w	sp, sp, #628	; 0x274
    91e8:	1ed7      	subs	r7, r2, #3
    91ea:	930a      	str	r3, [sp, #40]	; 0x28
    91ec:	9ca6      	ldr	r4, [sp, #664]	; 0x298
    91ee:	4bb0      	ldr	r3, [pc, #704]	; (94b0 <__kernel_rem_pio2+0x2d0>)
    91f0:	900b      	str	r0, [sp, #44]	; 0x2c
    91f2:	2518      	movs	r5, #24
    91f4:	f853 0024 	ldr.w	r0, [r3, r4, lsl #2]
    91f8:	9e0a      	ldr	r6, [sp, #40]	; 0x28
    91fa:	9006      	str	r0, [sp, #24]
    91fc:	fb97 f3f5 	sdiv	r3, r7, r5
    9200:	ea23 77e3 	bic.w	r7, r3, r3, asr #31
    9204:	ea6f 0807 	mvn.w	r8, r7
    9208:	fb05 2808 	mla	r8, r5, r8, r2
    920c:	9ca7      	ldr	r4, [sp, #668]	; 0x29c
    920e:	9105      	str	r1, [sp, #20]
    9210:	9a06      	ldr	r2, [sp, #24]
    9212:	1e71      	subs	r1, r6, #1
    9214:	1a7e      	subs	r6, r7, r1
    9216:	eb04 0986 	add.w	r9, r4, r6, lsl #2
    921a:	9102      	str	r1, [sp, #8]
    921c:	eb01 0b02 	add.w	fp, r1, r2
    9220:	ad22      	add	r5, sp, #136	; 0x88
    9222:	2400      	movs	r4, #0
    9224:	455c      	cmp	r4, fp
    9226:	dc0c      	bgt.n	9242 <__kernel_rem_pio2+0x62>
    9228:	42f4      	cmn	r4, r6
    922a:	d404      	bmi.n	9236 <__kernel_rem_pio2+0x56>
    922c:	f859 0024 	ldr.w	r0, [r9, r4, lsl #2]
    9230:	f7f7 fc38 	bl	aa4 <__aeabi_i2d>
    9234:	e001      	b.n	923a <__kernel_rem_pio2+0x5a>
    9236:	2000      	movs	r0, #0
    9238:	2100      	movs	r1, #0
    923a:	e9e5 0102 	strd	r0, r1, [r5, #8]!
    923e:	3401      	adds	r4, #1
    9240:	e7f0      	b.n	9224 <__kernel_rem_pio2+0x44>
    9242:	f50d 7ce4 	add.w	ip, sp, #456	; 0x1c8
    9246:	2600      	movs	r6, #0
    9248:	9806      	ldr	r0, [sp, #24]
    924a:	4286      	cmp	r6, r0
    924c:	dc27      	bgt.n	929e <__kernel_rem_pio2+0xbe>
    924e:	9c0a      	ldr	r4, [sp, #40]	; 0x28
    9250:	980b      	ldr	r0, [sp, #44]	; 0x2c
    9252:	1931      	adds	r1, r6, r4
    9254:	aa24      	add	r2, sp, #144	; 0x90
    9256:	f1a0 0b08 	sub.w	fp, r0, #8
    925a:	eb02 0ac1 	add.w	sl, r2, r1, lsl #3
    925e:	2400      	movs	r4, #0
    9260:	2500      	movs	r5, #0
    9262:	f04f 0900 	mov.w	r9, #0
    9266:	9b02      	ldr	r3, [sp, #8]
    9268:	4599      	cmp	r9, r3
    926a:	dc14      	bgt.n	9296 <__kernel_rem_pio2+0xb6>
    926c:	e9fb 2302 	ldrd	r2, r3, [fp, #8]!
    9270:	e97a 0102 	ldrd	r0, r1, [sl, #-8]!
    9274:	f8cd c004 	str.w	ip, [sp, #4]
    9278:	f7f7 fc7a 	bl	b70 <__aeabi_dmul>
    927c:	4602      	mov	r2, r0
    927e:	460b      	mov	r3, r1
    9280:	4620      	mov	r0, r4
    9282:	4629      	mov	r1, r5
    9284:	f7f7 fac2 	bl	80c <__adddf3>
    9288:	f109 0901 	add.w	r9, r9, #1
    928c:	4604      	mov	r4, r0
    928e:	460d      	mov	r5, r1
    9290:	f8dd c004 	ldr.w	ip, [sp, #4]
    9294:	e7e7      	b.n	9266 <__kernel_rem_pio2+0x86>
    9296:	e9ec 4502 	strd	r4, r5, [ip, #8]!
    929a:	3601      	adds	r6, #1
    929c:	e7d4      	b.n	9248 <__kernel_rem_pio2+0x68>
    929e:	9906      	ldr	r1, [sp, #24]
    92a0:	9ba7      	ldr	r3, [sp, #668]	; 0x29c
    92a2:	f8dd b018 	ldr.w	fp, [sp, #24]
    92a6:	ae10      	add	r6, sp, #64	; 0x40
    92a8:	eb06 0581 	add.w	r5, r6, r1, lsl #2
    92ac:	eb03 0787 	add.w	r7, r3, r7, lsl #2
    92b0:	950c      	str	r5, [sp, #48]	; 0x30
    92b2:	970e      	str	r7, [sp, #56]	; 0x38
    92b4:	ea4f 09cb 	mov.w	r9, fp, lsl #3
    92b8:	aa9c      	add	r2, sp, #624	; 0x270
    92ba:	eb02 0409 	add.w	r4, r2, r9
    92be:	e954 4528 	ldrd	r4, r5, [r4, #-160]	; 0xa0
    92c2:	a874      	add	r0, sp, #464	; 0x1d0
    92c4:	4481      	add	r9, r0
    92c6:	f04f 0a00 	mov.w	sl, #0
    92ca:	ebca 060b 	rsb	r6, sl, fp
    92ce:	2e00      	cmp	r6, #0
    92d0:	4620      	mov	r0, r4
    92d2:	4629      	mov	r1, r5
    92d4:	dd23      	ble.n	931e <__kernel_rem_pio2+0x13e>
    92d6:	2200      	movs	r2, #0
    92d8:	4b76      	ldr	r3, [pc, #472]	; (94b4 <__kernel_rem_pio2+0x2d4>)
    92da:	f7f7 fc49 	bl	b70 <__aeabi_dmul>
    92de:	f7f7 fee1 	bl	10a4 <__aeabi_d2iz>
    92e2:	f7f7 fbdf 	bl	aa4 <__aeabi_i2d>
    92e6:	2200      	movs	r2, #0
    92e8:	4b73      	ldr	r3, [pc, #460]	; (94b8 <__kernel_rem_pio2+0x2d8>)
    92ea:	4606      	mov	r6, r0
    92ec:	460f      	mov	r7, r1
    92ee:	f7f7 fc3f 	bl	b70 <__aeabi_dmul>
    92f2:	4602      	mov	r2, r0
    92f4:	460b      	mov	r3, r1
    92f6:	4620      	mov	r0, r4
    92f8:	4629      	mov	r1, r5
    92fa:	f7f7 fa85 	bl	808 <__aeabi_dsub>
    92fe:	f7f7 fed1 	bl	10a4 <__aeabi_d2iz>
    9302:	ad10      	add	r5, sp, #64	; 0x40
    9304:	4632      	mov	r2, r6
    9306:	f845 002a 	str.w	r0, [r5, sl, lsl #2]
    930a:	463b      	mov	r3, r7
    930c:	e979 0102 	ldrd	r0, r1, [r9, #-8]!
    9310:	f7f7 fa7c 	bl	80c <__adddf3>
    9314:	f10a 0a01 	add.w	sl, sl, #1
    9318:	4604      	mov	r4, r0
    931a:	460d      	mov	r5, r1
    931c:	e7d5      	b.n	92ca <__kernel_rem_pio2+0xea>
    931e:	4642      	mov	r2, r8
    9320:	f000 fbf6 	bl	9b10 <scalbn>
    9324:	2200      	movs	r2, #0
    9326:	f04f 537f 	mov.w	r3, #1069547520	; 0x3fc00000
    932a:	460d      	mov	r5, r1
    932c:	4607      	mov	r7, r0
    932e:	f7f7 fc1f 	bl	b70 <__aeabi_dmul>
    9332:	f000 fb69 	bl	9a08 <floor>
    9336:	2200      	movs	r2, #0
    9338:	4b60      	ldr	r3, [pc, #384]	; (94bc <__kernel_rem_pio2+0x2dc>)
    933a:	f7f7 fc19 	bl	b70 <__aeabi_dmul>
    933e:	4602      	mov	r2, r0
    9340:	460b      	mov	r3, r1
    9342:	4638      	mov	r0, r7
    9344:	4629      	mov	r1, r5
    9346:	f7f7 fa5f 	bl	808 <__aeabi_dsub>
    934a:	4604      	mov	r4, r0
    934c:	460e      	mov	r6, r1
    934e:	f7f7 fea9 	bl	10a4 <__aeabi_d2iz>
    9352:	9008      	str	r0, [sp, #32]
    9354:	f7f7 fba6 	bl	aa4 <__aeabi_i2d>
    9358:	4602      	mov	r2, r0
    935a:	460b      	mov	r3, r1
    935c:	4620      	mov	r0, r4
    935e:	4631      	mov	r1, r6
    9360:	f7f7 fa52 	bl	808 <__aeabi_dsub>
    9364:	f1b8 0f00 	cmp.w	r8, #0
    9368:	4604      	mov	r4, r0
    936a:	460d      	mov	r5, r1
    936c:	dd16      	ble.n	939c <__kernel_rem_pio2+0x1bc>
    936e:	f10b 37ff 	add.w	r7, fp, #4294967295
    9372:	a810      	add	r0, sp, #64	; 0x40
    9374:	f1c8 0318 	rsb	r3, r8, #24
    9378:	f850 1027 	ldr.w	r1, [r0, r7, lsl #2]
    937c:	9e08      	ldr	r6, [sp, #32]
    937e:	fa41 f203 	asr.w	r2, r1, r3
    9382:	18b0      	adds	r0, r6, r2
    9384:	fa02 f303 	lsl.w	r3, r2, r3
    9388:	aa10      	add	r2, sp, #64	; 0x40
    938a:	1ac9      	subs	r1, r1, r3
    938c:	f842 1027 	str.w	r1, [r2, r7, lsl #2]
    9390:	f1c8 0717 	rsb	r7, r8, #23
    9394:	9008      	str	r0, [sp, #32]
    9396:	fa41 fa07 	asr.w	sl, r1, r7
    939a:	e010      	b.n	93be <__kernel_rem_pio2+0x1de>
    939c:	d107      	bne.n	93ae <__kernel_rem_pio2+0x1ce>
    939e:	f10b 33ff 	add.w	r3, fp, #4294967295
    93a2:	a910      	add	r1, sp, #64	; 0x40
    93a4:	f851 2023 	ldr.w	r2, [r1, r3, lsl #2]
    93a8:	ea4f 5ae2 	mov.w	sl, r2, asr #23
    93ac:	e007      	b.n	93be <__kernel_rem_pio2+0x1de>
    93ae:	2200      	movs	r2, #0
    93b0:	4b43      	ldr	r3, [pc, #268]	; (94c0 <__kernel_rem_pio2+0x2e0>)
    93b2:	f7f7 fe63 	bl	107c <__aeabi_dcmpge>
    93b6:	b930      	cbnz	r0, 93c6 <__kernel_rem_pio2+0x1e6>
    93b8:	f04f 0a00 	mov.w	sl, #0
    93bc:	e056      	b.n	946c <__kernel_rem_pio2+0x28c>
    93be:	f1ba 0f00 	cmp.w	sl, #0
    93c2:	dc02      	bgt.n	93ca <__kernel_rem_pio2+0x1ea>
    93c4:	e052      	b.n	946c <__kernel_rem_pio2+0x28c>
    93c6:	f04f 0a02 	mov.w	sl, #2
    93ca:	9e08      	ldr	r6, [sp, #32]
    93cc:	2300      	movs	r3, #0
    93ce:	1c70      	adds	r0, r6, #1
    93d0:	9008      	str	r0, [sp, #32]
    93d2:	af10      	add	r7, sp, #64	; 0x40
    93d4:	461e      	mov	r6, r3
    93d6:	455b      	cmp	r3, fp
    93d8:	da0f      	bge.n	93fa <__kernel_rem_pio2+0x21a>
    93da:	f857 1b04 	ldr.w	r1, [r7], #4
    93de:	b91e      	cbnz	r6, 93e8 <__kernel_rem_pio2+0x208>
    93e0:	b149      	cbz	r1, 93f6 <__kernel_rem_pio2+0x216>
    93e2:	f1c1 7280 	rsb	r2, r1, #16777216	; 0x1000000
    93e6:	e003      	b.n	93f0 <__kernel_rem_pio2+0x210>
    93e8:	f1c1 16ff 	rsb	r6, r1, #16711935	; 0xff00ff
    93ec:	f506 427f 	add.w	r2, r6, #65280	; 0xff00
    93f0:	f847 2c04 	str.w	r2, [r7, #-4]
    93f4:	2601      	movs	r6, #1
    93f6:	3301      	adds	r3, #1
    93f8:	e7ed      	b.n	93d6 <__kernel_rem_pio2+0x1f6>
    93fa:	f1b8 0f00 	cmp.w	r8, #0
    93fe:	dd1c      	ble.n	943a <__kernel_rem_pio2+0x25a>
    9400:	f1b8 0f01 	cmp.w	r8, #1
    9404:	d00e      	beq.n	9424 <__kernel_rem_pio2+0x244>
    9406:	f1b8 0f02 	cmp.w	r8, #2
    940a:	d116      	bne.n	943a <__kernel_rem_pio2+0x25a>
    940c:	f10b 33ff 	add.w	r3, fp, #4294967295
    9410:	a910      	add	r1, sp, #64	; 0x40
    9412:	f851 2023 	ldr.w	r2, [r1, r3, lsl #2]
    9416:	f022 477f 	bic.w	r7, r2, #4278190080	; 0xff000000
    941a:	f427 0040 	bic.w	r0, r7, #12582912	; 0xc00000
    941e:	f841 0023 	str.w	r0, [r1, r3, lsl #2]
    9422:	e00a      	b.n	943a <__kernel_rem_pio2+0x25a>
    9424:	f10b 33ff 	add.w	r3, fp, #4294967295
    9428:	a910      	add	r1, sp, #64	; 0x40
    942a:	f851 2023 	ldr.w	r2, [r1, r3, lsl #2]
    942e:	f022 477f 	bic.w	r7, r2, #4278190080	; 0xff000000
    9432:	f427 0000 	bic.w	r0, r7, #8388608	; 0x800000
    9436:	f841 0023 	str.w	r0, [r1, r3, lsl #2]
    943a:	f1ba 0f02 	cmp.w	sl, #2
    943e:	d115      	bne.n	946c <__kernel_rem_pio2+0x28c>
    9440:	4622      	mov	r2, r4
    9442:	462b      	mov	r3, r5
    9444:	2000      	movs	r0, #0
    9446:	491f      	ldr	r1, [pc, #124]	; (94c4 <__kernel_rem_pio2+0x2e4>)
    9448:	f7f7 f9de 	bl	808 <__aeabi_dsub>
    944c:	4604      	mov	r4, r0
    944e:	460d      	mov	r5, r1
    9450:	b166      	cbz	r6, 946c <__kernel_rem_pio2+0x28c>
    9452:	4642      	mov	r2, r8
    9454:	2000      	movs	r0, #0
    9456:	491b      	ldr	r1, [pc, #108]	; (94c4 <__kernel_rem_pio2+0x2e4>)
    9458:	f000 fb5a 	bl	9b10 <scalbn>
    945c:	4602      	mov	r2, r0
    945e:	460b      	mov	r3, r1
    9460:	4620      	mov	r0, r4
    9462:	4629      	mov	r1, r5
    9464:	f7f7 f9d0 	bl	808 <__aeabi_dsub>
    9468:	4604      	mov	r4, r0
    946a:	460d      	mov	r5, r1
    946c:	4620      	mov	r0, r4
    946e:	4629      	mov	r1, r5
    9470:	2200      	movs	r2, #0
    9472:	2300      	movs	r3, #0
    9474:	f7f7 fde4 	bl	1040 <__aeabi_dcmpeq>
    9478:	2800      	cmp	r0, #0
    947a:	d069      	beq.n	9550 <__kernel_rem_pio2+0x370>
    947c:	f10b 31ff 	add.w	r1, fp, #4294967295
    9480:	465d      	mov	r5, fp
    9482:	2200      	movs	r2, #0
    9484:	9806      	ldr	r0, [sp, #24]
    9486:	3d01      	subs	r5, #1
    9488:	4285      	cmp	r5, r0
    948a:	db04      	blt.n	9496 <__kernel_rem_pio2+0x2b6>
    948c:	a810      	add	r0, sp, #64	; 0x40
    948e:	f850 4025 	ldr.w	r4, [r0, r5, lsl #2]
    9492:	4322      	orrs	r2, r4
    9494:	e7f6      	b.n	9484 <__kernel_rem_pio2+0x2a4>
    9496:	2a00      	cmp	r2, #0
    9498:	f040 81e8 	bne.w	986c <__kernel_rem_pio2+0x68c>
    949c:	2501      	movs	r5, #1
    949e:	f06f 0003 	mvn.w	r0, #3
    94a2:	4368      	muls	r0, r5
    94a4:	9b0c      	ldr	r3, [sp, #48]	; 0x30
    94a6:	581f      	ldr	r7, [r3, r0]
    94a8:	b977      	cbnz	r7, 94c8 <__kernel_rem_pio2+0x2e8>
    94aa:	3501      	adds	r5, #1
    94ac:	e7f7      	b.n	949e <__kernel_rem_pio2+0x2be>
    94ae:	bf00      	nop
    94b0:	00012550 	.word	0x00012550
    94b4:	3e700000 	.word	0x3e700000
    94b8:	41700000 	.word	0x41700000
    94bc:	40200000 	.word	0x40200000
    94c0:	3fe00000 	.word	0x3fe00000
    94c4:	3ff00000 	.word	0x3ff00000
    94c8:	990a      	ldr	r1, [sp, #40]	; 0x28
    94ca:	ae24      	add	r6, sp, #144	; 0x90
    94cc:	eb0b 0201 	add.w	r2, fp, r1
    94d0:	ab74      	add	r3, sp, #464	; 0x1d0
    94d2:	eb06 00c2 	add.w	r0, r6, r2, lsl #3
    94d6:	eb03 07cb 	add.w	r7, r3, fp, lsl #3
    94da:	f10b 0401 	add.w	r4, fp, #1
    94de:	900f      	str	r0, [sp, #60]	; 0x3c
    94e0:	970d      	str	r7, [sp, #52]	; 0x34
    94e2:	2600      	movs	r6, #0
    94e4:	eb0b 0105 	add.w	r1, fp, r5
    94e8:	428c      	cmp	r4, r1
    94ea:	dc2f      	bgt.n	954c <__kernel_rem_pio2+0x36c>
    94ec:	980e      	ldr	r0, [sp, #56]	; 0x38
    94ee:	9a0f      	ldr	r2, [sp, #60]	; 0x3c
    94f0:	f850 0024 	ldr.w	r0, [r0, r4, lsl #2]
    94f4:	eb02 0906 	add.w	r9, r2, r6
    94f8:	f7f7 fad4 	bl	aa4 <__aeabi_i2d>
    94fc:	e9c9 0100 	strd	r0, r1, [r9]
    9500:	2000      	movs	r0, #0
    9502:	2100      	movs	r1, #0
    9504:	9b0b      	ldr	r3, [sp, #44]	; 0x2c
    9506:	e9cd 0108 	strd	r0, r1, [sp, #32]
    950a:	f1a3 0a08 	sub.w	sl, r3, #8
    950e:	2700      	movs	r7, #0
    9510:	9902      	ldr	r1, [sp, #8]
    9512:	428f      	cmp	r7, r1
    9514:	dc11      	bgt.n	953a <__kernel_rem_pio2+0x35a>
    9516:	eba9 03c7 	sub.w	r3, r9, r7, lsl #3
    951a:	e9d3 2300 	ldrd	r2, r3, [r3]
    951e:	e9fa 0102 	ldrd	r0, r1, [sl, #8]!
    9522:	f7f7 fb25 	bl	b70 <__aeabi_dmul>
    9526:	4602      	mov	r2, r0
    9528:	460b      	mov	r3, r1
    952a:	e9dd 0108 	ldrd	r0, r1, [sp, #32]
    952e:	f7f7 f96d 	bl	80c <__adddf3>
    9532:	3701      	adds	r7, #1
    9534:	e9cd 0108 	strd	r0, r1, [sp, #32]
    9538:	e7ea      	b.n	9510 <__kernel_rem_pio2+0x330>
    953a:	9f0d      	ldr	r7, [sp, #52]	; 0x34
    953c:	e9dd 0108 	ldrd	r0, r1, [sp, #32]
    9540:	19ba      	adds	r2, r7, r6
    9542:	e9c2 0102 	strd	r0, r1, [r2, #8]
    9546:	3401      	adds	r4, #1
    9548:	3608      	adds	r6, #8
    954a:	e7cb      	b.n	94e4 <__kernel_rem_pio2+0x304>
    954c:	468b      	mov	fp, r1
    954e:	e6b1      	b.n	92b4 <__kernel_rem_pio2+0xd4>
    9550:	4620      	mov	r0, r4
    9552:	4629      	mov	r1, r5
    9554:	f1c8 0200 	rsb	r2, r8, #0
    9558:	f000 fada 	bl	9b10 <scalbn>
    955c:	2200      	movs	r2, #0
    955e:	4b8f      	ldr	r3, [pc, #572]	; (979c <__kernel_rem_pio2+0x5bc>)
    9560:	4604      	mov	r4, r0
    9562:	460d      	mov	r5, r1
    9564:	f7f7 fd8a 	bl	107c <__aeabi_dcmpge>
    9568:	b330      	cbz	r0, 95b8 <__kernel_rem_pio2+0x3d8>
    956a:	2200      	movs	r2, #0
    956c:	4b8c      	ldr	r3, [pc, #560]	; (97a0 <__kernel_rem_pio2+0x5c0>)
    956e:	4620      	mov	r0, r4
    9570:	4629      	mov	r1, r5
    9572:	f7f7 fafd 	bl	b70 <__aeabi_dmul>
    9576:	f7f7 fd95 	bl	10a4 <__aeabi_d2iz>
    957a:	f7f7 fa93 	bl	aa4 <__aeabi_i2d>
    957e:	2200      	movs	r2, #0
    9580:	4b86      	ldr	r3, [pc, #536]	; (979c <__kernel_rem_pio2+0x5bc>)
    9582:	4606      	mov	r6, r0
    9584:	460f      	mov	r7, r1
    9586:	f7f7 faf3 	bl	b70 <__aeabi_dmul>
    958a:	4602      	mov	r2, r0
    958c:	460b      	mov	r3, r1
    958e:	4620      	mov	r0, r4
    9590:	4629      	mov	r1, r5
    9592:	f7f7 f939 	bl	808 <__aeabi_dsub>
    9596:	f7f7 fd85 	bl	10a4 <__aeabi_d2iz>
    959a:	ab10      	add	r3, sp, #64	; 0x40
    959c:	4639      	mov	r1, r7
    959e:	f843 002b 	str.w	r0, [r3, fp, lsl #2]
    95a2:	4630      	mov	r0, r6
    95a4:	f7f7 fd7e 	bl	10a4 <__aeabi_d2iz>
    95a8:	f10b 0b01 	add.w	fp, fp, #1
    95ac:	a910      	add	r1, sp, #64	; 0x40
    95ae:	f108 0818 	add.w	r8, r8, #24
    95b2:	f841 002b 	str.w	r0, [r1, fp, lsl #2]
    95b6:	e006      	b.n	95c6 <__kernel_rem_pio2+0x3e6>
    95b8:	4620      	mov	r0, r4
    95ba:	4629      	mov	r1, r5
    95bc:	f7f7 fd72 	bl	10a4 <__aeabi_d2iz>
    95c0:	ae10      	add	r6, sp, #64	; 0x40
    95c2:	f846 002b 	str.w	r0, [r6, fp, lsl #2]
    95c6:	4642      	mov	r2, r8
    95c8:	2000      	movs	r0, #0
    95ca:	4976      	ldr	r1, [pc, #472]	; (97a4 <__kernel_rem_pio2+0x5c4>)
    95cc:	f000 faa0 	bl	9b10 <scalbn>
    95d0:	ae10      	add	r6, sp, #64	; 0x40
    95d2:	ea4f 09cb 	mov.w	r9, fp, lsl #3
    95d6:	ab74      	add	r3, sp, #464	; 0x1d0
    95d8:	eb06 078b 	add.w	r7, r6, fp, lsl #2
    95dc:	4604      	mov	r4, r0
    95de:	460d      	mov	r5, r1
    95e0:	eb03 0809 	add.w	r8, r3, r9
    95e4:	2600      	movs	r6, #0
    95e6:	eb16 0f0b 	cmn.w	r6, fp
    95ea:	d419      	bmi.n	9620 <__kernel_rem_pio2+0x440>
    95ec:	eb08 01c6 	add.w	r1, r8, r6, lsl #3
    95f0:	f857 0026 	ldr.w	r0, [r7, r6, lsl #2]
    95f4:	9102      	str	r1, [sp, #8]
    95f6:	f7f7 fa55 	bl	aa4 <__aeabi_i2d>
    95fa:	4602      	mov	r2, r0
    95fc:	460b      	mov	r3, r1
    95fe:	4620      	mov	r0, r4
    9600:	4629      	mov	r1, r5
    9602:	f7f7 fab5 	bl	b70 <__aeabi_dmul>
    9606:	9a02      	ldr	r2, [sp, #8]
    9608:	4b65      	ldr	r3, [pc, #404]	; (97a0 <__kernel_rem_pio2+0x5c0>)
    960a:	e9c2 0100 	strd	r0, r1, [r2]
    960e:	4620      	mov	r0, r4
    9610:	4629      	mov	r1, r5
    9612:	2200      	movs	r2, #0
    9614:	f7f7 faac 	bl	b70 <__aeabi_dmul>
    9618:	3e01      	subs	r6, #1
    961a:	4604      	mov	r4, r0
    961c:	460d      	mov	r5, r1
    961e:	e7e2      	b.n	95e6 <__kernel_rem_pio2+0x406>
    9620:	a974      	add	r1, sp, #464	; 0x1d0
    9622:	af4a      	add	r7, sp, #296	; 0x128
    9624:	4489      	add	r9, r1
    9626:	2500      	movs	r5, #0
    9628:	ebc5 000b 	rsb	r0, r5, fp
    962c:	2800      	cmp	r0, #0
    962e:	db26      	blt.n	967e <__kernel_rem_pio2+0x49e>
    9630:	2000      	movs	r0, #0
    9632:	2100      	movs	r1, #0
    9634:	e9cd 0102 	strd	r0, r1, [sp, #8]
    9638:	ea4f 0cc5 	mov.w	ip, r5, lsl #3
    963c:	4e5a      	ldr	r6, [pc, #360]	; (97a8 <__kernel_rem_pio2+0x5c8>)
    963e:	ebcc 0809 	rsb	r8, ip, r9
    9642:	2400      	movs	r4, #0
    9644:	9a06      	ldr	r2, [sp, #24]
    9646:	4294      	cmp	r4, r2
    9648:	dd05      	ble.n	9656 <__kernel_rem_pio2+0x476>
    964a:	e9dd 0102 	ldrd	r0, r1, [sp, #8]
    964e:	3501      	adds	r5, #1
    9650:	e9e7 0102 	strd	r0, r1, [r7, #8]!
    9654:	e7e8      	b.n	9628 <__kernel_rem_pio2+0x448>
    9656:	42ac      	cmp	r4, r5
    9658:	dcf7      	bgt.n	964a <__kernel_rem_pio2+0x46a>
    965a:	eb08 03c4 	add.w	r3, r8, r4, lsl #3
    965e:	e9d3 2300 	ldrd	r2, r3, [r3]
    9662:	e9f6 0102 	ldrd	r0, r1, [r6, #8]!
    9666:	f7f7 fa83 	bl	b70 <__aeabi_dmul>
    966a:	4602      	mov	r2, r0
    966c:	460b      	mov	r3, r1
    966e:	e9dd 0102 	ldrd	r0, r1, [sp, #8]
    9672:	f7f7 f8cb 	bl	80c <__adddf3>
    9676:	3401      	adds	r4, #1
    9678:	e9cd 0102 	strd	r0, r1, [sp, #8]
    967c:	e7e2      	b.n	9644 <__kernel_rem_pio2+0x464>
    967e:	9aa6      	ldr	r2, [sp, #664]	; 0x298
    9680:	2a03      	cmp	r2, #3
    9682:	f200 80ec 	bhi.w	985e <__kernel_rem_pio2+0x67e>
    9686:	e8df f002 	tbb	[pc, r2]
    968a:	0206      	.short	0x0206
    968c:	0a02      	.short	0x0a02
    968e:	2400      	movs	r4, #0
    9690:	465d      	mov	r5, fp
    9692:	4621      	mov	r1, r4
    9694:	e023      	b.n	96de <__kernel_rem_pio2+0x4fe>
    9696:	2600      	movs	r6, #0
    9698:	465d      	mov	r5, fp
    969a:	4634      	mov	r4, r6
    969c:	e005      	b.n	96aa <__kernel_rem_pio2+0x4ca>
    969e:	ad4c      	add	r5, sp, #304	; 0x130
    96a0:	eb05 04cb 	add.w	r4, r5, fp, lsl #3
    96a4:	4626      	mov	r6, r4
    96a6:	465d      	mov	r5, fp
    96a8:	e055      	b.n	9756 <__kernel_rem_pio2+0x576>
    96aa:	2d00      	cmp	r5, #0
    96ac:	db0c      	blt.n	96c8 <__kernel_rem_pio2+0x4e8>
    96ae:	a94c      	add	r1, sp, #304	; 0x130
    96b0:	eb01 03c5 	add.w	r3, r1, r5, lsl #3
    96b4:	4630      	mov	r0, r6
    96b6:	4621      	mov	r1, r4
    96b8:	e9d3 2300 	ldrd	r2, r3, [r3]
    96bc:	f7f7 f8a6 	bl	80c <__adddf3>
    96c0:	3d01      	subs	r5, #1
    96c2:	4606      	mov	r6, r0
    96c4:	460c      	mov	r4, r1
    96c6:	e7f0      	b.n	96aa <__kernel_rem_pio2+0x4ca>
    96c8:	f1ba 0f00 	cmp.w	sl, #0
    96cc:	d001      	beq.n	96d2 <__kernel_rem_pio2+0x4f2>
    96ce:	f104 4400 	add.w	r4, r4, #2147483648	; 0x80000000
    96d2:	9805      	ldr	r0, [sp, #20]
    96d4:	4632      	mov	r2, r6
    96d6:	4623      	mov	r3, r4
    96d8:	e9c0 2300 	strd	r2, r3, [r0]
    96dc:	e0bf      	b.n	985e <__kernel_rem_pio2+0x67e>
    96de:	2d00      	cmp	r5, #0
    96e0:	db0a      	blt.n	96f8 <__kernel_rem_pio2+0x518>
    96e2:	ae4c      	add	r6, sp, #304	; 0x130
    96e4:	eb06 02c5 	add.w	r2, r6, r5, lsl #3
    96e8:	4620      	mov	r0, r4
    96ea:	e9d2 2300 	ldrd	r2, r3, [r2]
    96ee:	f7f7 f88d 	bl	80c <__adddf3>
    96f2:	3d01      	subs	r5, #1
    96f4:	4604      	mov	r4, r0
    96f6:	e7f2      	b.n	96de <__kernel_rem_pio2+0x4fe>
    96f8:	460d      	mov	r5, r1
    96fa:	f1ba 0f00 	cmp.w	sl, #0
    96fe:	d001      	beq.n	9704 <__kernel_rem_pio2+0x524>
    9700:	f101 4100 	add.w	r1, r1, #2147483648	; 0x80000000
    9704:	9805      	ldr	r0, [sp, #20]
    9706:	4622      	mov	r2, r4
    9708:	460b      	mov	r3, r1
    970a:	e9c0 2300 	strd	r2, r3, [r0]
    970e:	ab4c      	add	r3, sp, #304	; 0x130
    9710:	e9d3 0100 	ldrd	r0, r1, [r3]
    9714:	4622      	mov	r2, r4
    9716:	462b      	mov	r3, r5
    9718:	f7f7 f876 	bl	808 <__aeabi_dsub>
    971c:	2501      	movs	r5, #1
    971e:	4606      	mov	r6, r0
    9720:	460c      	mov	r4, r1
    9722:	455d      	cmp	r5, fp
    9724:	dc0c      	bgt.n	9740 <__kernel_rem_pio2+0x560>
    9726:	aa4c      	add	r2, sp, #304	; 0x130
    9728:	eb02 03c5 	add.w	r3, r2, r5, lsl #3
    972c:	4630      	mov	r0, r6
    972e:	4621      	mov	r1, r4
    9730:	e9d3 2300 	ldrd	r2, r3, [r3]
    9734:	f7f7 f86a 	bl	80c <__adddf3>
    9738:	3501      	adds	r5, #1
    973a:	4606      	mov	r6, r0
    973c:	460c      	mov	r4, r1
    973e:	e7f0      	b.n	9722 <__kernel_rem_pio2+0x542>
    9740:	f1ba 0f00 	cmp.w	sl, #0
    9744:	d001      	beq.n	974a <__kernel_rem_pio2+0x56a>
    9746:	f104 4400 	add.w	r4, r4, #2147483648	; 0x80000000
    974a:	9905      	ldr	r1, [sp, #20]
    974c:	4632      	mov	r2, r6
    974e:	4623      	mov	r3, r4
    9750:	e9c1 2302 	strd	r2, r3, [r1, #8]
    9754:	e083      	b.n	985e <__kernel_rem_pio2+0x67e>
    9756:	2d00      	cmp	r5, #0
    9758:	dd28      	ble.n	97ac <__kernel_rem_pio2+0x5cc>
    975a:	e9d6 8900 	ldrd	r8, r9, [r6]
    975e:	e956 0102 	ldrd	r0, r1, [r6, #-8]
    9762:	4642      	mov	r2, r8
    9764:	464b      	mov	r3, r9
    9766:	e9cd 0106 	strd	r0, r1, [sp, #24]
    976a:	f7f7 f84f 	bl	80c <__adddf3>
    976e:	e9cd 0102 	strd	r0, r1, [sp, #8]
    9772:	e9dd 2302 	ldrd	r2, r3, [sp, #8]
    9776:	e9dd 0106 	ldrd	r0, r1, [sp, #24]
    977a:	f7f7 f845 	bl	808 <__aeabi_dsub>
    977e:	4602      	mov	r2, r0
    9780:	460b      	mov	r3, r1
    9782:	4640      	mov	r0, r8
    9784:	4649      	mov	r1, r9
    9786:	f7f7 f841 	bl	80c <__adddf3>
    978a:	e9dd 2302 	ldrd	r2, r3, [sp, #8]
    978e:	e9c6 0100 	strd	r0, r1, [r6]
    9792:	3d01      	subs	r5, #1
    9794:	e966 2302 	strd	r2, r3, [r6, #-8]!
    9798:	e7dd      	b.n	9756 <__kernel_rem_pio2+0x576>
    979a:	bf00      	nop
    979c:	41700000 	.word	0x41700000
    97a0:	3e700000 	.word	0x3e700000
    97a4:	3ff00000 	.word	0x3ff00000
    97a8:	00012558 	.word	0x00012558
    97ac:	465d      	mov	r5, fp
    97ae:	2d01      	cmp	r5, #1
    97b0:	dd1f      	ble.n	97f2 <__kernel_rem_pio2+0x612>
    97b2:	e9d4 6700 	ldrd	r6, r7, [r4]
    97b6:	e954 8902 	ldrd	r8, r9, [r4, #-8]
    97ba:	4632      	mov	r2, r6
    97bc:	463b      	mov	r3, r7
    97be:	4640      	mov	r0, r8
    97c0:	4649      	mov	r1, r9
    97c2:	f7f7 f823 	bl	80c <__adddf3>
    97c6:	e9cd 0106 	strd	r0, r1, [sp, #24]
    97ca:	e9dd 2306 	ldrd	r2, r3, [sp, #24]
    97ce:	4640      	mov	r0, r8
    97d0:	4649      	mov	r1, r9
    97d2:	f7f7 f819 	bl	808 <__aeabi_dsub>
    97d6:	4602      	mov	r2, r0
    97d8:	460b      	mov	r3, r1
    97da:	4630      	mov	r0, r6
    97dc:	4639      	mov	r1, r7
    97de:	f7f7 f815 	bl	80c <__adddf3>
    97e2:	e9c4 0100 	strd	r0, r1, [r4]
    97e6:	e9dd 0106 	ldrd	r0, r1, [sp, #24]
    97ea:	3d01      	subs	r5, #1
    97ec:	e964 0102 	strd	r0, r1, [r4, #-8]!
    97f0:	e7dd      	b.n	97ae <__kernel_rem_pio2+0x5ce>
    97f2:	2400      	movs	r4, #0
    97f4:	465e      	mov	r6, fp
    97f6:	4625      	mov	r5, r4
    97f8:	2e01      	cmp	r6, #1
    97fa:	dd0c      	ble.n	9816 <__kernel_rem_pio2+0x636>
    97fc:	ab4c      	add	r3, sp, #304	; 0x130
    97fe:	eb03 02c6 	add.w	r2, r3, r6, lsl #3
    9802:	4620      	mov	r0, r4
    9804:	4629      	mov	r1, r5
    9806:	e9d2 2300 	ldrd	r2, r3, [r2]
    980a:	f7f6 ffff 	bl	80c <__adddf3>
    980e:	3e01      	subs	r6, #1
    9810:	4604      	mov	r4, r0
    9812:	460d      	mov	r5, r1
    9814:	e7f0      	b.n	97f8 <__kernel_rem_pio2+0x618>
    9816:	f1ba 0f00 	cmp.w	sl, #0
    981a:	d10f      	bne.n	983c <__kernel_rem_pio2+0x65c>
    981c:	ae4c      	add	r6, sp, #304	; 0x130
    981e:	e9d6 0100 	ldrd	r0, r1, [r6]
    9822:	9e05      	ldr	r6, [sp, #20]
    9824:	aa4e      	add	r2, sp, #312	; 0x138
    9826:	e9c6 0100 	strd	r0, r1, [r6]
    982a:	e9d2 0100 	ldrd	r0, r1, [r2]
    982e:	462b      	mov	r3, r5
    9830:	4622      	mov	r2, r4
    9832:	e9c6 0102 	strd	r0, r1, [r6, #8]
    9836:	e9c6 2304 	strd	r2, r3, [r6, #16]
    983a:	e010      	b.n	985e <__kernel_rem_pio2+0x67e>
    983c:	9e05      	ldr	r6, [sp, #20]
    983e:	9b4c      	ldr	r3, [sp, #304]	; 0x130
    9840:	994d      	ldr	r1, [sp, #308]	; 0x134
    9842:	6033      	str	r3, [r6, #0]
    9844:	9b4f      	ldr	r3, [sp, #316]	; 0x13c
    9846:	9a4e      	ldr	r2, [sp, #312]	; 0x138
    9848:	6134      	str	r4, [r6, #16]
    984a:	f101 4000 	add.w	r0, r1, #2147483648	; 0x80000000
    984e:	f105 4500 	add.w	r5, r5, #2147483648	; 0x80000000
    9852:	f103 4100 	add.w	r1, r3, #2147483648	; 0x80000000
    9856:	6070      	str	r0, [r6, #4]
    9858:	60b2      	str	r2, [r6, #8]
    985a:	60f1      	str	r1, [r6, #12]
    985c:	6175      	str	r5, [r6, #20]
    985e:	9c08      	ldr	r4, [sp, #32]
    9860:	f004 0007 	and.w	r0, r4, #7
    9864:	f50d 7d1d 	add.w	sp, sp, #628	; 0x274
    9868:	e8bd 8ff0 	ldmia.w	sp!, {r4, r5, r6, r7, r8, r9, sl, fp, pc}
    986c:	f1a8 0818 	sub.w	r8, r8, #24
    9870:	468b      	mov	fp, r1
    9872:	aa10      	add	r2, sp, #64	; 0x40
    9874:	f852 402b 	ldr.w	r4, [r2, fp, lsl #2]
    9878:	2c00      	cmp	r4, #0
    987a:	f47f aea4 	bne.w	95c6 <__kernel_rem_pio2+0x3e6>
    987e:	f10b 3bff 	add.w	fp, fp, #4294967295
    9882:	f1a8 0818 	sub.w	r8, r8, #24
    9886:	e7f4      	b.n	9872 <__kernel_rem_pio2+0x692>

00009888 <__kernel_sin>:
    9888:	e92d 4ff0 	stmdb	sp!, {r4, r5, r6, r7, r8, r9, sl, fp, lr}
    988c:	b085      	sub	sp, #20
    988e:	e9cd 2300 	strd	r2, r3, [sp]
    9892:	f021 4200 	bic.w	r2, r1, #2147483648	; 0x80000000
    9896:	f1b2 5f79 	cmp.w	r2, #1044381696	; 0x3e400000
    989a:	4681      	mov	r9, r0
    989c:	4688      	mov	r8, r1
    989e:	d204      	bcs.n	98aa <__kernel_sin+0x22>
    98a0:	f7f7 fc00 	bl	10a4 <__aeabi_d2iz>
    98a4:	2800      	cmp	r0, #0
    98a6:	f000 808c 	beq.w	99c2 <__kernel_sin+0x13a>
    98aa:	464a      	mov	r2, r9
    98ac:	4643      	mov	r3, r8
    98ae:	4648      	mov	r0, r9
    98b0:	4641      	mov	r1, r8
    98b2:	f7f7 f95d 	bl	b70 <__aeabi_dmul>
    98b6:	464a      	mov	r2, r9
    98b8:	4643      	mov	r3, r8
    98ba:	4604      	mov	r4, r0
    98bc:	460d      	mov	r5, r1
    98be:	f7f7 f957 	bl	b70 <__aeabi_dmul>
    98c2:	a343      	add	r3, pc, #268	; (adr r3, 99d0 <__kernel_sin+0x148>)
    98c4:	e9d3 2300 	ldrd	r2, r3, [r3]
    98c8:	4682      	mov	sl, r0
    98ca:	468b      	mov	fp, r1
    98cc:	4620      	mov	r0, r4
    98ce:	4629      	mov	r1, r5
    98d0:	f7f7 f94e 	bl	b70 <__aeabi_dmul>
    98d4:	a340      	add	r3, pc, #256	; (adr r3, 99d8 <__kernel_sin+0x150>)
    98d6:	e9d3 2300 	ldrd	r2, r3, [r3]
    98da:	f7f6 ff95 	bl	808 <__aeabi_dsub>
    98de:	4602      	mov	r2, r0
    98e0:	460b      	mov	r3, r1
    98e2:	4620      	mov	r0, r4
    98e4:	4629      	mov	r1, r5
    98e6:	f7f7 f943 	bl	b70 <__aeabi_dmul>
    98ea:	a33d      	add	r3, pc, #244	; (adr r3, 99e0 <__kernel_sin+0x158>)
    98ec:	e9d3 2300 	ldrd	r2, r3, [r3]
    98f0:	f7f6 ff8c 	bl	80c <__adddf3>
    98f4:	4602      	mov	r2, r0
    98f6:	460b      	mov	r3, r1
    98f8:	4620      	mov	r0, r4
    98fa:	4629      	mov	r1, r5
    98fc:	f7f7 f938 	bl	b70 <__aeabi_dmul>
    9900:	a339      	add	r3, pc, #228	; (adr r3, 99e8 <__kernel_sin+0x160>)
    9902:	e9d3 2300 	ldrd	r2, r3, [r3]
    9906:	f7f6 ff7f 	bl	808 <__aeabi_dsub>
    990a:	4602      	mov	r2, r0
    990c:	460b      	mov	r3, r1
    990e:	4620      	mov	r0, r4
    9910:	4629      	mov	r1, r5
    9912:	f7f7 f92d 	bl	b70 <__aeabi_dmul>
    9916:	a336      	add	r3, pc, #216	; (adr r3, 99f0 <__kernel_sin+0x168>)
    9918:	e9d3 2300 	ldrd	r2, r3, [r3]
    991c:	f7f6 ff76 	bl	80c <__adddf3>
    9920:	4606      	mov	r6, r0
    9922:	980e      	ldr	r0, [sp, #56]	; 0x38
    9924:	460f      	mov	r7, r1
    9926:	b9b8      	cbnz	r0, 9958 <__kernel_sin+0xd0>
    9928:	4632      	mov	r2, r6
    992a:	463b      	mov	r3, r7
    992c:	4620      	mov	r0, r4
    992e:	4629      	mov	r1, r5
    9930:	f7f7 f91e 	bl	b70 <__aeabi_dmul>
    9934:	a330      	add	r3, pc, #192	; (adr r3, 99f8 <__kernel_sin+0x170>)
    9936:	e9d3 2300 	ldrd	r2, r3, [r3]
    993a:	f7f6 ff65 	bl	808 <__aeabi_dsub>
    993e:	4602      	mov	r2, r0
    9940:	460b      	mov	r3, r1
    9942:	4650      	mov	r0, sl
    9944:	4659      	mov	r1, fp
    9946:	f7f7 f913 	bl	b70 <__aeabi_dmul>
    994a:	4602      	mov	r2, r0
    994c:	460b      	mov	r3, r1
    994e:	4648      	mov	r0, r9
    9950:	4641      	mov	r1, r8
    9952:	f7f6 ff5b 	bl	80c <__adddf3>
    9956:	e032      	b.n	99be <__kernel_sin+0x136>
    9958:	2200      	movs	r2, #0
    995a:	4b29      	ldr	r3, [pc, #164]	; (9a00 <__kernel_sin+0x178>)
    995c:	e9dd 0100 	ldrd	r0, r1, [sp]
    9960:	f7f7 f906 	bl	b70 <__aeabi_dmul>
    9964:	4632      	mov	r2, r6
    9966:	e9cd 0102 	strd	r0, r1, [sp, #8]
    996a:	463b      	mov	r3, r7
    996c:	4650      	mov	r0, sl
    996e:	4659      	mov	r1, fp
    9970:	f7f7 f8fe 	bl	b70 <__aeabi_dmul>
    9974:	4602      	mov	r2, r0
    9976:	460b      	mov	r3, r1
    9978:	e9dd 0102 	ldrd	r0, r1, [sp, #8]
    997c:	f7f6 ff44 	bl	808 <__aeabi_dsub>
    9980:	4602      	mov	r2, r0
    9982:	460b      	mov	r3, r1
    9984:	4620      	mov	r0, r4
    9986:	4629      	mov	r1, r5
    9988:	f7f7 f8f2 	bl	b70 <__aeabi_dmul>
    998c:	e9dd 2300 	ldrd	r2, r3, [sp]
    9990:	f7f6 ff3a 	bl	808 <__aeabi_dsub>
    9994:	a318      	add	r3, pc, #96	; (adr r3, 99f8 <__kernel_sin+0x170>)
    9996:	e9d3 2300 	ldrd	r2, r3, [r3]
    999a:	4604      	mov	r4, r0
    999c:	460d      	mov	r5, r1
    999e:	4650      	mov	r0, sl
    99a0:	4659      	mov	r1, fp
    99a2:	f7f7 f8e5 	bl	b70 <__aeabi_dmul>
    99a6:	4602      	mov	r2, r0
    99a8:	460b      	mov	r3, r1
    99aa:	4620      	mov	r0, r4
    99ac:	4629      	mov	r1, r5
    99ae:	f7f6 ff2d 	bl	80c <__adddf3>
    99b2:	4602      	mov	r2, r0
    99b4:	460b      	mov	r3, r1
    99b6:	4648      	mov	r0, r9
    99b8:	4641      	mov	r1, r8
    99ba:	f7f6 ff25 	bl	808 <__aeabi_dsub>
    99be:	4681      	mov	r9, r0
    99c0:	4688      	mov	r8, r1
    99c2:	4648      	mov	r0, r9
    99c4:	4641      	mov	r1, r8
    99c6:	b005      	add	sp, #20
    99c8:	e8bd 8ff0 	ldmia.w	sp!, {r4, r5, r6, r7, r8, r9, sl, fp, pc}
    99cc:	f3af 8000 	nop.w
    99d0:	5acfd57c 	.word	0x5acfd57c
    99d4:	3de5d93a 	.word	0x3de5d93a
    99d8:	8a2b9ceb 	.word	0x8a2b9ceb
    99dc:	3e5ae5e6 	.word	0x3e5ae5e6
    99e0:	57b1fe7d 	.word	0x57b1fe7d
    99e4:	3ec71de3 	.word	0x3ec71de3
    99e8:	19c161d5 	.word	0x19c161d5
    99ec:	3f2a01a0 	.word	0x3f2a01a0
    99f0:	1110f8a6 	.word	0x1110f8a6
    99f4:	3f811111 	.word	0x3f811111
    99f8:	55555549 	.word	0x55555549
    99fc:	3fc55555 	.word	0x3fc55555
    9a00:	3fe00000 	.word	0x3fe00000
    9a04:	f3af 8000 	nop.w

00009a08 <floor>:
    9a08:	e92d 41f3 	stmdb	sp!, {r0, r1, r4, r5, r6, r7, r8, lr}
    9a0c:	e9cd 0100 	strd	r0, r1, [sp]
    9a10:	9c01      	ldr	r4, [sp, #4]
    9a12:	9d00      	ldr	r5, [sp, #0]
    9a14:	f3c4 570a 	ubfx	r7, r4, #20, #11
    9a18:	f2a7 36ff 	subw	r6, r7, #1023	; 0x3ff
    9a1c:	2e13      	cmp	r6, #19
    9a1e:	dc35      	bgt.n	9a8c <floor+0x84>
    9a20:	2e00      	cmp	r6, #0
    9a22:	da15      	bge.n	9a50 <floor+0x48>
    9a24:	a336      	add	r3, pc, #216	; (adr r3, 9b00 <floor+0xf8>)
    9a26:	e9d3 2300 	ldrd	r2, r3, [r3]
    9a2a:	f7f6 feef 	bl	80c <__adddf3>
    9a2e:	2200      	movs	r2, #0
    9a30:	2300      	movs	r3, #0
    9a32:	f7f7 fb2d 	bl	1090 <__aeabi_dcmpgt>
    9a36:	2800      	cmp	r0, #0
    9a38:	d059      	beq.n	9aee <floor+0xe6>
    9a3a:	2c00      	cmp	r4, #0
    9a3c:	da55      	bge.n	9aea <floor+0xe2>
    9a3e:	f024 4300 	bic.w	r3, r4, #2147483648	; 0x80000000
    9a42:	4831      	ldr	r0, [pc, #196]	; (9b08 <floor+0x100>)
    9a44:	432b      	orrs	r3, r5
    9a46:	bf18      	it	ne
    9a48:	4604      	movne	r4, r0
    9a4a:	f04f 0500 	mov.w	r5, #0
    9a4e:	e04e      	b.n	9aee <floor+0xe6>
    9a50:	4f2e      	ldr	r7, [pc, #184]	; (9b0c <floor+0x104>)
    9a52:	fa47 f706 	asr.w	r7, r7, r6
    9a56:	ea07 0204 	and.w	r2, r7, r4
    9a5a:	ea52 0305 	orrs.w	r3, r2, r5
    9a5e:	d048      	beq.n	9af2 <floor+0xea>
    9a60:	a327      	add	r3, pc, #156	; (adr r3, 9b00 <floor+0xf8>)
    9a62:	e9d3 2300 	ldrd	r2, r3, [r3]
    9a66:	f7f6 fed1 	bl	80c <__adddf3>
    9a6a:	2200      	movs	r2, #0
    9a6c:	2300      	movs	r3, #0
    9a6e:	f7f7 fb0f 	bl	1090 <__aeabi_dcmpgt>
    9a72:	2800      	cmp	r0, #0
    9a74:	d03b      	beq.n	9aee <floor+0xe6>
    9a76:	2c00      	cmp	r4, #0
    9a78:	da04      	bge.n	9a84 <floor+0x7c>
    9a7a:	f44f 1580 	mov.w	r5, #1048576	; 0x100000
    9a7e:	fa45 f606 	asr.w	r6, r5, r6
    9a82:	19a4      	adds	r4, r4, r6
    9a84:	ea24 0407 	bic.w	r4, r4, r7
    9a88:	2500      	movs	r5, #0
    9a8a:	e030      	b.n	9aee <floor+0xe6>
    9a8c:	2e33      	cmp	r6, #51	; 0x33
    9a8e:	dd07      	ble.n	9aa0 <floor+0x98>
    9a90:	f5b6 6f80 	cmp.w	r6, #1024	; 0x400
    9a94:	d12d      	bne.n	9af2 <floor+0xea>
    9a96:	4602      	mov	r2, r0
    9a98:	460b      	mov	r3, r1
    9a9a:	f7f6 feb7 	bl	80c <__adddf3>
    9a9e:	e02a      	b.n	9af6 <floor+0xee>
    9aa0:	f2a7 4313 	subw	r3, r7, #1043	; 0x413
    9aa4:	f04f 38ff 	mov.w	r8, #4294967295
    9aa8:	fa28 f803 	lsr.w	r8, r8, r3
    9aac:	ea18 0f05 	tst.w	r8, r5
    9ab0:	d01f      	beq.n	9af2 <floor+0xea>
    9ab2:	a313      	add	r3, pc, #76	; (adr r3, 9b00 <floor+0xf8>)
    9ab4:	e9d3 2300 	ldrd	r2, r3, [r3]
    9ab8:	f7f6 fea8 	bl	80c <__adddf3>
    9abc:	2200      	movs	r2, #0
    9abe:	2300      	movs	r3, #0
    9ac0:	f7f7 fae6 	bl	1090 <__aeabi_dcmpgt>
    9ac4:	b198      	cbz	r0, 9aee <floor+0xe6>
    9ac6:	2c00      	cmp	r4, #0
    9ac8:	da0c      	bge.n	9ae4 <floor+0xdc>
    9aca:	2e14      	cmp	r6, #20
    9acc:	d101      	bne.n	9ad2 <floor+0xca>
    9ace:	3401      	adds	r4, #1
    9ad0:	e008      	b.n	9ae4 <floor+0xdc>
    9ad2:	f5c7 6786 	rsb	r7, r7, #1072	; 0x430
    9ad6:	2101      	movs	r1, #1
    9ad8:	1cf8      	adds	r0, r7, #3
    9ada:	fa01 f700 	lsl.w	r7, r1, r0
    9ade:	19ed      	adds	r5, r5, r7
    9ae0:	bf28      	it	cs
    9ae2:	1864      	addcs	r4, r4, r1
    9ae4:	ea25 0508 	bic.w	r5, r5, r8
    9ae8:	e001      	b.n	9aee <floor+0xe6>
    9aea:	2500      	movs	r5, #0
    9aec:	462c      	mov	r4, r5
    9aee:	9401      	str	r4, [sp, #4]
    9af0:	9500      	str	r5, [sp, #0]
    9af2:	e9dd 0100 	ldrd	r0, r1, [sp]
    9af6:	e8bd 81fc 	ldmia.w	sp!, {r2, r3, r4, r5, r6, r7, r8, pc}
    9afa:	bf00      	nop
    9afc:	f3af 8000 	nop.w
    9b00:	8800759c 	.word	0x8800759c
    9b04:	7e37e43c 	.word	0x7e37e43c
    9b08:	bff00000 	.word	0xbff00000
    9b0c:	000fffff 	.word	0x000fffff

00009b10 <scalbn>:
    9b10:	b513      	push	{r0, r1, r4, lr}
    9b12:	4614      	mov	r4, r2
    9b14:	aa01      	add	r2, sp, #4
    9b16:	f7fe f977 	bl	7e08 <frexp>
    9b1a:	9a01      	ldr	r2, [sp, #4]
    9b1c:	18a2      	adds	r2, r4, r2
    9b1e:	b002      	add	sp, #8
    9b20:	e8bd 4010 	ldmia.w	sp!, {r4, lr}
    9b24:	f000 b800 	b.w	9b28 <ldexp>

00009b28 <ldexp>:
    9b28:	e92d 41f3 	stmdb	sp!, {r0, r1, r4, r5, r6, r7, r8, lr}
    9b2c:	4690      	mov	r8, r2
    9b2e:	e9cd 0100 	strd	r0, r1, [sp]
    9b32:	f7fe f903 	bl	7d3c <__fpclassifyd>
    9b36:	2802      	cmp	r0, #2
    9b38:	e9dd 6700 	ldrd	r6, r7, [sp]
    9b3c:	dd08      	ble.n	9b50 <ldexp+0x28>
    9b3e:	4630      	mov	r0, r6
    9b40:	4639      	mov	r1, r7
    9b42:	2200      	movs	r2, #0
    9b44:	2300      	movs	r3, #0
    9b46:	4634      	mov	r4, r6
    9b48:	463d      	mov	r5, r7
    9b4a:	f7f7 fa79 	bl	1040 <__aeabi_dcmpeq>
    9b4e:	b110      	cbz	r0, 9b56 <ldexp+0x2e>
    9b50:	4634      	mov	r4, r6
    9b52:	463d      	mov	r5, r7
    9b54:	e066      	b.n	9c24 <ldexp+0xfc>
    9b56:	e89d 000c 	ldmia.w	sp, {r2, r3}
    9b5a:	f3c3 510a 	ubfx	r1, r3, #20, #11
    9b5e:	b999      	cbnz	r1, 9b88 <ldexp+0x60>
    9b60:	f023 4300 	bic.w	r3, r3, #2147483648	; 0x80000000
    9b64:	4313      	orrs	r3, r2
    9b66:	d05d      	beq.n	9c24 <ldexp+0xfc>
    9b68:	2200      	movs	r2, #0
    9b6a:	4b39      	ldr	r3, [pc, #228]	; (9c50 <ldexp+0x128>)
    9b6c:	4c39      	ldr	r4, [pc, #228]	; (9c54 <ldexp+0x12c>)
    9b6e:	4630      	mov	r0, r6
    9b70:	4639      	mov	r1, r7
    9b72:	f7f6 fffd 	bl	b70 <__aeabi_dmul>
    9b76:	45a0      	cmp	r8, r4
    9b78:	e9cd 0100 	strd	r0, r1, [sp]
    9b7c:	9b01      	ldr	r3, [sp, #4]
    9b7e:	db3d      	blt.n	9bfc <ldexp+0xd4>
    9b80:	f3c3 510a 	ubfx	r1, r3, #20, #11
    9b84:	3936      	subs	r1, #54	; 0x36
    9b86:	e00a      	b.n	9b9e <ldexp+0x76>
    9b88:	f240 72ff 	movw	r2, #2047	; 0x7ff
    9b8c:	4291      	cmp	r1, r2
    9b8e:	d106      	bne.n	9b9e <ldexp+0x76>
    9b90:	4630      	mov	r0, r6
    9b92:	4639      	mov	r1, r7
    9b94:	4632      	mov	r2, r6
    9b96:	463b      	mov	r3, r7
    9b98:	f7f6 fe38 	bl	80c <__adddf3>
    9b9c:	e040      	b.n	9c20 <ldexp+0xf8>
    9b9e:	eb01 0008 	add.w	r0, r1, r8
    9ba2:	f240 75fe 	movw	r5, #2046	; 0x7fe
    9ba6:	42a8      	cmp	r0, r5
    9ba8:	dd0c      	ble.n	9bc4 <ldexp+0x9c>
    9baa:	9c01      	ldr	r4, [sp, #4]
    9bac:	2c00      	cmp	r4, #0
    9bae:	a120      	add	r1, pc, #128	; (adr r1, 9c30 <ldexp+0x108>)
    9bb0:	e9d1 0100 	ldrd	r0, r1, [r1]
    9bb4:	da02      	bge.n	9bbc <ldexp+0x94>
    9bb6:	a120      	add	r1, pc, #128	; (adr r1, 9c38 <ldexp+0x110>)
    9bb8:	e9d1 0100 	ldrd	r0, r1, [r1]
    9bbc:	a31c      	add	r3, pc, #112	; (adr r3, 9c30 <ldexp+0x108>)
    9bbe:	e9d3 2300 	ldrd	r2, r3, [r3]
    9bc2:	e02b      	b.n	9c1c <ldexp+0xf4>
    9bc4:	2800      	cmp	r0, #0
    9bc6:	dd09      	ble.n	9bdc <ldexp+0xb4>
    9bc8:	f023 42ff 	bic.w	r2, r3, #2139095040	; 0x7f800000
    9bcc:	f422 03e0 	bic.w	r3, r2, #7340032	; 0x700000
    9bd0:	ea43 5000 	orr.w	r0, r3, r0, lsl #20
    9bd4:	9001      	str	r0, [sp, #4]
    9bd6:	e9dd 4500 	ldrd	r4, r5, [sp]
    9bda:	e023      	b.n	9c24 <ldexp+0xfc>
    9bdc:	f110 0f35 	cmn.w	r0, #53	; 0x35
    9be0:	da10      	bge.n	9c04 <ldexp+0xdc>
    9be2:	f24c 3150 	movw	r1, #50000	; 0xc350
    9be6:	4588      	cmp	r8, r1
    9be8:	dcdf      	bgt.n	9baa <ldexp+0x82>
    9bea:	9d01      	ldr	r5, [sp, #4]
    9bec:	2d00      	cmp	r5, #0
    9bee:	a114      	add	r1, pc, #80	; (adr r1, 9c40 <ldexp+0x118>)
    9bf0:	e9d1 0100 	ldrd	r0, r1, [r1]
    9bf4:	da02      	bge.n	9bfc <ldexp+0xd4>
    9bf6:	a114      	add	r1, pc, #80	; (adr r1, 9c48 <ldexp+0x120>)
    9bf8:	e9d1 0100 	ldrd	r0, r1, [r1]
    9bfc:	a310      	add	r3, pc, #64	; (adr r3, 9c40 <ldexp+0x118>)
    9bfe:	e9d3 2300 	ldrd	r2, r3, [r3]
    9c02:	e00b      	b.n	9c1c <ldexp+0xf4>
    9c04:	f023 42ff 	bic.w	r2, r3, #2139095040	; 0x7f800000
    9c08:	f422 03e0 	bic.w	r3, r2, #7340032	; 0x700000
    9c0c:	3036      	adds	r0, #54	; 0x36
    9c0e:	ea43 5400 	orr.w	r4, r3, r0, lsl #20
    9c12:	9401      	str	r4, [sp, #4]
    9c14:	e9dd 0100 	ldrd	r0, r1, [sp]
    9c18:	4b0f      	ldr	r3, [pc, #60]	; (9c58 <ldexp+0x130>)
    9c1a:	2200      	movs	r2, #0
    9c1c:	f7f6 ffa8 	bl	b70 <__aeabi_dmul>
    9c20:	4604      	mov	r4, r0
    9c22:	460d      	mov	r5, r1
    9c24:	4620      	mov	r0, r4
    9c26:	4629      	mov	r1, r5
    9c28:	e8bd 81fc 	ldmia.w	sp!, {r2, r3, r4, r5, r6, r7, r8, pc}
    9c2c:	f3af 8000 	nop.w
    9c30:	8800759c 	.word	0x8800759c
    9c34:	7e37e43c 	.word	0x7e37e43c
    9c38:	8800759c 	.word	0x8800759c
    9c3c:	fe37e43c 	.word	0xfe37e43c
    9c40:	c2f8f359 	.word	0xc2f8f359
    9c44:	01a56e1f 	.word	0x01a56e1f
    9c48:	c2f8f359 	.word	0xc2f8f359
    9c4c:	81a56e1f 	.word	0x81a56e1f
    9c50:	43500000 	.word	0x43500000
    9c54:	ffff3cb0 	.word	0xffff3cb0
    9c58:	3c900000 	.word	0x3c900000
    9c5c:	f3af 8000 	nop.w

00009c60 <__init_cpp>:
    9c60:	b510      	push	{r4, lr}
    9c62:	4c0c      	ldr	r4, [pc, #48]	; (9c94 <__init_cpp+0x34>)
    9c64:	4b0c      	ldr	r3, [pc, #48]	; (9c98 <__init_cpp+0x38>)
    9c66:	429c      	cmp	r4, r3
    9c68:	d003      	beq.n	9c72 <__init_cpp+0x12>
    9c6a:	f854 0b04 	ldr.w	r0, [r4], #4
    9c6e:	4780      	blx	r0
    9c70:	e7f8      	b.n	9c64 <__init_cpp+0x4>
    9c72:	4c0a      	ldr	r4, [pc, #40]	; (9c9c <__init_cpp+0x3c>)
    9c74:	480a      	ldr	r0, [pc, #40]	; (9ca0 <__init_cpp+0x40>)
    9c76:	4284      	cmp	r4, r0
    9c78:	d003      	beq.n	9c82 <__init_cpp+0x22>
    9c7a:	f854 3b04 	ldr.w	r3, [r4], #4
    9c7e:	4798      	blx	r3
    9c80:	e7f8      	b.n	9c74 <__init_cpp+0x14>
    9c82:	4c08      	ldr	r4, [pc, #32]	; (9ca4 <__init_cpp+0x44>)
    9c84:	4908      	ldr	r1, [pc, #32]	; (9ca8 <__init_cpp+0x48>)
    9c86:	428c      	cmp	r4, r1
    9c88:	d003      	beq.n	9c92 <__init_cpp+0x32>
    9c8a:	f854 2b04 	ldr.w	r2, [r4], #4
    9c8e:	4790      	blx	r2
    9c90:	e7f8      	b.n	9c84 <__init_cpp+0x24>
    9c92:	bd10      	pop	{r4, pc}
    9c94:	000125a0 	.word	0x000125a0
    9c98:	000125a0 	.word	0x000125a0
    9c9c:	000125a0 	.word	0x000125a0
    9ca0:	000125a0 	.word	0x000125a0
    9ca4:	000125a0 	.word	0x000125a0
    9ca8:	000125a0 	.word	0x000125a0

00009cac <__fini_cpp>:
    9cac:	b510      	push	{r4, lr}
    9cae:	4c08      	ldr	r4, [pc, #32]	; (9cd0 <__fini_cpp+0x24>)
    9cb0:	4b08      	ldr	r3, [pc, #32]	; (9cd4 <__fini_cpp+0x28>)
    9cb2:	429c      	cmp	r4, r3
    9cb4:	d003      	beq.n	9cbe <__fini_cpp+0x12>
    9cb6:	f854 2b04 	ldr.w	r2, [r4], #4
    9cba:	4790      	blx	r2
    9cbc:	e7f8      	b.n	9cb0 <__fini_cpp+0x4>
    9cbe:	4c06      	ldr	r4, [pc, #24]	; (9cd8 <__fini_cpp+0x2c>)
    9cc0:	4806      	ldr	r0, [pc, #24]	; (9cdc <__fini_cpp+0x30>)
    9cc2:	4284      	cmp	r4, r0
    9cc4:	d003      	beq.n	9cce <__fini_cpp+0x22>
    9cc6:	f854 1d04 	ldr.w	r1, [r4, #-4]!
    9cca:	4788      	blx	r1
    9ccc:	e7f8      	b.n	9cc0 <__fini_cpp+0x14>
    9cce:	bd10      	pop	{r4, pc}
    9cd0:	000125a0 	.word	0x000125a0
    9cd4:	000125a0 	.word	0x000125a0
    9cd8:	000125a0 	.word	0x000125a0
    9cdc:	000125a0 	.word	0x000125a0

00009ce0 <__copy_rom_section>:
    9ce0:	4288      	cmp	r0, r1
    9ce2:	d01e      	beq.n	9d22 <__copy_rom_section+0x42>
    9ce4:	b1ea      	cbz	r2, 9d22 <__copy_rom_section+0x42>
    9ce6:	078b      	lsls	r3, r1, #30
    9ce8:	d109      	bne.n	9cfe <__copy_rom_section+0x1e>
    9cea:	0783      	lsls	r3, r0, #30
    9cec:	d107      	bne.n	9cfe <__copy_rom_section+0x1e>
    9cee:	2a03      	cmp	r2, #3
    9cf0:	d905      	bls.n	9cfe <__copy_rom_section+0x1e>
    9cf2:	f851 3b04 	ldr.w	r3, [r1], #4
    9cf6:	3a04      	subs	r2, #4
    9cf8:	f840 3b04 	str.w	r3, [r0], #4
    9cfc:	e7f2      	b.n	9ce4 <__copy_rom_section+0x4>
    9cfe:	07cb      	lsls	r3, r1, #31
    9d00:	d409      	bmi.n	9d16 <__copy_rom_section+0x36>
    9d02:	07c3      	lsls	r3, r0, #31
    9d04:	d407      	bmi.n	9d16 <__copy_rom_section+0x36>
    9d06:	2a01      	cmp	r2, #1
    9d08:	d905      	bls.n	9d16 <__copy_rom_section+0x36>
    9d0a:	f831 3b02 	ldrh.w	r3, [r1], #2
    9d0e:	3a02      	subs	r2, #2
    9d10:	f820 3b02 	strh.w	r3, [r0], #2
    9d14:	e7e6      	b.n	9ce4 <__copy_rom_section+0x4>
    9d16:	f811 3b01 	ldrb.w	r3, [r1], #1
    9d1a:	3a01      	subs	r2, #1
    9d1c:	f800 3b01 	strb.w	r3, [r0], #1
    9d20:	e7e0      	b.n	9ce4 <__copy_rom_section+0x4>
    9d22:	4770      	bx	lr

00009d24 <__copy_rom_sections_to_ram>:
    9d24:	b510      	push	{r4, lr}
    9d26:	4c0a      	ldr	r4, [pc, #40]	; (9d50 <__copy_rom_sections_to_ram+0x2c>)
    9d28:	b18c      	cbz	r4, 9d4e <__copy_rom_sections_to_ram+0x2a>
    9d2a:	3408      	adds	r4, #8
    9d2c:	f854 1c08 	ldr.w	r1, [r4, #-8]
    9d30:	b131      	cbz	r1, 9d40 <__copy_rom_sections_to_ram+0x1c>
    9d32:	f854 0c04 	ldr.w	r0, [r4, #-4]
    9d36:	f854 2b0c 	ldr.w	r2, [r4], #12
    9d3a:	f7ff ffd1 	bl	9ce0 <__copy_rom_section>
    9d3e:	e7f5      	b.n	9d2c <__copy_rom_sections_to_ram+0x8>
    9d40:	f854 3c04 	ldr.w	r3, [r4, #-4]
    9d44:	2b00      	cmp	r3, #0
    9d46:	d1f4      	bne.n	9d32 <__copy_rom_sections_to_ram+0xe>
    9d48:	6820      	ldr	r0, [r4, #0]
    9d4a:	2800      	cmp	r0, #0
    9d4c:	d1f1      	bne.n	9d32 <__copy_rom_sections_to_ram+0xe>
    9d4e:	bd10      	pop	{r4, pc}
    9d50:	000125cc 	.word	0x000125cc

00009d54 <__destroy_global_chain>:
    9d54:	4b04      	ldr	r3, [pc, #16]	; (9d68 <__destroy_global_chain+0x14>)
    9d56:	b510      	push	{r4, lr}
    9d58:	681c      	ldr	r4, [r3, #0]
    9d5a:	b124      	cbz	r4, 9d66 <__destroy_global_chain+0x12>
    9d5c:	6861      	ldr	r1, [r4, #4]
    9d5e:	68a0      	ldr	r0, [r4, #8]
    9d60:	4788      	blx	r1
    9d62:	6824      	ldr	r4, [r4, #0]
    9d64:	e7f9      	b.n	9d5a <__destroy_global_chain+0x6>
    9d66:	bd10      	pop	{r4, pc}
    9d68:	1fffe058 	.word	0x1fffe058

00009d6c <__init_registers>:
    9d6c:	4b07      	ldr	r3, [pc, #28]	; (9d8c <skip_sp+0x6>)
    9d6e:	4618      	mov	r0, r3
    9d70:	2800      	cmp	r0, #0
    9d72:	f000 8008 	beq.w	9d86 <skip_sp>
    9d76:	4685      	mov	sp, r0
    9d78:	b081      	sub	sp, #4
    9d7a:	f04f 0000 	mov.w	r0, #0
    9d7e:	ea6f 0000 	mvn.w	r0, r0
    9d82:	9000      	str	r0, [sp, #0]
    9d84:	b001      	add	sp, #4

00009d86 <skip_sp>:
    9d86:	46f7      	mov	pc, lr
    9d88:	4770      	bx	lr
    9d8a:	bf00      	nop
    9d8c:	20000000 	.word	0x20000000

00009d90 <__init_user>:
    9d90:	46f7      	mov	pc, lr
    9d92:	4770      	bx	lr
	...

00009db4 <atan_24pi_q31_t>:
    9db4:	3812 8229 7d3e 8229 c27b 8229 07c9 822a     .8).>}).{.)...*.
    9dc4:	4d29 822a 929a 822a d81c 822a 1db0 822b     )M*...*...*...+.
    9dd4:	6356 822b a90c 822b eed5 822b 34af 822c     Vc+...+...+..4,.
    9de4:	7a9a 822c c097 822c 06a6 822d 4cc6 822d     .z,...,...-..L-.
    9df4:	92f8 822d d93b 822d 1f90 822e 65f7 822e     ..-.;.-......e..
    9e04:	ac70 822e f2fb 822e 3997 822f 8046 822f     p........9/.F./.
    9e14:	c706 822f 0dd8 8230 54bc 8230 9bb1 8230     ../...0..T0...0.
    9e24:	e2b9 8230 29d3 8231 70ff 8231 b83d 8231     ..0..)1..p1.=.1.
    9e34:	ff8d 8231 46ef 8232 8e64 8232 d5ea 8232     ..1..F2.d.2...2.
    9e44:	1d83 8233 652e 8233 aceb 8233 f4ba 8233     ..3..e3...3...3.
    9e54:	3c9c 8234 8490 8234 cc96 8234 14af 8235     .<4...4...4...5.
    9e64:	5cda 8235 a518 8235 ed68 8235 35ca 8236     .\5...5.h.5..56.
    9e74:	7e3f 8236 c6c7 8236 0f61 8237 580e 8237     ?~6...6.a.7..X7.
    9e84:	a0ce 8237 e9a0 8237 3284 8238 7b7c 8238     ..7...7..28.|{8.
    9e94:	c486 8238 0da3 8239 56d3 8239 a016 8239     ..8...9..V9...9.
    9ea4:	e96b 8239 32d4 823a 7c4f 823a c5dd 823a     k.9..2:.O|:...:.
    9eb4:	0f7f 823b 5933 823b a2fa 823b ecd5 823b     ..;.3Y;...;...;.
    9ec4:	36c2 823c 80c3 823c cad6 823c 14fd 823d     .6<...<...<...=.
    9ed4:	5f37 823d a984 823d f3e5 823d 3e59 823e     7_=...=...=.Y>>.
    9ee4:	88e0 823e d37b 823e 1e29 823f 68ea 823f     ..>.{.>.).?..h?.
    9ef4:	b3bf 823f fea7 823f 49a3 8240 94b2 8240     ..?...?..I@...@.
    9f04:	dfd5 8240 2b0b 8241 7655 8241 c1b3 8241     ..@..+A.UvA...A.
    9f14:	0d24 8242 58a9 8242 a442 8242 efee 8242     $.B..XB.B.B...B.
    9f24:	3baf 8243 8783 8243 d36b 8243 1f67 8244     .;C...C.k.C.g.D.
    9f34:	6b77 8244 b79b 8244 03d2 8245 501e 8245     wkD...D...E..PE.
    9f44:	9c7e 8245 e8f2 8245 357a 8246 8216 8246     ~.E...E.z5F...F.
    9f54:	cec6 8246 1b8b 8247 6864 8247 b551 8247     ..F...G.dhG.Q.G.
    9f64:	0252 8248 4f67 8248 9c91 8248 e9d0 8248     R.H.gOH...H...H.
    9f74:	3723 8249 848a 8249 d205 8249 1f96 824a     #7I...I...I...J.
    9f84:	6d3a 824a baf4 824a 08c2 824b 56a4 824b     :mJ...J...K..VK.
    9f94:	a49b 824b f2a7 824b 40c8 824c 8efe 824c     ..K...K..@L...L.
    9fa4:	dd48 824c 2ba7 824d 7a1b 824d c8a4 824d     H.L..+M..zM...M.
    9fb4:	1742 824e 65f4 824e b4bc 824e 0399 824f     B.N..eN...N...O.
    9fc4:	528b 824f a192 824f f0ae 824f 3fdf 8250     .RO...O...O..?P.
    9fd4:	8f25 8250 de81 8250 2df2 8251 7d78 8251     %.P...P..-Q.x}Q.
    9fe4:	cd14 8251 1cc5 8252 6c8b 8252 bc67 8252     ..Q...R..lR.g.R.
    9ff4:	0c58 8253 5c5e 8253 ac7b 8253 fcac 8253     X.S.^\S.{.S...S.
    a004:	4cf4 8254 9d51 8254 edc4 8254 3e4c 8255     .LT.Q.T...T.L>U.
    a014:	8eea 8255 df9e 8255 3068 8256 8147 8256     ..U...U.h0V.G.V.
    a024:	d23c 8256 2348 8257 7469 8257 c5a0 8257     <.V.H#W.itW...W.
    a034:	16ed 8258 6851 8258 b9ca 8258 0b5a 8259     ..X.QhX...X.Z.Y.
    a044:	5cff 8259 aebb 8259 008d 825a 5275 825a     .\Y...Y...Z.uRZ.
    a054:	a474 825a f689 825a 48b4 825b 9af6 825b     t.Z...Z..H[...[.
    a064:	ed4e 825b 3fbd 825c 9242 825c e4dd 825c     N.[..?\.B.\...\.
    a074:	3790 825d 8a59 825d dd38 825d 302e 825e     .7].Y.].8.]..0^.
    a084:	833b 825e d65f 825e 2999 825f 7ceb 825f     ;.^._.^..)_..|_.
    a094:	d053 825f 23d2 8260 7768 8260 cb15 8260     S._..#`.hw`...`.
    a0a4:	1ed9 8261 72b4 8261 c6a6 8261 1ab0 8262     ..a..ra...a...b.
    a0b4:	6ed0 8262 c308 8262 1757 8263 6bbd 8263     .nb...b.W.c..kc.
    a0c4:	c03b 8263 14d0 8264 697c 8264 be40 8264     ;.c...d.|id.@.d.
    a0d4:	131b 8265 680e 8265 bd18 8265 123a 8266     ..e..he...e.:.f.
    a0e4:	6773 8266 bcc4 8266 122d 8267 67ae 8267     sgf...f.-.g..gg.
    a0f4:	bd46 8267 12f6 8268 68be 8268 be9e 8268     F.g...h..hh...h.
    a104:	1496 8269 6aa6 8269 c0ce 8269 170d 826a     ..i..ji...i...j.
    a114:	6d65 826a c3d6 826a 1a5e 826b 70fe 826b     emj...j.^.k..pk.
    a124:	c7b7 826b 1e88 826c 7571 826c cc73 826c     ..k...l.qul.s.l.
    a134:	238d 826d 7ac0 826d d20b 826d 296e 826e     .#m..zm...m.n)n.
    a144:	80eb 826e d87f 826e 302d 826f 87f3 826f     ..n...n.-0o...o.
    a154:	dfd2 826f 37c9 8270 8fda 8270 e803 8270     ..o..7p...p...p.
    a164:	4045 8271 98a0 8271 f114 8271 49a1 8272     E@q...q...q..Ir.
    a174:	a248 8272 fb07 8272 53df 8273 acd1 8273     H.r...r..Ss...s.
    a184:	05dc 8274 5f00 8274 b83d 8274 1194 8275     ..t.._t.=.t...u.
    a194:	6b04 8275 c48e 8275 1e31 8276 77ed 8276     .ku...u.1.v..wv.
    a1a4:	d1c4 8276 2bb3 8277 85bd 8277 dfe0 8277     ..v..+w...w...w.
    a1b4:	3a1d 8278 9473 8278 eee4 8278 496e 8279     .:x.s.x...x.nIy.
    a1c4:	a412 8279 fed1 8279 59a9 827a b49b 827a     ..y...y..Yz...z.
    a1d4:	0fa7 827b 6ace 827b c60e 827b 2169 827c     ..{..j{...{.i!|.
    a1e4:	7cde 827c d86e 827c 3417 827d 8fdc 827d     .||.n.|..4}...}.
    a1f4:	ebba 827d 47b3 827e a3c7 827e fff5 827e     ..}..G~...~...~.
    a204:	5c3e 827f b8a1 827f 151f 8280 71b8 8280     >\...........q..
    a214:	ce6c 8280 2b3a 8281 8824 8281 e528 8281     l...:+..$...(...
    a224:	4247 8282 9f82 8282 fcd7 8282 5a48 8283     GB..........HZ..
    a234:	b7d4 8283 157a 8284 733d 8284 d11a 8284     ....z...=s......
    a244:	2f13 8285 8d27 8285 eb57 8285 49a2 8286     ./..'...W....I..
    a254:	a809 8286 068b 8287 6529 8287 c3e3 8287     ........)e......
    a264:	22b8 8288 81a9 8288 e0b6 8288 3fdf 8289     ."...........?..
    a274:	9f23 8289 fe84 8289 5e01 828a bd9a 828a     #........^......
    a284:	1d4e 828b 7d1f 828b dd0d 828b 3d16 828c     N....}.......=..
    a294:	9d3c 828c fd7e 828c 5ddd 828d be58 828d     <...~....]..X...
    a2a4:	1eef 828e 7fa3 828e e074 828e 4161 828f     ........t...aA..
    a2b4:	a26b 828f 0392 8290 64d5 8290 c636 8290     k........d..6...
    a2c4:	27b3 8291 894d 8291 eb05 8291 4cd9 8292     .'..M........L..
    a2d4:	aeca 8292 10d9 8293 7305 8293 d54e 8293     .........s..N...
    a2e4:	37b4 8294 9a38 8294 fcd9 8294 5f97 8295     .7..8........_..
    a2f4:	c273 8295 256d 8296 8884 8296 ebb9 8296     s...m%..........
    a304:	4f0b 8297 b27c 8297 160a 8298 79b6 8298     .O..|........y..
    a314:	dd80 8298 4168 8299 a56e 8299 0992 829a     ....hA..n.......
    a324:	6dd4 829a d235 829a 36b3 829b 9b50 829b     .m..5....6..P...
    a334:	000c 829c 64e5 829c c9de 829c 2ef4 829d     .....d..........
    a344:	9429 829d f97d 829d 5ef0 829e c481 829e     )...}....^......
    a354:	2a31 829f 9000 829f f5ee 829f 5bfb 82a0     1*...........[..
    a364:	c226 82a0 2871 82a1 8edb 82a1 f564 82a1     &...q(......d...
    a374:	5c0d 82a2 c2d4 82a2 29bb 82a3 90c1 82a3     .\.......)......
    a384:	f7e7 82a3 5f2c 82a4 c691 82a4 2e16 82a5     ....,_..........
    a394:	95ba 82a5 fd7e 82a5 6561 82a6 cd65 82a6     ....~...ae..e...
    a3a4:	3588 82a7 9dcc 82a7 062f 82a8 6eb3 82a8     .5....../....n..
    a3b4:	d756 82a8 401a 82a9 a8fe 82a9 1202 82aa     V....@..........
    a3c4:	7b27 82aa e46c 82aa 4dd2 82ab b758 82ab     '{..l....M..X...
    a3d4:	20ff 82ac 8ac6 82ac f4ae 82ac 5eb7 82ad     . ...........^..
    a3e4:	c8e1 82ad 332c 82ae 9d97 82ae 0824 82af     ....,3......$...
    a3f4:	72d2 82af dda0 82af 4890 82b0 b3a2 82b0     .r.......H......
    a404:	1ed4 82b1 8a28 82b1 f59e 82b1 6135 82b2     ....(.......5a..
    a414:	cced 82b2 38c7 82b3 a4c3 82b3 10e1 82b4     .....8..........
    a424:	7d20 82b4 e981 82b4 5604 82b5 c2aa 82b5      }.......V......
    a434:	2f71 82b6 9c5a 82b6 0966 82b7 7693 82b7     q/..Z...f....v..
    a444:	e3e4 82b7 5156 82b8 beeb 82b8 2ca2 82b9     ....VQ.......,..
    a454:	9a7c 82b9 0879 82ba 7698 82ba e4da 82ba     |...y....v......
    a464:	533f 82bb c1c7 82bb 3071 82bc 9f3f 82bc     ?S......q0..?...
    a474:	0e30 82bd 7d44 82bd ec7b 82bd 5bd5 82be     0...D}..{....[..
    a484:	cb53 82be 3af4 82bf aab8 82bf 1aa1 82c0     S....:..........
    a494:	8aac 82c0 fadc 82c0 6b2f 82c1 dba6 82c1     ......../k......
    a4a4:	4c41 82c2 bcff 82c2 2de2 82c3 9ee9 82c3     AL.......-......
    a4b4:	1014 82c4 8163 82c4 f2d6 82c4 646e 82c5     ....c.......nd..
    a4c4:	d62a 82c5 480b 82c6 ba10 82c6 2c3a 82c7     *....H......:,..
    a4d4:	9e89 82c7 10fc 82c8 8394 82c8 f651 82c8     ............Q...
    a4e4:	6933 82c9 dc3a 82c9 4f66 82ca c2b7 82ca     3i..:...fO......
    a4f4:	362e 82cb a9c9 82cb 1d8b 82cc 9171 82cc     .6..........q...
    a504:	057d 82cd 79af 82cd ee07 82cd 6284 82ce     }....y.......b..
    a514:	d727 82ce 4bf0 82cf c0de 82cf 35f3 82d0     '....K.......5..
    a524:	ab2e 82d0 208f 82d1 9617 82d1 0bc4 82d2     ..... ..........
    a534:	8198 82d2 f793 82d2 6db4 82d3 e3fc 82d3     .........m......
    a544:	5a6a 82d4 d0ff 82d4 47bb 82d5 be9e 82d5     jZ.......G......
    a554:	35a8 82d6 acd9 82d6 2431 82d7 9bb0 82d7     .5......1$......
    a564:	1357 82d8 8b25 82d8 031a 82d9 7b37 82d9     W...%.......7{..
    a574:	f37b 82d9 6be7 82da e47b 82da 5d37 82db     {....k..{...7]..
    a584:	d61b 82db 4f26 82dc c85a 82dc 41b5 82dd     ....&O..Z....A..
    a594:	bb39 82dd 34e6 82de aeba 82de 28b7 82df     9....4.......(..
    a5a4:	a2dd 82df 1d2b 82e0 97a2 82e0 1241 82e1     ....+.......A...
    a5b4:	8d0a 82e1 07fb 82e2 8315 82e2 fe59 82e2     ............Y...
    a5c4:	79c5 82e3 f55b 82e3 711a 82e4 ed03 82e4     .y..[....q......
    a5d4:	6915 82e5 e550 82e5 61b5 82e6 de44 82e6     .i..P....a..D...
    a5e4:	5afd 82e7 d7e0 82e7 54ec 82e8 d223 82e8     .Z.......T..#...
    a5f4:	4f84 82e9 cd0f 82e9 4ac4 82ea c8a4 82ea     .O.......J......
    a604:	46ae 82eb c4e3 82eb 4342 82ec c1cc 82ec     .F......BC......
    a614:	4081 82ed bf61 82ed 3e6c 82ee bda1 82ee     .@..a...l>......
    a624:	3d02 82ef bc8f 82ef 3c46 82f0 bc29 82f0     .=......F<..)...
    a634:	3c37 82f1 bc72 82f1 3cd7 82f2 bd69 82f2     7<..r....<..i...
    a644:	3e26 82f3 bf0f 82f3 4024 82f4 c166 82f4     &>......$@..f...
    a654:	42d3 82f5 c46d 82f5 4633 82f6 c826 82f6     .B..m...3F..&...
    a664:	4a45 82f7 cc91 82f7 4f09 82f8 d1af 82f8     EJ.......O......
    a674:	5481 82f9 d780 82f9 5aad 82fa de06 82fa     .T.......Z......
    a684:	618d 82fb e541 82fb 6923 82fc ed32 82fc     .a..A...#i..2...
    a694:	716f 82fd f5d9 82fd 7a72 82fe ff38 82fe     oq......rz..8...
    a6a4:	842c 82ff 094f 8300 8e9f 8300 141e 8301     ,...O...........
    a6b4:	99cc 8301 1fa7 8302 a5b2 8302 2beb 8303     .............+..
    a6c4:	b253 8303 38e9 8304 bfaf 8304 46a3 8305     S....8.......F..
    a6d4:	cdc7 8305 551a 8306 dc9d 8306 644f 8307     .....U......Od..
    a6e4:	ec30 8307 7441 8308 fc82 8308 84f2 8309     0...At..........
    a6f4:	0d93 830a 9663 830a 1f64 830b a895 830b     ....c...d.......
    a704:	31f6 830c bb87 830c 454a 830d cf3c 830d     .1......JE..<...
    a714:	5960 830e e3b4 830e 6e39 830f f8f0 830f     `Y......9n......
    a724:	83d7 8310 0ef0 8311 9a3a 8311 25b5 8312     ........:....%..
    a734:	b162 8312 3d41 8313 c951 8313 5593 8314     b...A=..Q....U..
    a744:	e207 8314 6eae 8315 fb86 8315 8891 8316     .....n..........
    a754:	15ce 8317 a33d 8317 30df 8318 beb4 8318     ....=....0......
    a764:	4cbc 8319 daf6 8319 6963 831a f804 831a     .L......ci......
    a774:	86d8 831b 15df 831c a51a 831c 3488 831d     .............4..
    a784:	c42a 831d 53ff 831e e409 831e 7446 831f     *....S......Ft..
    a794:	04b8 8320 955d 8320 2637 8321 b746 8321     .. .]. .7&!.F.!.
    a7a4:	4889 8322 da00 8322 6bad 8323 fd8e 8323     .H"..."..k#...#.
    a7b4:	8fa5 8324 21f0 8325 b471 8325 4726 8326     ..$..!%.q.%.&G&.
    a7c4:	da12 8326 6d33 8327 0089 8328 9416 8328     ..&.3m'...(...(.
    a7d4:	27d8 8329 bbd0 8329 4fff 832a e463 832a     .')...)..O*.c.*.
    a7e4:	78fe 832b 0dd0 832c a2d8 832c 3817 832d     .x+...,...,..8-.
    a7f4:	cd8d 832d 6339 832e f91d 832e 8f38 832f     ..-.9c......8./.
    a804:	258a 8330 bc13 8330 52d5 8331 e9cd 8331     .%0...0..R1...1.
    a814:	80fe 8332 1866 8333 b007 8333 47e0 8334     ..2.f.3...3..G4.
    a824:	dff1 8334 783a 8335 10bc 8336 a976 8336     ..4.:x5...6.v.6.
    a834:	4269 8337 db96 8337 74fb 8338 0e99 8339     iB7...7..t8...9.
    a844:	a870 8339 4281 833a dccc 833a 7750 833b     p.9..B:...:.Pw;.
    a854:	120e 833c ad05 833c 4837 833d e3a3 833d     ..<...<.7H=...=.
    a864:	7f49 833e 1b2a 833f b745 833f 539a 8340     I.>.*.?.E.?..S@.
    a874:	f02b 8340 8cf6 8341 29fd 8342 c73e 8342     +.@...A..)B.>.B.
    a884:	64bb 8343 0274 8344 a067 8344 3e97 8345     .dC.t.D.g.D..>E.
    a894:	dd03 8345 7baa 8346 1a8d 8347 b9ad 8347     ..E..{F...G...G.
    a8a4:	5909 8348 f8a2 8348 9877 8349 3889 834a     .YH...H.w.I..8J.
    a8b4:	d8d8 834a 7964 834b 1a2d 834c bb33 834c     ..J.dyK.-.L.3.L.
    a8c4:	5c77 834d fdf9 834d 9fb8 834e 41b5 834f     w\M...M...N..AO.
    a8d4:	e3f0 834f 8669 8350 2921 8351 cc17 8351     ..O.i.P.!)Q...Q.
    a8e4:	6f4b 8352 12be 8353 b670 8353 5a61 8354     KoR...S.p.S.aZT.
    a8f4:	fe91 8354 a300 8355 47af 8356 ec9e 8356     ..T...U..GV...V.
    a904:	91cc 8357 3739 8358 dce7 8358 82d5 8359     ..W.97X...X...Y.
    a914:	2903 835a cf72 835a 7621 835b 1d11 835c     .)Z.r.Z.!v[...\.
    a924:	c442 835c 6bb4 835d 1367 835e bb5b 835e     B.\..k].g.^.[.^.
    a934:	6391 835f 0c08 8360 b4c1 8360 5dbc 8361     .c_...`...`..]a.
    a944:	06f9 8362 b079 8362 5a3a 8363 043e 8364     ..b.y.b.:Zc.>.d.
    a954:	ae85 8364 590f 8365 03dc 8366 aeeb 8366     ..d..Ye...f...f.
    a964:	5a3e 8367 05d5 8368 b1af 8368 5dcc 8369     >Zg...h...h..]i.
    a974:	0a2e 836a b6d4 836a 63be 836b 10ec 836c     ..j...j..ck...l.
    a984:	be5f 836c 6c17 836d 1a13 836e c855 836e     _.l..lm...n.U.n.
    a994:	76db 836f 25a7 8370 d4b8 8370 8410 8371     .vo..%p...p...q.
    a9a4:	33ac 8372 e38f 8372 93b8 8373 4428 8374     .3r...r...s.(Dt.
    a9b4:	f4de 8374 a5da 8375 571d 8376 08a8 8377     ..t...u..Wv...w.
    a9c4:	ba79 8377 6c92 8378 1ef2 8379 d19a 8379     y.w..lx...y...y.
    a9d4:	8489 837a 37c1 837b eb40 837b 9f09 837c     ..z..7{.@.{...|.
    a9e4:	5319 837d 0772 837e bc14 837e 70ff 837f     .S}.r.~...~..p..
    a9f4:	2634 8380 dbb1 8380 9178 8381 4789 8382     4&......x....G..
    aa04:	fde4 8382 b488 8383 6b77 8384 22b1 8385     ........wk..."..
    aa14:	da35 8385 9203 8386 4a1d 8387 0282 8388     5........J......
    aa24:	bb32 8388 742d 8389 2d74 838a e707 838a     2...-t..t-......
    aa34:	a0e6 838b 5b11 838c 1589 838d d04d 838d     .....[......M...
    aa44:	8b5e 838e 46bc 838f 0267 8390 be5f 8390     ^....F..g..._...
    aa54:	7aa5 8391 3739 8392 f41a 8392 b149 8393     .z..97......I...
    aa64:	6ec7 8394 2c93 8395 eaae 8395 a917 8396     .n...,..........
    aa74:	67d0 8397 26d8 8398 e62f 8398 a5d6 8399     .g...&../.......
    aa84:	65cc 839a 2613 839b e6a9 839b a790 839c     .e...&..........
    aa94:	68c8 839d 2a50 839e ec2a 839e ae54 839f     .h..P*..*...T...
    aaa4:	70d0 83a0 339d 83a1 f6bc 83a1 ba2e 83a2     .p...3..........
    aab4:	7df1 83a3 4206 83a4 066f 83a5 cb2a 83a5     .}...B..o...*...
    aac4:	9038 83a6 5599 83a7 1b4d 83a8 e155 83a8     8....U..M...U...
    aad4:	a7b1 83a9 6e61 83aa 3565 83ab fcbe 83ab     ....an..e5......
    aae4:	c46b 83ac 8c6d 83ad 54c4 83ae 1d71 83af     k...m....T..q...
    aaf4:	e673 83af afca 83b0 7978 83b1 437b 83b2     s.......xy..{C..
    ab04:	0dd5 83b3 d886 83b3 a38d 83b4 6eeb 83b5     .............n..
    ab14:	3aa0 83b6 06ad 83b7 d312 83b7 9fce 83b8     .:..............
    ab24:	6ce3 83b9 3a4f 83ba 0815 83bb d633 83bb     .l..O:......3...
    ab34:	a4aa 83bc 737a 83bd 42a4 83be 1227 83bf     ....zs...B..'...
    ab44:	e205 83bf b23c 83c0 82ce 83c1 53ba 83c2     ....<........S..
    ab54:	2501 83c3 f6a3 83c3 c8a0 83c4 9af9 83c5     .%..............
    ab64:	6dae 83c6 40bf 83c7 142b 83c8 e7f5 83c8     .m...@..+.......
    ab74:	bc1b 83c9 909d 83ca 657d 83cb 3abb 83cc     ........}e...:..
    ab84:	1056 83cd e64f 83cd bca6 83ce 935b 83cf     V...O.......[...
    ab94:	6a6f 83d0 41e2 83d1 19b4 83d2 f1e5 83d2     oj...A..........
    aba4:	ca76 83d3 a366 83d4 7cb7 83d5 5668 83d6     v...f....|..hV..
    abb4:	307a 83d7 0aec 83d8 e5c0 83d8 c0f5 83d9     z0..............
    abc4:	9c8b 83da 7883 83db 54de 83dc 319b 83dd     .....x...T...1..
    abd4:	0eba 83de ec3c 83de ca22 83df a86a 83e0     ....<..."...j...
    abe4:	8717 83e1 6627 83e2 459c 83e3 2575 83e4     ....'f...E..u%..
    abf4:	05b2 83e5 e655 83e5 c75d 83e6 a8ca 83e7     ....U...].......
    ac04:	8a9d 83e8 6cd6 83e9 4f76 83ea 327c 83eb     .....l..vO..|2..
    ac14:	15e9 83ec f9bd 83ec ddf8 83ed c29b 83ee     ................
    ac24:	a7a7 83ef 8d1a 83f0 72f6 83f1 593a 83f2     .........r..:Y..
    ac34:	3fe8 83f3 26ff 83f4 0e7f 83f5 f66a 83f5     .?...&......j...
    ac44:	debf 83f6 c77e 83f7 b0a8 83f8 9a3d 83f9     ....~.......=...
    ac54:	843d 83fa 6ea9 83fb 5981 83fc 44c5 83fd     =....n...Y...D..
    ac64:	3076 83fe 1c93 83ff 091e 8400 f616 8400     v0..............
    ac74:	e37c 8401 d14f 8402 bf91 8403 ae41 8404     |...O.......A...
    ac84:	9d61 8405 8cef 8406 7ced 8407 6d5b 8408     a........|..[m..
    ac94:	5e39 8409 4f87 840a 4146 840b 3376 840c     9^...O..FA..v3..
    aca4:	2617 840d 192a 840e 0caf 840f 00a6 8410     .&..*...........
    acb4:	f510 8410 e9ed 8411 df3c 8412 d500 8413     ........<.......
    acc4:	cb37 8414 c1e2 8415 b902 8416 b097 8417     7...............
    acd4:	a8a1 8418 a120 8419 9a15 841a 9380 841b     .... ...........
    ace4:	8d61 841c 87ba 841d 8289 841e 7dd0 841f     a............}..
    acf4:	798f 8420 75c5 8421 7274 8422 6f9c 8423     .y ..u!.tr"..o#.
    ad04:	6d3d 8424 6b58 8425 69ec 8426 68fa 8427     =m$.Xk%..i&..h'.
    ad14:	6883 8428 6887 8429 6906 842a 6a00 842b     .h(..h)..i*..j+.
    ad24:	6b76 842c 6d68 842d 6fd7 842e 72c3 842f     vk,.hm-..o...r/.
    ad34:	762c 8430 7a13 8431 7e78 8432 835b 8433     ,v0..z1.x~2.[.3.
    ad44:	88bd 8434 8e9d 8435 94fe 8436 9bde 8437     ..4...5...6...7.
    ad54:	a33e 8438 ab1f 8439 b380 843a bc63 843b     >.8...9...:.c.;.
    ad64:	c5c7 843c cfae 843d da16 843e e502 843f     ..<...=...>...?.
    ad74:	f070 8440 fc63 8441 08d9 8443 15d3 8444     p.@.c.A...C...D.
    ad84:	2352 8445 3155 8446 3fdf 8447 4eee 8448     R#E.U1F..?G..NH.
    ad94:	5e83 8449 6e9f 844a 7f41 844b 906b 844c     .^I..nJ.A.K.k.L.
    ada4:	a21d 844d b457 844e c71a 844f da65 8450     ..M.W.N...O.e.P.
    adb4:	ee3a 8451 0298 8453 1781 8454 2cf4 8455     :.Q...S...T..,U.
    adc4:	42f2 8456 597b 8457 7091 8458 8832 8459     .BV.{YW..pX.2.Y.
    add4:	a060 845a b91b 845b d263 845c ec39 845d     `.Z...[.c.\.9.].
    ade4:	069e 845f 2191 8460 3d13 8461 5925 8462     .._..!`..=a.%Yb.
    adf4:	75c6 8463 92f8 8464 b0bb 8465 cf0f 8466     .uc...d...e...f.
    ae04:	edf5 8467 0d6d 8469 2d77 846a 4e15 846b     ..g.m.i.w-j..Nk.
    ae14:	6f45 846c 910a 846d b363 846e d650 846f     Eol...m.c.n.P.o.
    ae24:	f9d3 8470 1deb 8472 429a 8473 67df 8474     ..p...r..Bs..gt.
    ae34:	8dbb 8475 b42f 8476 db3a 8477 02de 8479     ..u./.v.:.w...y.
    ae44:	2b1a 847a 53f0 847b 7d60 847c a769 847d     .+z..S{.`}|.i.}.
    ae54:	d20e 847e fd4e 847f 2929 8481 55a0 8482     ..~.N...))...U..
    ae64:	82b4 8483 b065 8484 deb4 8485 0da0 8487     ....e...........
    ae74:	3d2b 8488 6d55 8489 9e1f 848a cf88 848b     +=..Um..........
    ae84:	0192 848d 343d 848e 678a 848f 9b78 8490     ....=4...g..x...
    ae94:	d009 8491 053c 8493 3b13 8494 718f 8495     ....<....;...q..
    aea4:	a8ae 8496 e073 8497 18dd 8499 51ed 849a     ....s........Q..
    aeb4:	8ba3 849b c601 849c 0106 849e 3cb3 849f     .............<..
    aec4:	7909 84a0 b608 84a1 f3b1 84a2 3204 84a4     .y...........2..
    aed4:	7101 84a5 b0aa 84a6 f0ff 84a7 3200 84a9     .q...........2..
    aee4:	73ae 84aa b609 84ab f912 84ac 3cca 84ae     .s...........<..
    aef4:	8131 84af c648 84b0 0c0f 84b2 5286 84b3     1...H........R..
    af04:	99af 84b4 e18a 84b5 2a17 84b7 7357 84b8     .........*..Ws..
    af14:	bd4b 84b9 07f3 84bb 5350 84bc 9f62 84bd     K.......PS..b...
    af24:	ec2a 84be 39a8 84c0 87de 84c1 d6cb 84c2     *....9..........
    af34:	2671 84c4 76cf 84c5 c7e7 84c6 19b9 84c8     q&...v..........
    af44:	6c45 84c9 bf8d 84ca 1390 84cc 6850 84cd     El..........Ph..
    af54:	bdcd 84ce 1408 84d0 6b01 84d1 c2b9 84d2     .........k......
    af64:	1b31 84d4 7469 84d5 ce61 84d6 291b 84d8     1...it..a....)..
    af74:	8498 84d9 e0d6 84da 3dd9 84dc 9b9f 84dd     .........=......
    af84:	fa29 84de 597a 84e0 b990 84e1 1a6c 84e3     )...zY......l...
    af94:	7c10 84e4 de7c 84e5 41b0 84e7 a5ad 84e8     .|..|....A......
    afa4:	0a75 84ea 7007 84eb d664 84ec 3d8d 84ee     u....p..d....=..
    afb4:	a583 84ef 0e46 84f1 77d7 84f2 e237 84f3     ....F....w..7...
    afc4:	4d66 84f5 b965 84f6 2634 84f8 93d6 84f9     fM..e...4&......
    afd4:	0249 84fb 718f 84fc e1a9 84fd 5297 84ff     I....q.......R..
    afe4:	c45a 8500 36f3 8502 aa62 8503 1ea8 8505     Z....6..b.......
    aff4:	93c7 8506 09be 8508 808e 8509 f838 850a     ............8...
    b004:	70bd 850c ea1e 850d 645b 850f df76 8510     .p......[d..v...
    b014:	5b6e 8512 d845 8513 55fb 8515 d491 8516     n[..E....U......
    b024:	5408 8518 d461 8519 559d 851b d7bb 851c     .T..a....U......
    b034:	5abe 851e dea5 851f 6373 8521 e926 8522     .Z......sc!.&.".
    b044:	6fc1 8524 f744 8525 7faf 8527 0905 8529     .o$.D.%...'...).
    b054:	9344 852a 1e6f 852c aa87 852d 378b 852f     D.*.o.,...-..7/.
    b064:	c57c 8530 545d 8532 e42d 8533 74ed 8535     |.0.]T2.-.3..t5.
    b074:	069e 8537 9941 8538 2cd7 853a c161 853b     ..7.A.8..,:.a.;.
    b084:	56df 853d ed53 853e 84bd 8540 1d1e 8542     .V=.S.>...@...B.
    b094:	b677 8543 50c9 8545 ec14 8546 885b 8548     w.C..PE...F.[.H.
    b0a4:	259d 854a c3dc 854b 6317 854d 0352 854f     .%J...K..cM.R.O.
    b0b4:	a48b 8550 46c5 8552 e9ff 8553 8e3c 8555     ..P..FR...S.<.U.
    b0c4:	337b 8557 d9bf 8558 8107 855a 2954 855c     {3W...X...Z.T)\.
    b0d4:	d2a9 855d 7d05 855f 286a 8561 d4d8 8562     ..]..}_.j(a...b.
    b0e4:	8250 8564 30d5 8566 e065 8567 9103 8569     P.d..0f.e.g...i.
    b0f4:	42b0 856b f56b 856c a938 856e 5e15 8570     .Bk.k.l.8.n..^p.
    b104:	1405 8572 cb09 8573 8321 8575 3c4e 8577     ..r...s.!.u.N<w.
    b114:	f692 8578 b1ed 857a 6e61 857c 2bee 857e     ..x...z.an|..+~.
    b124:	ea96 857f aa5a 8581 6b3b 8583 2d39 8585     ....Z...;k..9-..
    b134:	f056 8586 b493 8588 79f1 858a 4071 858c     V........y..q@..
    b144:	0814 858e d0dc 858f 9ac9 8591 65dc 8593     .............e..
    b154:	3217 8595 ff7b 8596 ce08 8598 9dc0 859a     .2..{...........
    b164:	6ea5 859c 40b7 859e 13f7 85a0 e866 85a1     .n...@......f...
    b174:	be06 85a3 94d8 85a5 6cdd 85a7 4616 85a9     .........l...F..
    b184:	2084 85ab fc29 85ac d906 85ae b71b 85b0     . ..)...........
    b194:	966b 85b2 76f6 85b4 58bd 85b6 3bc3 85b8     k....v...X...;..
    b1a4:	2007 85ba 058b 85bc ec51 85bd d459 85bf     . ......Q...Y...
    b1b4:	bda6 85c1 a838 85c3 9410 85c5 8130 85c7     ....8.......0...
    b1c4:	6f98 85c9 5f4c 85cb 504b 85cd 4296 85cf     .o..L_..KP...B..
    b1d4:	3630 85d1 2b1a 85d3 2154 85d5 18e0 85d7     06...+..T!......
    b1e4:	11c0 85d9 0bf5 85db 0780 85dd 0463 85df     ............c...
    b1f4:	029e 85e1 0234 85e3 0325 85e5 0574 85e7     ....4...%...t...
    b204:	0920 85e9 0e2d 85eb 149b 85ed 1c6c 85ef      ...-.......l...
    b214:	25a0 85f1 303a 85f3 3c3b 85f5 49a5 85f7     .%..:0..;<...I..
    b224:	5878 85f9 68b6 85fb 7a62 85fd 8d7b 85ff     xX...h..bz..{...
    b234:	a204 8601 b7ff 8603 cf6c 8605 e84d 8607     ........l...M...
    b244:	02a4 860a 1e72 860c 3bb9 860e 5a7b 8610     ....r....;..{Z..
    b254:	7ab8 8612 9c73 8614 bfac 8616 e466 8618     .z..s.......f...
    b264:	0aa3 861b 3263 861d 5ba8 861f 8675 8621     ....c2...[..u.!.
    b274:	b2ca 8623 e0a9 8625 1014 8628 410c 862a     ..#...%...(..A*.
    b284:	7394 862c a7ac 862e dd57 8630 1496 8633     .s,.....W.0...3.
    b294:	4d6a 8635 87d7 8637 c3dc 8639 017d 863c     jM5...7...9.}.<.
    b2a4:	40ba 863e 8196 8640 c411 8642 082f 8645     .@>...@...B./.E.
    b2b4:	4df1 8647 9558 8649 de66 864b 291d 864e     .MG.X.I.f.K..)N.
    b2c4:	757f 8650 c38e 8652 134b 8655 64b9 8657     .uP...R.K.U..dW.
    b2d4:	b7d9 8659 0cad 865c 6337 865e bb79 8660     ..Y...\.7c^.y.`.
    b2e4:	1574 8663 712b 8665 cea0 8667 2dd4 866a     t.c.+qe...g..-j.
    b2f4:	8eca 866c f183 866e 5601 8671 bc46 8673     ..l...n..Vq.F.s.
    b304:	2455 8676 8e2f 8678 f9d6 867a 674d 867d     U$v./.x...z.Mg}.
    b314:	d695 867f 47b0 8682 baa0 8684 2f68 8687     .....G......h/..
    b324:	a60a 8689 1e87 868c 98e2 868e 151d 8691     ................
    b334:	9339 8693 133a 8696 9521 8698 18f0 869b     9...:...!.......
    b344:	9eaa 869d 2651 86a0 afe7 86a2 3b6e 86a5     ....Q&......n;..
    b354:	c8e8 86a7 5858 86aa e9c0 86ac 7d22 86af     ....XX......"}..
    b364:	1281 86b2 a9de 86b4 433d 86b7 de9f 86b9     ........=C......
    b374:	7c06 86bc 1b76 86bf bcf0 86c1 6077 86c4     .|..v.......w`..
    b384:	060d 86c7 adb5 86c9 5771 86cc 0343 86cf     ........qW..C...
    b394:	b12e 86d1 6135 86d4 135a 86d7 c79f 86d9     ....5a..Z.......
    b3a4:	7e07 86dc 3694 86df f149 86e1 ae29 86e4     .~...6..I...)...
    b3b4:	6d36 86e7 2e73 86ea f1e2 86ec b786 86ef     6m..s...........
    b3c4:	7f62 86f2 4977 86f5 15ca 86f8 e45d 86fa     b...wI......]...
    b3d4:	b531 86fd 884b 8700 5dad 8703 3559 8706     1...K....]..Y5..
    b3e4:	0f52 8709 eb9c 870b ca38 870e ab2b 8711     R.......8...+...
    b3f4:	8e75 8714 741c 8717 5c21 871a 4687 871d     u....t..!\...F..
    b404:	3351 8720 2282 8723 141d 8726 0826 8729     Q3 .."#...&.&.).
    b414:	fe9e 872b f78a 872e f2eb 8731 f0c6 8734     ..+.......1...4.
    b424:	f11d 8737 f3f3 873a f94c 873d 012a 8741     ..7...:.L.=.*.A.
    b434:	0b91 8744 1884 8747 2806 874a 3a1b 874d     ..D...G..(J..:M.
    b444:	4ec5 8750 6607 8753 7fe6 8756 9c64 8759     .NP..fS...V.d.Y.
    b454:	bb85 875c dd4c 875f 01bc 8763 28da 8766     ..\.L._...c..(f.
    b464:	52a7 8769 7f28 876c ae60 876f e053 8772     .Ri.(.l.`.o.S.r.
    b474:	1504 8776 4c77 8779 86ae 877c c3af 877f     ..v.wLy...|.....
    b484:	037c 8783 4618 8786 8b89 8789 d3d0 878c     |....F..........
    b494:	1ef3 8790 6cf5 8793 bdd8 8796 11a3 879a     .....l..........
    b4a4:	6857 879d c1f9 87a0 1e8c 87a4 7e16 87a7     Wh...........~..
    b4b4:	e099 87aa 4619 87ae ae9a 87b1 1a21 87b5     .....F......!...
    b4c4:	88b2 87b8 fa4f 87bb 6efe 87bf e6c3 87c2     ....O....n......
    b4d4:	61a2 87c6 df9e 87c9 60bc 87cd e501 87d0     .a.......`......
    b4e4:	6c70 87d4 f70d 87d7 84de 87db 15e6 87df     pl..............
    b4f4:	aa2a 87e2 41ae 87e6 dc77 87e9 7a88 87ed     *....A..w....z..
    b504:	1be7 87f1 c098 87f4 68a0 87f8 1403 87fc     .........h......
    b514:	c2c5 87ff 74ec 8803 2a7c 8807 e379 880a     .....t..|*..y...
    b524:	9fea 880e 5fd1 8812 2335 8816 ea19 8819     ....._..5#......
    b534:	b484 881d 8279 8821 53fe 8825 2918 8829     ....y.!..S%..)).
    b544:	01cc 882d de1e 8830 be14 8834 a1b4 8838     ..-...0...4...8.
    b554:	8901 883c 7402 8840 62bc 8844 5534 8848     ..<..t@..bD.4UH.
    b564:	4b6f 884c 4573 8850 4345 8854 44eb 8858     oKL.sEP.ECT..DX.
    b574:	4a6a 885c 53c7 8860 6109 8864 7234 8868     jJ\..S`..ad.4rh.
    b584:	874f 886c a05f 8870 bd6a 8874 de76 8878     O.l._.p.j.t.v.x.
    b594:	0388 887d 2ca7 8881 59d8 8885 8b21 8889     ..}..,...Y..!...
    b5a4:	c088 888d fa14 8891 37cb 8896 79b2 889a     .........7...y..
    b5b4:	bfd0 889e 0a2b 88a3 58c9 88a7 abb1 88ab     ....+....X......
    b5c4:	02ea 88b0 5e78 88b4 be64 88b8 22b3 88bd     ....x^..d...."..
    b5d4:	8b6d 88c1 f897 88c5 6a39 88ca e059 88ce     m.......9j..Y...
    b5e4:	5afe 88d3 da2f 88d7 5df3 88dc e651 88e0     .Z../....]..Q...
    b5f4:	734f 88e5 04f5 88ea 9b4b 88ee 3656 88f3     Os......K...V6..
    b604:	d61f 88f7 7aad 88fc 2407 8901 d234 8905     .....z...$..4...
    b614:	853c 890a 3d27 890f f9fc 8913 bbc3 8918     <...'=..........
    b624:	8283 891d 4e44 8922 1f0f 8927 f4eb 892b     ....DN"...'...+.
    b634:	cfe0 8930 aff6 8935 9535 893a 7fa6 893f     ..0...5.5.:...?.
    b644:	6f50 8944 643c 8949 5e72 894e 5dfb 8953     PoD.<dI.r^N..]S.
    b654:	62e0 8958 6d28 895d 7cdd 8962 9207 8967     .bX.(m]..|b...g.
    b664:	acb0 896c ccdf 8971 f29e 8976 1df6 897c     ..l...q...v...|.
    b674:	4ef0 8981 8596 8986 c1ef 898b 0407 8991     .N..............
    b684:	4be6 8996 9996 899b ed20 89a0 468e 89a6     .K...... ....F..
    b694:	a5ea 89ab 0b3e 89b1 7693 89b6 e7f3 89bb     ....>....v......
    b6a4:	5f69 89c1 dcff 89c6 60bf 89cc eab3 89d1     i_.......`......
    b6b4:	7ae7 89d7 1163 89dd ae34 89e2 5163 89e8     .z..c...4...cQ..
    b6c4:	fafc 89ed ab09 89f3 6195 89f9 1ead 89ff     .........a......
    b6d4:	e259 8a04 aca7 8a0a 7da2 8a10 5554 8a16     Y........}..TU..
    b6e4:	33ca 8a1c 190f 8a22 0530 8a28 f837 8a2d     .3....".0.(.7.-.
    b6f4:	f231 8a33 f32b 8a39 fb30 8a3f 0a4d 8a46     1.3.+.9.0.?.M.F.
    b704:	208e 8a4c 3e00 8a52 62af 8a58 8ea9 8a5e     . L..>R..bX...^.
    b714:	c1fa 8a64 fcaf 8a6a 3ed6 8a71 887c 8a77     ..d...j..>q.|.w.
    b724:	d9ae 8a7d 327a 8a84 92ee 8a8a fb17 8a90     ..}.z2..........
    b734:	6b02 8a97 e2c0 8a9d 625c 8aa4 e9e7 8aaa     .k......\b......
    b744:	796e 8ab1 10ff 8ab8 b0aa 8abe 587e 8ac5     ny..........~X..
    b754:	0889 8acc c0db 8ad2 8183 8ad9 4a90 8ae0     .............J..
    b764:	1c12 8ae7 f619 8aed d8b4 8af4 c3f5 8afb     ................
    b774:	b7ea 8b02 b4a4 8b09 ba35 8b10 c8ac 8b17     ........5.......
    b784:	e01a 8b1e 0091 8b26 2a21 8b2d 5cdd 8b34     ......&.!*-..\4.
    b794:	98d5 8b3b de1b 8b42 2cc1 8b4a 84da 8b51     ..;...B..,J...Q.
    b7a4:	e677 8b58 51aa 8b60 c687 8b67 4521 8b6f     w.X..Q`...g.!Eo.
    b7b4:	cd89 8b76 5fd4 8b7e fc15 8b85 a25f 8b8d     ..v.._~....._...
    b7c4:	52c7 8b95 0d5f 8b9d d23d 8ba4 a174 8bac     .R.._...=...t...
    b7d4:	7b1a 8bb4 5f42 8bbc 4e03 8bc4 4771 8bcc     .{..B_...N..qG..
    b7e4:	4ba2 8bd4 5aab 8bdc 74a2 8be4 999f 8bec     .K...Z...t......
    b7f4:	c9b5 8bf4 04fe 8bfd 4b8f 8c05 9d7f 8c0d     .........K......
    b804:	fae6 8c15 63db 8c1e d876 8c26 58d0 8c2f     .....c..v.&..X/.
    b814:	e500 8c37 7d20 8c40 2147 8c49 d190 8c51     ..7. }@.G!I...Q.
    b824:	8e13 8c5a 56ea 8c63 2c30 8c6c 0dfe 8c75     ..Z..Vc.0,l...u.
    b834:	fc70 8c7d f79f 8c86 ffa7 8c8f 14a4 8c99     p.}.............
    b844:	36b1 8ca2 65ea 8cab a26b 8cb4 ec52 8cbd     .6...e..k...R...
    b854:	43ba 8cc7 a8c2 8cd0 1b88 8cda 9c28 8ce3     .C..........(...
    b864:	2ac2 8ced c774 8cf6 725c 8d00 2b9b 8d0a     .*..t...\r...+..
    b874:	f351 8d13 c99c 8d1d ae9e 8d27 a277 8d31     Q.........'.w.1.
    b884:	a549 8d3b b735 8d45 d85d 8d4f 08e3 8d5a     I.;.5.E.].O...Z.
    b894:	48eb 8d64 9897 8d6e f80b 8d78 676b 8d83     .Hd...n...x.kg..
    b8a4:	e6dc 8d8d 7682 8d98 1682 8da3 c703 8dad     .....v..........
    b8b4:	882a 8db8 5a1e 8dc3 3d06 8dce 310a 8dd9     *....Z...=...1..
    b8c4:	3652 8de4 4d07 8def 7551 8dfa af5a 8e05     R6...M..Qu..Z...
    b8d4:	fb4b 8e10 5951 8e1c c995 8e27 4c43 8e33     K...QY....'.CL3.
    b8e4:	e188 8e3e 898f 8e4a 4487 8e56 129e 8e62     ..>...J..DV...b.
    b8f4:	f400 8e6d e8de 8e79 f168 8e85 0dcc 8e92     ..m...y.h.......
    b904:	3e3c 8e9e 82ea 8eaa dc07 8eb6 49c6 8ec3     <>...........I..
    b914:	cc5b 8ecf 63f9 8edc 10d4 8ee9 d323 8ef5     [....c......#...
    b924:	ab1b 8f02 98f3 8f0f 9ce2 8f1c b721 8f29     ............!.).
    b934:	e7e8 8f36 2f71 8f44 8df6 8f51 03b3 8f5f     ..6.q/D...Q..._.
    b944:	90e3 8f6c 35c4 8f7a f292 8f87 c78c 8f95     ..l..5z.........
    b954:	b4f2 8fa3 bb03 8fb1 da00 8fbf 122b 8fce     ............+...
    b964:	63c7 8fdc cf18 8fea 5462 8ff9 f3ea 9007     .c......bT......
    b974:	adf7 9016 82d0 9025 72be 9034 7e0b 9043     ......%..r4..~C.
    b984:	a500 9052 e7e9 9061 4713 9071 c2cb 9080     ..R...a..Gq.....
    b994:	5b61 9090 1123 90a0 e463 90af d574 90bf     a[..#...c...t...
    b9a4:	e4a7 90cf 1253 90e0 5ecc 90f0 ca6a 9100     ....S....^..j...
    b9b4:	5584 9111 0075 9122 cb97 9132 b747 9143     .U..u."...2.G.C.
    b9c4:	c3e2 9154 f1c6 9165 4155 9177 b2ef 9188     ..T...e.UAw.....
    b9d4:	46f9 919a fdd7 91ab d7ee 91bd d5a8 91cf     .F..............
    b9e4:	f76d 91e1 3da7 91f4 a8c5 9206 3933 9219     m....=......39..
    b9f4:	ef62 922b cbc3 923e ceca 9251 f8ec 9264     b.+...>...Q...d.
    ba04:	4aa0 9278 c45e 928b 66a2 929f 31e8 92b3     .Jx.^....f...1..
    ba14:	26b0 92c7 4578 92db 8ec5 92ef 031a 9304     .&..xE..........
    ba24:	a300 9318 6efe 932d 67a1 9342 8d75 9357     .....n-..gB.u.W.
    ba34:	e10a 936c 62f4 9382 13c5 9398 f416 93ad     ..l..b..........
    ba44:	0480 93c4 459e 93da b810 93f0 5c76 9407     .....E......v\..
    ba54:	3375 941e 3db4 9435 7bdb 944c ee97 9463     u3...=5..{L...c.
    ba64:	9697 947b 748f 9493 8932 94ab d53a 94c3     ..{..t..2...:...
    ba74:	5962 94dc 1669 94f5 0d11 950e 3e1f 9527     bY..i........>'.
    ba84:	aa5e 9540 5298 955a 379f 9574 5a46 958e     ^.@..RZ..7t.FZ..
    ba94:	bb65 95a8 5bd6 95c3 3c7a 95de 5e34 95f9     e....[..z<..4^..
    baa4:	c1eb 9614 688b 9630 5304 964c 8249 9668     .....h0..SL.I.h.
    bab4:	f754 9684 b323 96a1 b6b6 96be 0315 96dc     T...#...........
    bac4:	994b 96f9 7a69 9717 a785 9735 21b9 9754     K...iz....5..!T.
    bad4:	ea26 9772 01f2 9792 6a48 97b1 2459 97d1     &.r.....Hj..Y$..
    bae4:	315c 97f1 928e 9811 4931 9832 568f 9853     \1......1I2..VS.
    baf4:	bbf8 9874 7ac2 9896 944a 98b8 09f3 98db     ..t..z..J.......
    bb04:	dd29 98fd 0f5d 9921 a20a 9944 96af 9968     )...].!...D...h.
    bb14:	eed6 998c ac0f 99b1 cff3 99d6 5c23 99fc     ............#\..
    bb24:	5248 9a22 b415 9a48 8346 9a6f c19d 9a96     HR"...H.F.o.....
    bb34:	70ea 9abe 9303 9ae6 29c9 9b0f 3728 9b38     .p.......)..(78.
    bb44:	bd15 9b61 bd91 9b8b 3aa6 9bb6 366b 9be1     ..a......:..k6..
    bb54:	b301 9c0c b296 9c38 3762 9c65 43ac 9c92     ......8.b7e..C..
    bb64:	d9c5 9cbf fc0d 9ced acf0 9d1c eee8 9d4b     ..............K.
    bb74:	c47d 9d7b 3046 9dac 34e6 9ddd d514 9e0e     }.{.F0...4......
    bb84:	1391 9e41 f331 9e73 76d9 9ea7 a17b 9edb     ..A.1.s..v..{...
    bb94:	761f 9f10 f7da 9f45 29d6 9f7c 0f4f 9fb3     .v....E..)|.O...
    bba4:	ab93 9fea 0204 a023 1619 a05c eb5d a095     ......#...\.]...
    bbb4:	856e a0d0 e803 a10b 16e7 a148 15fe a185     n.........H.....
    bbc4:	e93f a1c2 94bf a201 1ca6 a241 853a a281     ?.........A.:...
    bbd4:	d2d8 a2c2 09f9 a305 2f30 a348 472e a38c     ........0/H..G..
    bbe4:	56c0 a3d1 62d0 a417 7067 a45e 84ae a4a6     .V...b..gp^.....
    bbf4:	a4eb a4ef d689 a539 1f11 a585 8431 a5d1     ......9.....1...
    bc04:	0bb9 a61f bb9e a66d 99fa a6bd ad0d a70e     ......m.........
    bc14:	fb3e a760 8b1d a7b4 6362 a809 8af0 a85f     >.`.....bc...._.
    bc24:	08d5 a8b7 e44a a90f 24b7 a96a d1b2 a9c5     ....J....$j.....
    bc34:	f2fe aa22 9091 aa81 b291 aae1 6158 ab43     ..".........XaC.
    bc44:	a572 aba6 87a1 ac0b 10dc ac72 4a52 acda     r.........r.RJ..
    bc54:	3d68 ad44 f3be adaf 772c ae1d d1c7 ae8c     h=D.....,w......
    bc64:	0ddf aefe 3600 af71 54f6 afe6 75c9 b05d     .....6q..T...u].
    bc74:	a3c2 b0d6 ea6a b151 558a b1cf f12c b24e     ....j.Q..U..,.N.
    bc84:	c99d b2d0 eb69 b354 6362 b3db 3e9a b464     ....i.T.bc...>d.
    bc94:	8a63 b4ef 5455 b57d aa46 b60d 9a4d b6a0     c...UT}.F...M...
    bca4:	32c2 b736 823a b7ce 9787 b869 81b5 b907     .26.:.....i.....
    bcb4:	500c b9a8 1207 ba4c d756 baf2 afd9 bb9c     .P....L.V.......
    bcc4:	ab9e bc49 dad7 bcf9 4ddc bdad 1524 be64     ..I......M..$.d.
    bcd4:	413a bf1e e2be bfdb 0a56 c09d c8ac c161     :A......V.....a.
    bce4:	2e63 c22a 4c0a c2f6 3216 c3c6 f0d5 c499     c.*..L...2......
    bcf4:	985f c571 388d c64d e0e5 c72c a091 c810     _.q..8M...,.....
    bd04:	8648 c8f8 a03d c9e4 fc13 cad4 a6bd cbc9     H...=...........
    bd14:	ac75 ccc2 189d cdc0 f5ab cec1 4d0e cfc8     u............M..
    bd24:	271b d0d3 8ae8 d1e2 7e3d d2f6 056c d40f     .'......=~..l...
    bd34:	233d d52c d8ce d64d 2576 d774 06a6 d89f     =#,...M.v%t.....
    bd44:	77d0 d9ce 7248 db02 ed26 dc3a dd2f dd77     .w..Hr..&.:./.w.
    bd54:	34bb deb9 e39b dffe d707 e148 f985 e296     .4........H.....
    bd64:	32e0 e3e9 6816 e53f 7b4e e699 4bd6 e7f7     .2...h?.N{...K..
    bd74:	b61d e958 93bc eabd bb75 ec25 0149 ed91     ..X.....u.%.I...
    bd84:	3685 eeff 29d9 f070 a777 f1e3 7934 f359     .6...)p.w...4yY.
    bd94:	66ae f4d1 357c f64b a957 f7c6 845a f943     .f..|5K.W...Z.C.
    bda4:	8733 fac1 7162 fc40 017a fdc0 f563 ff3f     3...bq@.z...c.?.
    bdb4:	0a9d 00c0 fe86 023f 8e9e 03bf 78cd 053e     ......?......x>.
    bdc4:	7ba6 06bc 56a9 0839 ca84 09b4 9952 0b2e     .{...V9.....R...
    bdd4:	86cc 0ca6 5889 0e1c d627 0f8f c97b 1100     .....X..'...{...
    bde4:	feb7 126e 448b 13da 6c44 1542 49e3 16a7     ..n..D..DlB..I..
    bdf4:	b42a 1808 84b2 1966 97ea 1ac0 cd20 1c16     *.....f..... ...
    be04:	067b 1d69 28f9 1eb7 1c65 2001 cb45 2146     {.i..(..e.. E.F!
    be14:	22d1 2288 12da 23c5 8db8 24fd 8830 2631     ."."...#...$0.1&
    be24:	f95a 2760 da8a 288b 2732 29b2 dcc3 2ad3     Z.`'...(2'.)...*
    be34:	fa94 2bf0 81c3 2d09 7518 2e1d d8e5 2f2c     ...+...-.u....,/
    be44:	b2f2 3037 0a55 313e e763 323f 538b 333d     ..70U.>1c.?2.S=3
    be54:	5943 3436 03ed 352b 5fc3 361b 79b8 3707     CY64..+5._.6.y.7
    be64:	5f6f 37ef 1f1b 38d3 c773 39b2 67a1 3a8e     o_.7...8s..9.g.:
    be74:	0f2b 3b66 cdea 3c39 b3f6 3d09 d19d 3dd5     +.f;..9<...=...=
    be84:	3754 3e9e f5aa 3f62 1d42 4024 bec6 40e1     T7.>..b?B.$@...@
    be94:	eadc 419b b224 4252 2529 4306 5462 43b6     ...A$.RB)%.CbT.C
    bea4:	5027 4463 28aa 450d edf9 45b3 aff4 4657     'PcD.(.E...E..WF
    beb4:	7e4b 46f8 6879 4796 7dc6 4831 cd3e 48c9     K~.Fyh.G.}1H>..H
    bec4:	65b3 495f 55ba 49f2 abab 4a82 759d 4b10     .e_I.U.I...J.u.K
    bed4:	c166 4b9b 9c9e 4c24 1497 4cab 3663 4d2f     f..K..$L...Lc6/M
    bee4:	0ed4 4db1 aa76 4e30 1596 4eae 5c3e 4f29     ...Mv.0N...N>\)O
    bef4:	8a37 4fa2 ab0a 5019 ca00 508e f221 5101     7..O...P...P!..Q
    bf04:	2e39 5173 88d4 51e2 0c42 5250 c298 52bb     9.sQ...QB.PR...R
    bf14:	b5ae 5325 ef24 538d 785f 53f4 5a8e 5459     ..%S$..S_x.S.ZYT
    bf24:	9ea8 54bc 4d6f 551e 6f6f 557e 0d02 55dd     ...ToM.Uoo~U...U
    bf34:	2e4e 563a db49 5695 1bb6 56f0 f72b 5748     N.:VI..V...V+.HW
    bf44:	7510 57a0 9c9e 57f6 74e3 584b 04c2 589f     .u.W...W.tKX...X
    bf54:	52f3 58f1 6606 5942 4462 5992 f447 59e0     .R.X.fBYbD.YG..Y
    bf64:	7bcf 5a2e e0ef 5a7a 2977 5ac6 5b15 5b10     .{.Z..zZw).Z.[.[
    bf74:	7b52 5b59 8f99 5ba1 9d30 5be8 a940 5c2e     R{Y[...[0..[@..\
    bf84:	b8d2 5c73 d0d0 5cb7 f607 5cfa 2d28 5d3d     ..s\...\...\(-=]
    bf94:	7ac6 5d7e e35a 5dbe 6b41 5dfe 16c1 5e3d     .z~]Z..]Ak.]..=^
    bfa4:	ea02 5e7a e919 5eb7 17fd 5ef4 7a92 5f2f     ..z^...^...^.z/_
    bfb4:	14a3 5f6a e9e7 5fa3 fdfc 5fdc 546d 6015     ..j_..._..._mT.`
    bfc4:	f0b1 604c d62a 6083 0826 60ba 89e1 60ef     ..L`*..`&..`...`
    bfd4:	5e85 6124 8927 6158 0ccf 618c ec6f 61be     .^$a'.Xa...ao..a
    bfe4:	2aec 61f1 cb1a 6222 cfba 6253 3b83 6284     .*.a.."b..Sb.;.b
    bff4:	1118 62b4 5310 62e3 03f3 6312 263b 6340     ...b.S.b...c;&@c
    c004:	bc54 636d c89e 639a 4d6a 63c7 4cff 63f3     T.mc...cjM.c.L.c
    c014:	c995 641e c55a 6449 426f 6474 42eb 649e     ...dZ.IdoBtd.B.d
    c024:	c8d8 64c7 d637 64f0 6cfd 6519 8f16 6541     ...d7..d.l.e..Ae
    c034:	3e63 6569 7cba 6590 4beb 65b7 adb8 65dd     c>ie.|.e.K.e...e
    c044:	a3dd 6603 300d 6629 53f1 664e 112a 6673     ...f.0)f.SNf*.sf
    c054:	6951 6697 5df6 66bb f0a3 66de 22d7 6702     Qi.f.].f...f.".g
    c064:	f60d 6724 6bb6 6747 853e 6769 4408 678b     ..$g.kGg>.ig.D.g
    c074:	a971 67ac b6cf 67cd 6d72 67ee cea4 680e     q..g...grm.g...h
    c084:	dba7 682e 95b8 684e fe0e 686d 15da 688d     ...h..Nh..mh...h
    c094:	de47 68ab 587b 68ca 8597 68e8 66b5 6906     G..h{X.h...h.f.i
    c0a4:	fceb 6923 494a 6941 4cdd 695e 08ac 697b     ..#iJIAi.L^i..{i
    c0b4:	7db7 6997 acfc 69b3 9775 69cf 3e15 69eb     .}.i...iu..i.>.i
    c0c4:	a1cc 6a06 c386 6a21 a42a 6a3c 449b 6a57     ...j..!j*.<j.DWj
    c0d4:	a5ba 6a71 c861 6a8b ad68 6aa5 55a2 6abf     ..qja..jh..j.U.j
    c0e4:	c1e1 6ad8 f2ef 6af1 e997 6b0a a69e 6b23     ...j...j...k..#k
    c0f4:	2ac6 6b3c 76ce 6b54 8b71 6b6c 6969 6b84     .*<k.vTkq.lkii.k
    c104:	1169 6b9c 8425 6bb3 c24c 6bca cc8b 6be1     i..k%..kL..k...k
    c114:	a38a 6bf8 47f0 6c0f ba62 6c25 fb80 6c3b     ...k.G.lb.%l..;l
    c124:	0bea 6c52 ec3b 6c67 9d0c 6c7d 1ef6 6c93     ..Rl;.gl..}l...l
    c134:	728b 6ca8 985f 6cbd 9102 6cd2 5d00 6ce7     .r.l_..l...l.].l
    c144:	fce6 6cfb 713b 6d10 ba88 6d24 d950 6d38     ...l;q.m..$mP.8m
    c154:	ce18 6d4c 995e 6d60 3ba2 6d74 b560 6d87     ..Lm^.`m.;tm`..m
    c164:	0714 6d9b 3136 6dae 343d 6dc1 109e 6dd4     ...m61.m=4.m...m
    c174:	c6cd 6de6 573b 6df9 c259 6e0b 0893 6e1e     ...m;W.mY..n...n
    c184:	2a58 6e30 2812 6e42 0229 6e54 b907 6e65     X*0n.(Bn).Tn..en
    c194:	4d11 6e77 beab 6e88 0e3a 6e9a 3c1e 6eab     .Mwn...n:..n.<.n
    c1a4:	48b9 6ebc 3469 6ecd ff8b 6edd aa7c 6eee     .H.ni4.n...n|..n
    c1b4:	3596 6eff a134 6f0f edad 6f1f 1b59 6f30     .5.n4..o...oY.0o
    c1c4:	2a8c 6f40 1b9d 6f50 eedd 6f5f a49f 6f6f     .*@o..Po.._o..oo
    c1d4:	3d35 6f7f b8ed 6f8e 1817 6f9e 5b00 6fad     5=.o...o...o.[.o
    c1e4:	81f5 6fbc 8d42 6fcb 7d30 6fda 5209 6fe9     ...oB..o0}.o.R.o
    c1f4:	0c16 6ff8 ab9e 7006 30e8 7015 9c39 7023     ...o...p.0.p9.#p
    c204:	edd5 7031 2600 7040 44fd 704e 4b0e 705c     ..1p.&@p.DNp.K\p
    c214:	3874 706a 0d6e 7078 ca3c 7085 6f1d 7093     t8jpn.xp<..p.o.p
    c224:	fc4d 70a0 720a 70ae d08f 70bb 1818 70c9     M..p.r.p...p...p
    c234:	48df 70d6 631e 70e3 670d 70f0 54e5 70fd     .H.p.c.p.g.p.T.p
    c244:	2cdd 710a ef2c 7116 9c07 7123 33a5 7130     .,.q,..q..#q.30q
    c254:	b63a 713c 23f9 7149 7d16 7155 c1c4 7161     :.<q.#Iq.}Uq..aq
    c264:	f234 716d 0e98 717a 1722 7186 0c00 7192     4.mq..zq"..q...q
    c274:	ed62 719d bb79 71a9 7671 71b5 1e78 71c1     b..qy..qqv.qx..q
    c284:	b3bd 71cc 366b 71d8 a6af 71e3 04b5 71ef     ...qk6.q...q...q
    c294:	50a6 71fa 8aaf 7205 b2f9 7210 c9ae 721b     .P.q...r...r...r
    c2a4:	cef6 7226 c2fa 7231 a5e2 723c 77d6 7247     ..&r..1r..<r.wGr
    c2b4:	38fd 7252 e97e 725c 897e 7267 1924 7272     .8Rr~.\r~.gr$.rr
    c2c4:	9895 727c 07f5 7287 6769 7291 b715 729b     ..|r...rig.r...r
    c2d4:	f71d 72a5 27a3 72b0 48cb 72ba 5ab7 72c4     ...r.'.r.H.r.Z.r
    c2e4:	5d89 72ce 5162 72d8 3664 72e2 0caf 72ec     .].rbQ.rd6.r...r
    c2f4:	d465 72f5 8da4 72ff 388c 7309 d53e 7312     e..r...r.8.s>..s
    c304:	63d8 731c e478 7325 573e 732f bc46 7338     .c.sx.%s>W/sF.8s
    c314:	13ae 7342 5d95 734b 9a16 7354 c94f 735d     ..Bs.]Ks..TsO.]s
    c324:	eb5c 7366 0059 7370 0861 7379 0390 7382     \.fsY.psa.ys...s
    c334:	f202 738a d3d0 7393 a916 739c 71ed 73a5     ...s...s...s.q.s
    c344:	2e70 73ae deb9 73b6 82e0 73bf 1b00 73c8     p..s...s...s...s
    c354:	a730 73d0 278a 73d9 9c25 73e1 051a 73ea     0..s.'.s%..s...s
    c364:	6281 73f2 b471 73fa fb02 7402 364b 740b     .b.sq..s...tK6.t
    c374:	6661 7413 8b5e 741b a555 7423 b45e 742b     af.t^..tU.#t^.+t
    c384:	b88f 7433 b1fd 743b a0be 7443 84e6 744b     ..3t..;t..Ct..Kt
    c394:	5e8c 7453 2dc3 745b f2a1 7462 ad39 746a     .^St.-[t..bt9.jt
    c3a4:	5da1 7472 03eb 747a a02c 7481 3277 7489     .]rt..zt,..tw2.t
    c3b4:	badf 7490 3979 7498 ae56 749f 1989 74a7     ...ty9.tV..t...t
    c3c4:	7b26 74ae d33f 74b5 21e5 74bd 672b 74c4     &{.t?..t.!.t+g.t
    c3d4:	a323 74cb d5df 74d2 ff6f 74d9 1fe6 74e1     #..t...to..t...t
    c3e4:	3754 74e8 45cb 74ef 4b5c 74f6 4816 74fd     T7.t.E.t\K.t.H.t
    c3f4:	3c0b 7504 274c 750b 09e7 7512 e3ee 7518     .<.uL'.u...u...u
    c404:	b570 751f 7e7d 7526 3f25 752d f777 7533     p..u}~&u%?-uw.3u
    c414:	a782 753a 4f56 7541 ef01 7547 8692 754e     ..:uVOAu..Gu..Nu
    c424:	1619 7555 9da4 755b 1d40 7562 94fe 7568     ..Uu..[u@.bu..hu
    c434:	04e9 756f 6d12 7575 cd86 757b 2652 7582     ..ou.muu..{uR&.u
    c444:	7784 7588 c12a 758e 0351 7595 3e06 759b     .w.u*..uQ..u.>.u
    c454:	7157 75a1 9d51 75a7 c200 75ad df72 75b3     Wq.uQ..u...ur..u
    c464:	f5b3 75b9 04d0 75c0 0cd5 75c6 0dcf 75cc     ...u...u...u...u
    c474:	07c9 75d2 fad0 75d7 e6f1 75dd cc36 75e3     ...u...u...u6..u
    c484:	aaac 75e9 825e 75ef 5359 75f5 1da7 75fb     ...u^..uYS.u...u
    c494:	e153 7600 9e6b 7606 54f7 760c 0504 7612     S..vk..v.T.v...v
    c4a4:	ae9d 7617 51cc 761d ee9d 7622 8519 7628     ...v.Q.v.."v..(v
    c4b4:	154d 762e 9f41 7633 2301 7639 a097 763e     M..vA.3v.#9v..>v
    c4c4:	180d 7644 896d 7649 f4c2 764e 5a16 7654     ..Dvm.Iv..Nv.ZTv
    c4d4:	b972 7659 12e0 765f 666a 7664 b41a 7669     r.Yv.._vjfdv..iv
    c4e4:	fbf9 766e 3e11 7674 7a6a 7679 b110 767e     ..nv.>tvjzyv..~v
    c4f4:	e20a 7683 0d62 7689 3321 768e 5350 7693     ...vb..v!3.vPS.v
    c504:	6df9 7698 8323 769d 92d8 76a2 9d20 76a7     .m.v#..v...v ..v
    c514:	a205 76ac a18e 76b1 9bc4 76b6 90b0 76bb     ...v...v...v...v
    c524:	805a 76c0 6acb 76c5 500a 76ca 3020 76cf     Z..v.j.v.P.v 0.v
    c534:	0b15 76d4 e0f1 76d8 b1bc 76dd 7d7d 76e2     ...v...v...v}}.v
    c544:	443d 76e7 0604 76ec c2d9 76f0 7ac4 76f5     =D.v...v...v.z.v
    c554:	2dcc 76fa dbf9 76fe 8553 7703 29e1 7708     .-.v...vS..w.).w
    c564:	c9aa 770c 64b5 7711 fb0b 7715 8cb1 771a     ...w.d.w...w...w
    c574:	19af 771f a20d 7723 25d1 7728 a502 772c     ...w..#w.%(w..,w
    c584:	1fa7 7731 95c7 7735 0769 773a 7493 773e     ..1w..5wi.:w.t>w
    c594:	dd4d 7742 419c 7747 a188 774b fd16 774f     M.Bw.AGw..Kw..Ow
    c5a4:	544f 7754 a737 7758 f5d5 775c 4030 7761     OTTw7.Xw..\w0@aw
    c5b4:	864e 7765 c835 7769 05ec 776e 3f78 7772     N.ew5.iw..nwx?rw
    c5c4:	74df 7776 a628 777a d359 777e fc78 7782     .tvw(.zwY.~wx..w
    c5d4:	218a 7787 4296 778b 5fa1 778f 78b1 7793     .!.w.B.w._.w.x.w
    c5e4:	8dcc 7797 9ef7 779b ac39 779f b596 77a3     ...w...w9..w...w
    c5f4:	bb15 77a7 bcbb 77ab ba8d 77af b491 77b3     ...w...w...w...w
    c604:	aacc 77b7 9d44 77bb 8bfe 77bf 76ff 77c3     ...wD..w...w.v.w
    c614:	5e4c 77c7 41ec 77cb 21e2 77cf fe34 77d2     L^.w.A.w.!.w4..w
    c624:	d6e8 77d6 ac02 77da 7d87 77de 4b7c 77e2     ...w...w.}.w|K.w
    c634:	15e7 77e6 dccb 77e9 a02f 77ed 6016 77f1     ...w...w/..w.`.w
    c644:	1c87 77f5 d584 77f8 8b14 77fc 3d3b 7800     ...w...w...w;=.x
    c654:	ebfd 7803 9760 7807 3f68 780b e419 780e     ...x`..xh?.x...x
    c664:	8578 7812 2389 7816 be52 7819 55d6 781d     x..x.#.xR..x.U.x
    c674:	ea1a 7820 7b22 7824 08f3 7828 9390 782b     .. x"{$x..(x..+x
    c684:	1aff 782f 9f44 7832 2062 7836 9e5e 7839     ../xD.2xb 6x^.9x
    c694:	193d 783d 9102 7840 05b1 7844 774e 7847     =.=x..@x..DxNwGx
    c6a4:	e5df 784a 5166 784e b9e7 7851 1f67 7855     ..JxfQNx..Qxg.Ux
    c6b4:	81ea 7858 e174 785b 3e07 785f 97a9 7862     ..Xxt.[x.>_x..bx
    c6c4:	ee5d 7865 4228 7869 930b 786c e10d 786f     ].ex(Bix..lx..ox
    c6d4:	2c30 7873 7477 7876 b9e8 7879 fc84 787c     0,sxwtvx..yx..|x
    c6e4:	3c51 7880 7952 7883 b389 7886 eafc 7889     Q<.xRy.x...x...x
    c6f4:	1fad 788d 51a0 7890 80d8 7893 ad59 7896     ...x.Q.x...xY..x
    c704:	d726 7899 fe44 789c 22b4 78a0 447b 78a3     &..xD..x.".x{D.x
    c714:	639c 78a6 801a 78a9 99f9 78ac b13b 78af     .c.x...x...x;..x
    c724:	c5e5 78b2 d7fa 78b5 e77c 78b8 f46f 78bb     ...x...x|..xo..x
    c734:	fed6 78be 06b4 78c2 0c0d 78c5 0ee3 78c8     ...x...x...x...x
    c744:	0f3a 78cb 0d15 78ce 0876 78d1 0162 78d4     :..x...xv..xb..x
    c754:	f7da 78d6 ebe3 78d9 dd7e 78dc ccaf 78df     ...x...x~..x...x
    c764:	b979 78e2 a3df 78e5 8be4 78e8 718b 78eb     y..x...x...x.q.x
    c774:	54d5 78ee 35c8 78f1 1464 78f4 f0ae 78f6     .T.x.5.xd..x...x
    c784:	caa7 78f9 a253 78fc 77b5 78ff 4acf 7902     ...xS..x.w.x.J.y
    c794:	1ba3 7905 ea36 7907 b689 790a 809e 790d     ...y6..y...y...y
    c7a4:	487a 7910 0e1e 7913 d18d 7915 92ca 7918     zH.y...y...y...y
    c7b4:	51d7 791b 0eb7 791e c96c 7920 81f9 7923     .Q.y...yl. y..#y
    c7c4:	3861 7926 eca6 7928 9ecb 792b 4ed2 792e     a8&y..(y..+y.N.y
    c7d4:	fcbd 7930 a88f 7933 524b 7936 f9f3 7938     ..0y..3yKR6y..8y
    c7e4:	9f89 793b 4310 793e e48a 7940 83fa 7943     ..;y.C>y..@y..Cy
    c7f4:	2161 7946 bcc3 7948 5622 794b ed7f 794d     a!Fy..Hy"VKy..My
    c804:	82de 7950 1640 7953 a7a8 7955 3718 7958     ..Py@.Sy..Uy.7Xy
    c814:	c492 795a 5019 795d d9af 795f 6156 7962     ..Zy.P]y.._yVaby
    c824:	e710 7964 6adf 7967 ecc6 7969 6cc7 796c     ..dy.jgy..iy.lly
    c834:	eae3 796e 671e 7971 e179 7973 59f6 7976     ..ny.gqyy.sy.Yvy
    c844:	d098 7978 4560 797b b850 797d 296b 7980     ..xy`E{yP.}yk).y
    c854:	98b3 7982 062a 7985 71d1 7987 dbab 7989     ...y*..y.q.y...y
    c864:	43ba 798c a9ff 798e 0e7d 7991 7136 7993     .C.y...y}..y6q.y
    c874:	d22c 7995 3160 7998 8ed5 799a ea8c 799c     ,..y`1.y...y...y
    c884:	4487 799f 9cc9 79a1 f353 79a3 4827 79a6     .D.y...yS..y'H.y
    c894:	9b47 79a8 ecb5 79aa 3c72 79ad 8a81 79af     G..y...yr<.y...y
    c8a4:	d6e3 79b1 219a 79b4 6aa8 79b6 b20f 79b8     ...y.!.y.j.y...y
    c8b4:	f7d1 79ba 3bef 79bd 7e6a 79bf bf46 79c1     ...y.;.yj~.yF..y
    c8c4:	fe83 79c3 3c24 79c6 7829 79c8 b296 79ca     ...y$<.y)x.y...y
    c8d4:	eb6a 79cc 22a9 79cf 5854 79d1 8c6c 79d3     j..y.".yTX.yl..y
    c8e4:	bef4 79d5 efec 79d7 1f57 79da 4d36 79dc     ...y...yW..y6M.y
    c8f4:	798b 79de a458 79e0 cd9d 79e2 f55d 79e4     .y.yX..y...y]..y
    c904:	1b9a 79e7 4054 79e9 638d 79eb 8548 79ed     ...yT@.y.c.yH..y
    c914:	a585 79ef c447 79f1 e18e 79f3 fd5c 79f5     ...yG..y...y\..y
    c924:	17b3 79f8 3094 79fa 4801 79fc 5dfc 79fe     ...y.0.y.H.y.].y
    c934:	7285 7a00 859e 7a02 974a 7a04 a788 7a06     .r.z...zJ..z...z
    c944:	b65b 7a08 c3c5 7a0a cfc6 7a0c da60 7a0e     [..z...z...z`..z
    c954:	e394 7a10 eb65 7a12 f1d3 7a14 f6e0 7a16     ...ze..z...z...z
    c964:	fa8c 7a18 fcdb 7a1a fdcc 7a1c fd62 7a1e     ...z...z...zb..z
    c974:	fb9d 7a20 f880 7a22 f40b 7a24 ee40 7a26     .. z.."z..$z@.&z
    c984:	e720 7a28 deac 7a2a d4e6 7a2c c9d0 7a2e      .(z..*z..,z...z
    c994:	bd6a 7a30 afb5 7a32 a0b4 7a34 9068 7a36     j.0z..2z..4zh.6z
    c9a4:	7ed0 7a38 6bf0 7a3a 57c8 7a3c 425a 7a3e     .~8z.k:z.W<zZB>z
    c9b4:	2ba7 7a40 13af 7a42 fa75 7a43 dff9 7a45     .+@z..Bzu.Cz..Ez
    c9c4:	c43d 7a47 a743 7a49 890a 7a4b 6995 7a4d     =.GzC.Iz..Kz.iMz
    c9d4:	48e5 7a4f 26fa 7a51 03d7 7a53 df7c 7a54     .HOz.&Qz..Sz|.Tz
    c9e4:	b9ea 7a56 9323 7a58 6b28 7a5a 41fa 7a5c     ..Vz#.Xz(kZz.A\z
    c9f4:	179a 7a5e ec09 7a5f bf49 7a61 915b 7a63     ..^z.._zI.az[.cz
    ca04:	6240 7a65 31f8 7a67 0085 7a69 cde9 7a6a     @bez.1gz..iz..jz
    ca14:	9a24 7a6c 6537 7a6e 2f24 7a70 f7ec 7a71     $.lz7enz$/pz..qz
    ca24:	bf8f 7a73 860f 7a75 4b6d 7a77 0faa 7a79     ..sz..uzmKwz..yz
    ca34:	d2c7 7a7a 94c5 7a7c 55a6 7a7e 156a 7a80     ..zz..|z.U~zj..z
    ca44:	d412 7a81 919f 7a83 4e13 7a85 096e 7a87     ...z...z.N.zn..z
    ca54:	c3b2 7a88 7cdf 7a8a 34f7 7a8c ebfb 7a8d     ...z.|.z.4.z...z
    ca64:	a1eb 7a8f 56c8 7a91 0a95 7a93 bd50 7a94     ...z.V.z...zP..z
    ca74:	6efd 7a96 1f9b 7a98 cf2b 7a99 7db0 7a9b     .n.z...z+..z.}.z
    ca84:	2b28 7a9d d796 7a9e 82fb 7aa0 2d57 7aa2     (+.z...z...zW-.z
    ca94:	d6ac 7aa3 7ef9 7aa5 2641 7aa7 cc85 7aa8     ...z.~.zA&.z...z
    caa4:	71c4 7aaa 1601 7aac b93b 7aad 5b75 7aaf     .q.z...z;..zu[.z
    cab4:	fcae 7ab0 9ce9 7ab2 3c24 7ab4 da63 7ab5     ...z...z$<.zc..z
    cac4:	77a5 7ab7 13ec 7ab9 af37 7aba 4989 7abc     .w.z...z7..z.I.z
    cad4:	e2e2 7abd 7b43 7abf 12ad 7ac1 a921 7ac2     ...zC{.z...z!..z
    cae4:	3e9f 7ac4 d329 7ac5 66bf 7ac7 f962 7ac8     .>.z)..z.f.zb..z
    caf4:	8b13 7aca 1bd3 7acc aba3 7acd 3a84 7acf     ...z...z...z.:.z
    cb04:	c875 7ad0 5579 7ad2 e191 7ad3 6cbc 7ad5     u..zyU.z...z.l.z
    cb14:	f6fb 7ad6 8051 7ad8 08bc 7ada 903f 7adb     ...zQ..z...z?..z
    cb24:	16da 7add 9c8d 7ade 215b 7ae0 a542 7ae1     ...z...z[!.zB..z
    cb34:	2845 7ae3 aa63 7ae4 2b9f 7ae6 abf8 7ae7     E(.zc..z.+.z...z
    cb44:	2b6f 7ae9 aa05 7aea 27bb 7aec a492 7aed     o+.z...z.'.z...z
    cb54:	208a 7aef 9ba5 7af0 15e2 7af2 8f43 7af3     . .z...z...zC..z
    cb64:	07c8 7af5 7f72 7af6 f642 7af7 6c39 7af9     ...zr..zB..z9l.z
    cb74:	e158 7afa 559e 7afc c90d 7afd 3ba6 7aff     X..z.U.z...z.;.z
    cb84:	ad69 7b00 1e57 7b02 8e71 7b03 fdb7 7b04     i..{W..{q..{...{
    cb94:	6c2a 7b06 d9cc 7b07 469b 7b09 b29a 7b0a     *l.{...{.F.{...{
    cba4:	1dc9 7b0c 8829 7b0d f1ba 7b0e 5a7d 7b10     ...{)..{...{}Z.{
    cbb4:	c273 7b11 299c 7b13 8ff9 7b14 f58b 7b15     s..{.).{...{...{
    cbc4:	5a53 7b17 be50 7b18 2184 7b1a 83f0 7b1b     SZ.{P..{.!.{...{
    cbd4:	e594 7b1c 4670 7b1e a686 7b1f 05d7 7b21     ...{pF.{...{..!{
    cbe4:	6461 7b22 c227 7b23 1f2a 7b25 7b68 7b26     ad"{'.#{*.%{h{&{
    cbf4:	d6e5 7b27 319f 7b29 8b97 7b2a e4cf 7b2b     ..'{.1){..*{..+{
    cc04:	3d47 7b2d 94ff 7b2e ebf8 7b2f 4233 7b31     G=-{...{../{3B1{
    cc14:	97b0 7b32 ec70 7b33 4073 7b35 93bb 7b36     ..2{p.3{s@5{..6{
    cc24:	e647 7b37 3819 7b39 8931 7b3a d98f 7b3b     G.7{.89{1.:{..;{
    cc34:	2935 7b3d 7822 7b3e c658 7b3f 13d6 7b41     5)={"x>{X.?{..A{
    cc44:	609e 7b42 acb0 7b43 f80d 7b44 42b5 7b46     .`B{..C{..D{.BF{
    cc54:	8ca9 7b47 d5e9 7b48 1e76 7b4a 6651 7b4b     ..G{..H{v.J{QfK{
    cc64:	ad7a 7b4c f3f1 7b4d 39b8 7b4f 7ecf 7b50     z.L{..M{.9O{.~P{
    cc74:	c336 7b51 06ee 7b53 49f7 7b54 8c52 7b55     6.Q{..S{.IT{R.U{
    cc84:	ce00 7b56 0f01 7b58 4f56 7b59 8eff 7b5a     ..V{..X{VOY{..Z{
    cc94:	cdfc 7b5b 0c4f 7b5d 49f8 7b5e 86f7 7b5f     ..[{O.]{.I^{.._{
    cca4:	c34d 7b60 fefa 7b61 39ff 7b63 745d 7b64     M.`{..a{.9c{]td{
    ccb4:	ae13 7b65 e723 7b66 1f8d 7b68 5752 7b69     ..e{#.f{..h{RWi{
    ccc4:	8e71 7b6a c4ed 7b6b fac4 7b6c 2ff7 7b6e     q.j{..k{..l{./n{
    ccd4:	6488 7b6f 9876 7b70 cbc3 7b71 fe6e 7b72     .do{v.p{..q{n.r{
    cce4:	3078 7b74 61e1 7b75 92ab 7b76 c2d5 7b77     x0t{.au{..v{..w{
    ccf4:	f260 7b78 214c 7b7a 4f9b 7b7b 7d4c 7b7c     `.x{L!z{.O{{L}|{
    cd04:	aa60 7b7d d6d7 7b7e 02b2 7b80 2df2 7b81     `.}{..~{...{.-.{
    cd14:	5897 7b82 82a0 7b83 ac10 7b84 d4e6 7b85     .X.{...{...{...{
    cd24:	fd22 7b86 24c6 7b88 4bd1 7b89 7245 7b8a     "..{.$.{.K.{Er.{
    cd34:	9821 7b8b bd66 7b8c e215 7b8d 062d 7b8f     !..{f..{...{-..{
    cd44:	29b0 7b90 4c9d 7b91 6ef6 7b92 90bb 7b93     .).{.L.{.n.{...{
    cd54:	b1eb 7b94 d289 7b95 f293 7b96 120b 7b98     ...{...{...{...{
    cd64:	30f1 7b99 4f45 7b9a 6d08 7b9b 8a3a 7b9c     .0.{EO.{.m.{:..{
    cd74:	a6db 7b9d c2ed 7b9e de6f 7b9f f962 7ba0     ...{...{o..{b..{
    cd84:	13c7 7ba2 2d9d 7ba3 46e5 7ba4 5fa0 7ba5     ...{.-.{.F.{._.{
    cd94:	77ce 7ba6 8f6f 7ba7 a685 7ba8 bd0e 7ba9     .w.{o..{...{...{
    cda4:	d30c 7baa e87f 7bab fd68 7bac 11c6 7bae     ...{...{h..{...{
    cdb4:	259b 7baf 38e6 7bb0 4ba9 7bb1 5de3 7bb2     .%.{.8.{.K.{.].{
    cdc4:	6f95 7bb3 80bf 7bb4 9161 7bb5 a17d 7bb6     .o.{...{a..{}..{
    cdd4:	b112 7bb7 c021 7bb8 ceab 7bb9 dcae 7bba     ...{!..{...{...{
    cde4:	ea2d 7bbb f727 7bbc 039d 7bbe 0f90 7bbf     -..{'..{...{...{
    cdf4:	1afe 7bc0 25ea 7bc1 3052 7bc2 3a39 7bc3     ...{.%.{R0.{9:.{
    ce04:	439d 7bc4 4c80 7bc5 54e1 7bc6 5cc2 7bc7     .C.{.L.{.T.{.\.{
    ce14:	6422 7bc8 6b02 7bc9 7163 7bca 7743 7bcb     "d.{.k.{cq.{Cw.{
    ce24:	7ca5 7bcc 8188 7bcd 85ed 7bce 89d4 7bcf     .|.{...{...{...{
    ce34:	8d3d 7bd0 9029 7bd1 9298 7bd2 948a 7bd3     =..{)..{...{...{
    ce44:	9600 7bd4 96fa 7bd5 9779 7bd6 977d 7bd7     ...{...{y..{}..{
    ce54:	9706 7bd8 9614 7bd9 94a8 7bda 92c3 7bdb     ...{...{...{...{
    ce64:	9064 7bdc 8d8c 7bdd 8a3b 7bde 8671 7bdf     d..{...{;..{q..{
    ce74:	8230 7be0 7d77 7be1 7846 7be2 729f 7be3     0..{w}.{Fx.{.r.{
    ce84:	6c80 7be4 65eb 7be5 5ee0 7be6 575f 7be7     .l.{.e.{.^.{_W.{
    ce94:	4f69 7be8 46fe 7be9 3e1e 7bea 34c9 7beb     iO.{.F.{.>.{.4.{
    cea4:	2b00 7bec 20c4 7bed 1613 7bee 0af0 7bef     .+.{. .{...{...{
    ceb4:	ff5a 7bef f351 7bf0 e6d6 7bf1 d9e9 7bf2     Z..{Q..{...{...{
    cec4:	cc8a 7bf3 beba 7bf4 b079 7bf5 a1c7 7bf6     ...{...{y..{...{
    ced4:	92a5 7bf7 8313 7bf8 7311 7bf9 629f 7bfa     ...{...{.s.{.b.{
    cee4:	51bf 7bfb 406f 7bfc 2eb1 7bfd 1c84 7bfe     .Q.{o@.{...{...{
    cef4:	09ea 7bff f6e2 7bff e36d 7c00 cf8a 7c01     ...{...{m..|...|
    cf04:	bb3b 7c02 a67f 7c03 9157 7c04 7bc3 7c05     ;..|...|W..|.{.|
    cf14:	65c3 7c06 4f58 7c07 3882 7c08 2141 7c09     .e.|XO.|.8.|A!.|
    cf24:	0996 7c0a f181 7c0a d901 7c0b c018 7c0c     ...|...|...|...|
    cf34:	a6c6 7c0d 8d0a 7c0e 72e6 7c0f 5859 7c10     ...|...|.r.|YX.|
    cf44:	3d65 7c11 2208 7c12 0643 7c13 ea17 7c13     e=.|.".|C..|...|
    cf54:	cd84 7c14 b08a 7c15 932a 7c16 7563 7c17     ...|...|*..|cu.|
    cf64:	5736 7c18 38a3 7c19 19ab 7c1a fa4e 7c1a     6W.|.8.|...|N..|
    cf74:	da8b 7c1b ba64 7c1c 99d9 7c1d 78e9 7c1e     ...|d..|...|.x.|
    cf84:	5796 7c1f 35de 7c20 13c4 7c21 f146 7c21     .W.|.5 |..!|F.!|
    cf94:	ce65 7c22 ab22 7c23 877d 7c24 6375 7c25     e."|".#|}.$|uc%|
    cfa4:	3f0b 7c26 1a40 7c27 f514 7c27 cf86 7c28     .?&|@.'|..'|..(|
    cfb4:	a998 7c29 8349 7c2a 5c9a 7c2b 358a 7c2c     ..)|I.*|.\+|.5,|
    cfc4:	0e1b 7c2d e64c 7c2d be1e 7c2e 9591 7c2f     ..-|L.-|...|../|
    cfd4:	6ca5 7c30 435a 7c31 19b1 7c32 efaa 7c32     .l0|ZC1|..2|..2|
    cfe4:	c545 7c33 9a83 7c34 6f63 7c35 43e5 7c36     E.3|..4|co5|.C6|
    cff4:	180b 7c37 ebd5 7c37 bf41 7c38 9252 7c39     ..7|..7|A.8|R.9|
    d004:	6507 7c3a 3760 7c3b 095d 7c3c daff 7c3c     .e:|`7;|].<|..<|
    d014:	ac46 7c3d 7d32 7c3e 4dc4 7c3f 1dfb 7c40     F.=|2}>|.M?|..@|
    d024:	edd9 7c40 bd5c 7c41 8c86 7c42 5b56 7c43     ..@|\.A|..B|V[C|
    d034:	29cd 7c44 f7eb 7c44 c5b1 7c45 931d 7c46     .)D|..D|..E|..F|
    d044:	6032 7c47 2cee 7c48 f953 7c48 c560 7c49     2`G|.,H|S.H|`.I|
    d054:	9115 7c4a 5c73 7c4b 277a 7c4c f22b 7c4c     ..J|s\K|z'L|+.L|
    d064:	bc85 7c4d 8688 7c4e 5036 7c4f 198d 7c50     ..M|..N|6PO|..P|
    d074:	e28f 7c50 ab3c 7c51 7393 7c52 3b95 7c53     ..P|<.Q|.sR|.;S|
    d084:	0342 7c54 ca9b 7c54 919f 7c55 584f 7c56     B.T|..T|..U|OXV|
    d094:	1eab 7c57 e4b3 7c57 aa67 7c58 6fc8 7c59     ..W|..W|g.X|.oY|
    d0a4:	34d6 7c5a f991 7c5a bdfa 7c5b 820f 7c5c     .4Z|..Z|..[|..\|
    d0b4:	45d2 7c5d 0944 7c5e cc63 7c5e 8f30 7c5f     .E]|D.^|c.^|0._|
    d0c4:	51ac 7c60 13d6 7c61 d5b0 7c61 9738 7c62     .Q`|..a|..a|8.b|
    d0d4:	5870 7c63 1957 7c64 d9ed 7c64 9a34 7c65     pXc|W.d|..d|4.e|
    d0e4:	5a2a 7c66 19d1 7c67 d928 7c67 9830 7c68     *Zf|..g|(.g|0.h|
    d0f4:	56e9 7c69 1552 7c6a d36d 7c6a 9139 7c6b     .Vi|R.j|m.j|9.k|
    d104:	4eb7 7c6c 0be6 7c6d c8c7 7c6d 855b 7c6e     .Nl|..m|..m|[.n|
    d114:	41a1 7c6f fd99 7c6f b944 7c70 74a2 7c71     .Ao|..o|D.p|.tq|
    d124:	2fb3 7c72 ea77 7c72 a4ef 7c73 5f1a 7c74     ./r|w.r|..s|._t|
    d134:	18f9 7c75 d28c 7c75 8bd3 7c76 44ce 7c77     ..u|..u|..v|.Dw|
    d144:	fd7e 7c77 b5e3 7c78 6dfd 7c79 25cb 7c7a     ~.w|..x|.my|.%z|
    d154:	dd4f 7c7a 9489 7c7b 4b78 7c7c 021c 7c7d     O.z|..{|xK||..}|
    d164:	b877 7c7d 6e88 7c7e 244f 7c7f d9cc 7c7f     w.}|.n~|O$.|...|
    d174:	8f01 7c80 43ec 7c81 f88e 7c81 ace7 7c82     ...|.C.|...|...|
    d184:	60f7 7c83 14c0 7c84 c83f 7c84 7b77 7c85     .`.|...|?..|w{.|
    d194:	2e66 7c86 e10e 7c86 936e 7c87 4587 7c88     f..|...|n..|.E.|
    d1a4:	f758 7c88 a8e3 7c89 5a26 7c8a 0b22 7c8b     X..|...|&Z.|"..|
    d1b4:	bbd8 7c8b 6c48 7c8c 1c71 7c8d cc54 7c8d     ...|Hl.|q..|T..|
    d1c4:	7bf0 7c8e 2b48 7c8f da59 7c8f 8925 7c90     .{.|H+.|Y..|%..|
    d1d4:	37ab 7c91 e5ed 7c91 93e9 7c92 41a1 7c93     .7.|...|...|.A.|
    d1e4:	ef14 7c93 9c42 7c94 492c 7c95 f5d2 7c95     ...|B..|,I.|...|
    d1f4:	a234 7c96 4e51 7c97 fa2b 7c97 a5c2 7c98     4..|QN.|+..|...|
    d204:	5115 7c99 fc24 7c99 a6f1 7c9a 517b 7c9b     .Q.|$..|...|{Q.|
    d214:	fbc2 7c9b a5c6 7c9c 4f87 7c9d f907 7c9d     ...|...|.O.|...|
    d224:	a244 7c9e 4b3f 7c9f f3f8 7c9f 9c6f 7ca0     D..|?K.|...|o..|
    d234:	44a5 7ca1 ec99 7ca1 944c 7ca2 3bbe 7ca3     .D.|...|L..|.;.|
    d244:	e2ef 7ca3 89df 7ca4 308e 7ca5 d6fd 7ca5     ...|...|.0.|...|
    d254:	7d2b 7ca6 2319 7ca7 c8c7 7ca7 6e34 7ca8     +}.|.#.|...|4n.|
    d264:	1362 7ca9 b851 7ca9 5d00 7caa 016f 7cab     b..|Q..|.].|o..|
    d274:	a59f 7cab 4990 7cac ed42 7cac 90b5 7cad     ...|.I.|B..|...|
    d284:	33e9 7cae d6df 7cae 7997 7caf 1c10 7cb0     .3.|...|.y.|...|
    d294:	be4b 7cb0 6048 7cb1 0207 7cb2 a389 7cb2     K..|H`.|...|...|
    d2a4:	44cd 7cb3 e5d3 7cb3 869c 7cb4 2728 7cb5     .D.|...|...|('.|
    d2b4:	c777 7cb5 6789 7cb6 075e 7cb7 a6f7 7cb7     w..|.g.|^..|...|
    d2c4:	4653 7cb8 e573 7cb8 8456 7cb9 22fd 7cba     SF.|s..|V..|.".|
    d2d4:	c169 7cba 5f99 7cbb fd8c 7cbb 9b45 7cbc     i..|._.|...|E..|
    d2e4:	38c2 7cbd d603 7cbd 730a 7cbe 0fd5 7cbf     .8.|...|.s.|...|
    d2f4:	ac66 7cbf 48bb 7cc0 e4d6 7cc0 80b7 7cc1     f..|.H.|...|...|
    d304:	1c5d 7cc2 b7c9 7cc2 52fb 7cc3 edf2 7cc3     ]..|...|.R.|...|
    d314:	88b0 7cc4 2334 7cc5 bd7f 7cc5 5790 7cc6     ...|4#.|...|.W.|
    d324:	f167 7cc6 8b05 7cc7 246a 7cc8 bd97 7cc8     g..|...|j$.|...|
    d334:	568a 7cc9 ef44 7cc9 87c6 7cca 200f 7ccb     .V.|D..|...|. .|
    d344:	b820 7ccb 4ff9 7ccc e79a 7ccc 7f02 7ccd      ..|.O.|...|...|
    d354:	1633 7cce ad2b 7cce 43ed 7ccf da76 7ccf     3..|+..|.C.|v..|
    d364:	70c8 7cd0 06e3 7cd1 9cc7 7cd1 3273 7cd2     .p.|...|...|s2.|
    d374:	c7e9 7cd2 5d28 7cd3 f230 7cd3 8702 7cd4     ...|(].|0..|...|
    d384:	1b9d 7cd5 b001 7cd5 4430 7cd6 d828 7cd6     ...|...|0D.|(..|
    d394:	6bea 7cd7 ff77 7cd7 92cd 7cd8 25ee 7cd9     .k.|w..|...|.%.|
    d3a4:	b8da 7cd9 4b8f 7cda de10 7cda 705b 7cdb     ...|.K.|...|[p.|
    d3b4:	0272 7cdc 9453 7cdc 2600 7cdd b777 7cdd     r..|S..|.&.|w..|
    d3c4:	48ba 7cde d9c9 7cde 6aa3 7cdf fb48 7cdf     .H.|...|.j.|H..|
    d3d4:	8bba 7ce0 1bf7 7ce1 ac01 7ce1 3bd6 7ce2     ...|...|...|.;.|
    d3e4:	cb78 7ce2 5ae6 7ce3 ea21 7ce3 7928 7ce4     x..|.Z.|!..|(y.|
    d3f4:	07fc 7ce5 969d 7ce5 250a 7ce6 b344 7ce6     ...|...|.%.|D..|
    d404:	414c 7ce7 cf21 7ce7 5cc3 7ce8 ea32 7ce8     LA.|!..|.\.|2..|
    d414:	776f 7ce9 047a 7cea 9152 7cea 1df9 7ceb     ow.|z..|R..|...|
    d424:	aa6d 7ceb 36af 7cec c2bf 7cec 4e9e 7ced     m..|.6.|...|.N.|
    d434:	da4b 7ced 65c6 7cee f110 7cee 7c29 7cef     K..|.e.|...|)|.|
    d444:	0710 7cf0 91c7 7cf0 1c4c 7cf1 a6a0 7cf1     ...|...|L..|...|
    d454:	30c4 7cf2 bab6 7cf2 4479 7cf3 ce0a 7cf3     .0.|...|yD.|...|
    d464:	576b 7cf4 e09c 7cf4 699d 7cf5 f26d 7cf5     kW.|...|.i.|m..|
    d474:	7b0e 7cf6 037e 7cf7 8bbf 7cf7 13d0 7cf8     .{.|~..|...|...|
    d484:	9bb1 7cf8 2363 7cf9 aae6 7cf9 3239 7cfa     ...|c#.|...|92.|
    d494:	b95d 7cfa 4051 7cfb c717 7cfb 4dad 7cfc     ]..|Q@.|...|.M.|
    d4a4:	d415 7cfc 5a4e 7cfd e059 7cfd 6634 7cfe     ...|NZ.|Y..|4f.|
    d4b4:	ebe2 7cfe 7161 7cff f6b1 7cff 7bd4 7d00     ...|aq.|...|.{.}
    d4c4:	00c8 7d01 858e 7d01 0a27 7d02 8e91 7d02     ...}...}'..}...}
    d4d4:	12ce 7d03 96dd 7d03 1abf 7d04 9e73 7d04     ...}...}...}s..}
    d4e4:	21fa 7d05 a553 7d05 2880 7d06 ab7f 7d06     .!.}S..}.(.}...}
    d4f4:	2e51 7d07 b0f7 7d07 336f 7d08 b5bb 7d08     Q..}...}o3.}...}
    d504:	37da 7d09 b9cd 7d09 3b93 7d0a bd2d 7d0a     .7.}...}.;.}-..}
    d514:	3e9a 7d0b bfdc 7d0b 40f1 7d0c c1da 7d0c     .>.}...}.@.}...}
    d524:	4297 7d0d c329 7d0d 438e 7d0e c3c9 7d0e     .B.})..}.C.}...}
    d534:	43d7 7d0f c3ba 7d0f 4371 7d10 c2fe 7d10     .C.}...}qC.}...}
    d544:	425f 7d11 c194 7d11 409f 7d12 bf7f 7d12     _B.}...}.@.}...}
    d554:	3e34 7d13 bcbe 7d13 3b1d 7d14 b952 7d14     4>.}...}.;.}R..}
    d564:	375c 7d15 b53c 7d15 32f1 7d16 b07c 7d16     \7.}<..}.2.}|..}
    d574:	2ddd 7d17 ab14 7d17 2820 7d18 a503 7d18     .-.}...} (.}...}
    d584:	21bc 7d19 9e4b 7d19 1ab0 7d1a 96eb 7d1a     .!.}K..}...}...}
    d594:	12fd 7d1b 8ee6 7d1b 0aa5 7d1c 863b 7d1c     ...}...}...};..}
    d5a4:	01a7 7d1d 7ceb 7d1d f805 7d1d 72f6 7d1e     ...}.|.}...}.r.}
    d5b4:	edbf 7d1e 685e 7d1f e2d5 7d1f 5d23 7d20     ...}^h.}...}#] }
    d5c4:	d749 7d20 5146 7d21 cb1a 7d21 44c7 7d22     I. }FQ!}..!}.D"}
    d5d4:	be4b 7d22 37a6 7d23 b0da 7d23 29e5 7d24     K."}.7#}..#}.)$}
    d5e4:	a2c9 7d24 1b85 7d25 9419 7d25 0c85 7d26     ..$}..%}..%}..&}
    d5f4:	84c9 7d26 fce6 7d26 74db 7d27 eca9 7d27     ..&}..&}.t'}..'}
    d604:	6450 7d28 dbcf 7d28 5327 7d29 ca58 7d29     Pd(}..(}'S)}X.)}
    d614:	4162 7d2a b845 7d2a 2f01 7d2b a596 7d2b     bA*}E.*}./+}..+}
    d624:	1c04 7d2c 924c 7d2c 086d 7d2d 7e68 7d2d     ..,}L.,}m.-}h~-}
    d634:	f43c 7d2d 69e9 7d2e df71 7d2e 54d2 7d2f     <.-}.i.}q..}.T/}
    d644:	ca0d 7d2f 3f22 7d30 b410 7d30 28d9 7d31     ../}"?0}..0}.(1}
    d654:	9d7c 7d31 11f9 7d32 8651 7d32 fa83 7d32     |.1}..2}Q.2}..2}
    d664:	6e8f 7d33 e275 7d33 5637 7d34 c9d2 7d34     .n3}u.3}7V4}..4}
    d674:	3d49 7d35 b09a 7d35 23c6 7d36 96cd 7d36     I=5}..5}.#6}..6}
    d684:	09af 7d37 7c6c 7d37 ef04 7d37 6177 7d38     ..7}l|7}..7}wa8}
    d694:	d3c6 7d38 45f0 7d39 b7f5 7d39 29d6 7d3a     ..8}.E9}..9}.):}
    d6a4:	9b92 7d3a 0d2a 7d3b 7e9d 7d3b efec 7d3b     ..:}*.;}.~;}..;}
    d6b4:	6117 7d3c d21e 7d3c 4301 7d3d b3bf 7d3d     .a<}..<}.C=}..=}
    d6c4:	245a 7d3e 94d1 7d3e 0524 7d3f 7554 7d3f     Z$>}..>}$.?}Tu?}
    d6d4:	e55f 7d3f 5548 7d40 c50c 7d40 34ad 7d41     _.?}HU@}..@}.4A}
    d6e4:	a42b 7d41 1385 7d42 82bc 7d42 f1d0 7d42     +.A}..B}..B}..B}
    d6f4:	60c1 7d43 cf8f 7d43 3e39 7d44 acc1 7d44     .`C}..C}9>D}..D}
    d704:	1b26 7d45 8968 7d45 f787 7d45 6584 7d46     &.E}h.E}..E}.eF}
    d714:	d35e 7d46 4115 7d47 aeaa 7d47 1c1c 7d48     ^.F}.AG}..G}..H}
    d724:	896d 7d48 f69a 7d48 63a6 7d49 d08f 7d49     m.H}..H}.cI}..I}
    d734:	3d56 7d4a a9fc 7d4a 167f 7d4b 82e0 7d4b     V=J}..J}..K}..K}
    d744:	ef1f 7d4b 5b3d 7d4c c739 7d4c 3313 7d4d     ..K}=[L}9.L}.3M}
    d754:	9ecb 7d4d 0a62 7d4e 75d8 7d4e e12c 7d4e     ..M}b.N}.uN},.N}
    d764:	4c5e 7d4f b770 7d4f 2260 7d50 8d2e 7d50     ^LO}p.O}`"P}..P}
    d774:	f7dc 7d50 6269 7d51 ccd4 7d51 371f 7d52     ..P}ibQ}..Q}.7R}
    d784:	a149 7d52 0b52 7d53 753a 7d53 df01 7d53     I.R}R.S}:uS}..S}
    d794:	48a8 7d54 b22e 7d54 1b94 7d55 84d9 7d55     .HT}..T}..U}..U}
    d7a4:	edfe 7d55 5702 7d56 bfe6 7d56 28aa 7d57     ..U}.WV}..V}.(W}
    d7b4:	914d 7d57 f9d1 7d57 6234 7d58 ca78 7d58     M.W}..W}4bX}x.X}
    d7c4:	329b 7d59 9a9f 7d59 0282 7d5a 6a46 7d5a     .2Y}..Y}..Z}FjZ}
    d7d4:	d1ea 7d5a 396f 7d5b a0d4 7d5b 0819 7d5c     ..Z}o9[}..[}..\}
    d7e4:	6f3f 7d5c d645 7d5c 3d2c 7d5d a3f3 7d5d     ?o\}E.\},=]}..]}
    d7f4:	0a9c 7d5e 7125 7d5e d78f 7d5e 3dda 7d5f     ..^}%q^}..^}.=_}
    d804:	a405 7d5f 0a12 7d60 7000 7d60 d5cf 7d60     .._}..`}.p`}..`}
    d814:	3b7f 7d61 a110 7d61 0683 7d62 6bd7 7d62     .;a}..a}..b}.kb}
    d824:	d10c 7d62 3622 7d63 9b1b 7d63 fff4 7d63     ..b}"6c}..c}..c}
    d834:	64b0 7d64 c94d 7d64 2dcb 7d65 922c 7d65     .dd}M.d}.-e},.e}
    d844:	f66e 7d65 5a92 7d66 be98 7d66 2280 7d67     n.e}.Zf}..f}."g}
    d854:	864a 7d67 e9f6 7d67 4d84 7d68 b0f5 7d68     J.g}..g}.Mh}..h}
    d864:	1447 7d69 777c 7d69 da93 7d69 3d8d 7d6a     G.i}|wi}..i}.=j}
    d874:	a069 7d6a 0327 7d6b 65c8 7d6b c84c 7d6b     i.j}'.k}.ek}L.k}
    d884:	2ab2 7d6c 8cfb 7d6c ef27 7d6c 5136 7d6d     .*l}..l}'.l}6Qm}
    d894:	b327 7d6d 14fb 7d6e 76b3 7d6e d84d 7d6e     '.m}..n}.vn}M.n}
    d8a4:	39ca 7d6f 9b2b 7d6f fc6e 7d6f 5d95 7d70     .9o}+.o}n.o}.]p}
    d8b4:	be9f 7d70 1f8c 7d71 805d 7d71 e111 7d71     ..p}..q}].q}..q}
    d8c4:	41a8 7d72 a223 7d72 0282 7d73 62c4 7d73     .Ar}#.r}..s}.bs}
    d8d4:	c2ea 7d73 22f3 7d74 82e1 7d74 e2b2 7d74     ..s}."t}..t}..t}
    d8e4:	4266 7d75 a1ff 7d75 017c 7d76 60dd 7d76     fBu}..u}|.v}.`v}
    d8f4:	c021 7d76 1f4a 7d77 7e57 7d77 dd48 7d77     !.v}J.w}W~w}H.w}
    d904:	3c1d 7d78 9ad7 7d78 f975 7d78 57f7 7d79     .<x}..x}u.x}.Wy}
    d914:	b65e 7d79 14a9 7d7a 72d9 7d7a d0ed 7d7a     ^.y}..z}.rz}..z}
    d924:	2ee6 7d7b 8cc3 7d7b ea86 7d7b 482c 7d7c     ..{}..{}..{},H|}
    d934:	a5b8 7d7c 0329 7d7d 607e 7d7d bdb9 7d7d     ..|}).}}~`}}..}}
    d944:	1ad8 7d7e 77dc 7d7e d4c6 7d7e 3194 7d7f     ..~}.w~}..~}.1.}
    d954:	8e48 7d7f eae1 7d7f 475f 7d80 a3c2 7d80     H..}...}_G.}...}
    d964:	000b 7d81 5c39 7d81 b84d 7d81 1446 7d82     ...}9\.}M..}F..}
    d974:	7024 7d82 cbe9 7d82 2792 7d83 8322 7d83     $p.}...}.'.}"..}
    d984:	de97 7d83 39f2 7d84 9532 7d84 f059 7d84     ...}.9.}2..}Y..}
    d994:	4b65 7d85 a657 7d85 012f 7d86 5bee 7d86     eK.}W..}/..}.[.}
    d9a4:	b692 7d86 111c 7d87 6b8d 7d87 c5e3 7d87     ...}...}.k.}...}
    d9b4:	2020 7d88 7a43 7d88 d44d 7d88 2e3c 7d89       .}Cz.}M..}<..}
    d9c4:	8813 7d89 e1cf 7d89 3b72 7d8a 94fc 7d8a     ...}...}r;.}...}
    d9d4:	ee6c 7d8a 47c3 7d8b a100 7d8b fa24 7d8b     l..}.G.}...}$..}
    d9e4:	532f 7d8c ac21 7d8c 04f9 7d8d 5db8 7d8d     /S.}!..}...}.].}
    d9f4:	b65f 7d8d 0eec 7d8e 6760 7d8e bfbb 7d8e     _..}...}`g.}...}
    da04:	17fd 7d8f 7026 7d8f c837 7d8f 202e 7d90     ...}&p.}7..}. .}
    da14:	780d 7d90 cfd3 7d90 2781 7d91 7f15 7d91     .x.}...}.'.}...}
    da24:	d692 7d91 2df5 7d92 8540 7d92 dc73 7d92     ...}.-.}@..}s..}
    da34:	338d 7d93 8a8f 7d93 e178 7d93 3849 7d94     .3.}...}x..}I8.}
    da44:	8f02 7d94 e5a2 7d94 3c2a 7d95 929b 7d95     ...}...}*<.}...}
    da54:	e8f3 7d95 3f32 7d96 955a 7d96 eb6a 7d96     ...}2?.}Z..}j..}
    da64:	4162 7d97 9742 7d97 ed0a 7d97 42ba 7d98     bA.}B..}...}.B.}
    da74:	9852 7d98 edd3 7d98 433c 7d99 988d 7d99     R..}...}<C.}...}
    da84:	edc6 7d99 42e8 7d9a 97f2 7d9a ece5 7d9a     ...}.B.}...}...}
    da94:	41c0 7d9b 9684 7d9b eb30 7d9b 3fc5 7d9c     .A.}...}0..}.?.}
    daa4:	9443 7d9c e8a9 7d9c 3cf8 7d9d 9130 7d9d     C..}...}.<.}0..}
    dab4:	e550 7d9d 395a 7d9e 8d4c 7d9e e127 7d9e     P..}Z9.}L..}'..}
    dac4:	34eb 7d9f 8898 7d9f dc2e 7d9f 2fad 7da0     .4.}...}...}./.}
    dad4:	8315 7da0 d667 7da0 29a1 7da1 7cc5 7da1     ...}g..}.).}.|.}
    dae4:	cfd2 7da1 22c8 7da2 75a7 7da2 c870 7da2     ...}.".}.u.}p..}
    daf4:	1b23 7da3 6dbe 7da3 c043 7da3 12b2 7da4     #..}.m.}C..}...}
    db04:	650a 7da4 b74c 7da4 0977 7da5 5b8c 7da5     .e.}L..}w..}.[.}
    db14:	ad8b 7da5 ff73 7da5 5145 7da6 a301 7da6     ...}s..}EQ.}...}
    db24:	f4a6 7da6 4636 7da7 97af 7da7 e913 7da7     ...}6F.}...}...}
    db34:	3a60 7da8 8b97 7da8 dcb8 7da8 2dc4 7da9     `:.}...}...}.-.}
    db44:	7eb9 7da9 cf98 7da9 2062 7daa 7116 7daa     .~.}...}b .}.q.}
    db54:	c1b4 7daa 123c 7dab 62af 7dab b30c 7dab     ...}<..}.b.}...}
    db64:	0354 7dac 5385 7dac a3a2 7dac f3a8 7dac     T..}.S.}...}...}
    db74:	4399 7dad 9375 7dad e33b 7dad 32ec 7dae     .C.}u..};..}.2.}
    db84:	8288 7dae d20e 7dae 217f 7daf 70db 7daf     ...}...}.!.}.p.}
    db94:	c021 7daf 0f52 7db0 5e6e 7db0 ad75 7db0     !..}R..}n^.}u..}
    dba4:	fc67 7db0 4b44 7db1 9a0c 7db1 e8be 7db1     g..}DK.}...}...}
    dbb4:	375c 7db2 85e5 7db2 d459 7db2 22b8 7db3     \7.}...}Y..}.".}
    dbc4:	7102 7db3 bf38 7db3 0d59 7db4 5b65 7db4     .q.}8..}Y..}e[.}
    dbd4:	a95c 7db4 f73e 7db4 450c 7db5 92c6 7db5     \..}>..}.E.}...}
    dbe4:	e06a 7db5 2dfb 7db6 7b76 7db6 c8dd 7db6     j..}.-.}v{.}...}
    dbf4:	1630 7db7 636f 7db7 b099 7db7 fdae 7db7     0..}oc.}...}...}
    dc04:	4aaf 7db8 979c 7db8 e475 7db8 313a 7db9     .J.}...}u..}:1.}
    dc14:	7dea 7db9 ca86 7db9 170e 7dba 6382 7dba     .}.}...}...}.c.}
    dc24:	afe2 7dba fc2e 7dba 4865 7dbb 9489 7dbb     ...}...}eH.}...}
    dc34:	e099 7dbb 2c95 7dbc 787d 7dbc c451 7dbc     ...}.,.}}x.}Q..}
    dc44:	1012 7dbd 5bbe 7dbd a757 7dbd f2dc 7dbd     ...}.[.}W..}...}
    dc54:	3e4d 7dbe 89ab 7dbe d4f5 7dbe 202b 7dbf     M>.}...}...}+ .}
    dc64:	6b4e 7dbf b65d 7dbf 0159 7dc0 4c41 7dc0     Nk.}]..}Y..}AL.}
    dc74:	9716 7dc0 e1d7 7dc0 2c85 7dc1 7720 7dc1     ...}...}.,.} w.}
    dc84:	c1a7 7dc1 0c1b 7dc2 567c 7dc2 a0c9 7dc2     ...}...}|V.}...}
    dc94:	eb03 7dc2 352a 7dc3 7f3d 7dc3 c93e 7dc3     ...}*5.}=..}>..}
    dca4:	132b 7dc4 5d06 7dc4 a6cd 7dc4 f081 7dc4     +..}.].}...}...}
    dcb4:	3a23 7dc5 83b1 7dc5 cd2c 7dc5 1695 7dc6     #:.}...},..}...}
    dcc4:	5fea 7dc6 a92d 7dc6 f25d 7dc6 3b7a 7dc7     ._.}-..}]..}z;.}
    dcd4:	8484 7dc7 cd7c 7dc7 1660 7dc8 5f32 7dc8     ...}|..}`..}2_.}
    dce4:	a7f2 7dc8 f09f 7dc8 3939 7dc9 81c1 7dc9     ...}...}99.}...}
    dcf4:	ca36 7dc9 1298 7dca 5ae8 7dca a326 7dca     6..}...}.Z.}&..}
    dd04:	eb51 7dca 336a 7dcb 7b70 7dcb c364 7dcb     Q..}j3.}p{.}d..}
    dd14:	0b46 7dcc 5315 7dcc 9ad2 7dcc e27d 7dcc     F..}.S.}...}}..}
    dd24:	2a16 7dcd 719c 7dcd b911 7dcd 0073 7dce     .*.}.q.}...}s..}
    dd34:	47c3 7dce 8f01 7dce d62d 7dce 1d47 7dcf     .G.}...}-..}G..}
    dd44:	644f 7dcf ab44 7dcf f228 7dcf 38fa 7dd0     Od.}D..}(..}.8.}
    dd54:	7fba 7dd0 c669 7dd0 0d05 7dd1 5390 7dd1     ...}i..}...}.S.}
    dd64:	9a09 7dd1 e070 7dd1 26c5 7dd2 6d08 7dd2     ...}p..}.&.}.m.}
    dd74:	b33a 7dd2 f95a 7dd2 3f69 7dd3 8566 7dd3     :..}Z..}i?.}f..}
    dd84:	cb51 7dd3 112b 7dd4 56f4 7dd4 9caa 7dd4     Q..}+..}.V.}...}
    dd94:	e250 7dd4 27e4 7dd5 6d66 7dd5 b2d7 7dd5     P..}.'.}fm.}...}
    dda4:	f837 7dd5 3d85 7dd6 82c2 7dd6 c7ee 7dd6     7..}.=.}...}...}

0000ddb4 <atan_4pi_q31_t>:
    ddb4:	7a62 8cdc 0f6f 8cde a4df 8cdf 3ab2 8ce1     bz..o........:..
    ddc4:	d0e8 8ce2 6781 8ce4 fe7e 8ce5 95de 8ce7     .....g..~.......
    ddd4:	2da2 8ce9 c5ca 8cea 5e56 8cec f746 8ced     .-......V^..F...
    dde4:	909b 8cef 2a54 8cf1 c471 8cf2 5ef3 8cf4     ....T*..q....^..
    ddf4:	f9da 8cf5 9526 8cf7 30d7 8cf9 ccee 8cfa     ....&....0......
    de04:	696a 8cfc 064b 8cfe a392 8cff 4140 8d01     ji..K.......@A..
    de14:	df53 8d02 7dcc 8d04 1cac 8d06 bbf2 8d07     S....}..........
    de24:	5b9f 8d09 fbb2 8d0a 9c2c 8d0c 3d0e 8d0e     .[......,....=..
    de34:	de56 8d0f 8006 8d11 221e 8d13 c49d 8d14     V........"......
    de44:	6784 8d16 0ad3 8d18 ae8a 8d19 52a9 8d1b     .g...........R..
    de54:	f731 8d1c 9c21 8d1e 417a 8d20 e73c 8d21     1...!...zA .<.!.
    de64:	8d66 8d23 33fa 8d25 daf7 8d26 825e 8d28     f.#..3%...&.^.(.
    de74:	2a2e 8d2a d269 8d2b 7b0d 8d2d 241b 8d2f     .**.i.+..{-..$/.
    de84:	cd93 8d30 7776 8d32 21c3 8d34 cc7b 8d35     ..0.vw2..!4.{.5.
    de94:	779d 8d37 232b 8d39 cf24 8d3a 7b88 8d3c     .w7.+#9.$.:..{<.
    dea4:	2858 8d3e d593 8d3f 833a 8d41 314d 8d43     X(>...?.:.A.M1C.
    deb4:	dfcc 8d44 8eb8 8d46 3e10 8d48 edd4 8d49     ..D...F..>H...I.
    dec4:	9e05 8d4b 4ea3 8d4d ffae 8d4e b126 8d50     ..K..NM...N.&.P.
    ded4:	630c 8d52 155f 8d54 c820 8d55 7b4f 8d57     .cR._.T. .U.O{W.
    dee4:	2eec 8d59 e2f6 8d5a 9770 8d5c 4c57 8d5e     ..Y...Z.p.\.WL^.
    def4:	01ae 8d60 b773 8d61 6da7 8d63 244b 8d65     ..`.s.a..mc.K$e.
    df04:	db5d 8d66 92df 8d68 4ad1 8d6a 0333 8d6c     ].f...h..Jj.3.l.
    df14:	bc04 8d6d 7546 8d6f 2ef8 8d71 e91a 8d72     ..m.Fuo...q...r.
    df24:	a3ae 8d74 5eb2 8d76 1a26 8d78 d60c 8d79     ..t..^v.&.x...y.
    df34:	9264 8d7b 4f2d 8d7d 0c67 8d7f ca13 8d80     d.{.-O}.g.......
    df44:	8831 8d82 46c2 8d84 05c5 8d86 c53a 8d87     1....F......:...
    df54:	8522 8d89 457c 8d8b 064a 8d8d c78b 8d8e     "...|E..J.......
    df64:	893f 8d90 4b67 8d92 0e02 8d94 d111 8d95     ?...gK..........
    df74:	9494 8d97 588c 8d99 1cf8 8d9b e1d8 8d9c     .....X..........
    df84:	a72d 8d9e 6cf7 8da0 3336 8da2 f9eb 8da3     -....l..63......
    df94:	c115 8da5 88b4 8da7 50c9 8da9 1954 8dab     .........P..T...
    dfa4:	e256 8dac abcd 8dae 75bb 8db0 4020 8db2     V........u.. @..
    dfb4:	0afc 8db4 d64e 8db5 a218 8db7 6e59 8db9     ....N.......Yn..
    dfc4:	3b12 8dbb 0842 8dbd d5eb 8dbe a40b 8dc0     .;..B...........
    dfd4:	72a4 8dc2 41b6 8dc4 1140 8dc6 e142 8dc7     .r...A..@...B...
    dfe4:	b1be 8dc9 82b3 8dcb 5421 8dcd 2609 8dcf     ........!T...&..
    dff4:	f86b 8dd0 cb47 8dd2 9e9d 8dd4 726d 8dd6     k...G.......mr..
    e004:	46b7 8dd8 1b7c 8dda f0bd 8ddb c678 8ddd     .F..|.......x...
    e014:	9cae 8ddf 7360 8de1 4a8d 8de3 2237 8de5     ....`s...J..7"..
    e024:	fa5c 8de6 d2fd 8de8 ac1b 8dea 85b5 8dec     \...............
    e034:	5fcd 8dee 3a61 8df0 1572 8df2 f100 8df3     ._..a:..r.......
    e044:	cd0c 8df5 a996 8df7 869e 8df9 6423 8dfb     ............#d..
    e054:	4227 8dfd 20aa 8dff ffab 8e00 df2b 8e02     'B... ......+...
    e064:	bf2a 8e04 9fa9 8e06 80a7 8e08 6224 8e0a     *...........$b..
    e074:	4421 8e0c 269f 8e0e 099c 8e10 ed1b 8e11     !D...&..........
    e084:	d119 8e13 b599 8e15 9a99 8e17 801b 8e19     ................
    e094:	661f 8e1b 4ca4 8e1d 33aa 8e1f 1b33 8e21     .f...L...3..3.!.
    e0a4:	033e 8e23 ebcc 8e24 d4dc 8e26 be6f 8e28     >.#...$...&.o.(.
    e0b4:	a885 8e2a 931e 8e2c 7e3b 8e2e 69db 8e30     ..*...,.;~...i0.
    e0c4:	55ff 8e32 42a8 8e34 2fd4 8e36 1d86 8e38     .U2..B4../6...8.
    e0d4:	0bbb 8e3a fa76 8e3b e9b6 8e3d d97b 8e3f     ..:.v.;...=.{.?.
    e0e4:	c9c6 8e41 ba96 8e43 abec 8e45 9dc9 8e47     ..A...C...E...G.
    e0f4:	902c 8e49 8315 8e4b 7685 8e4d 6a7c 8e4f     ,.I...K..vM.|jO.
    e104:	5efb 8e51 5400 8e53 498e 8e55 3fa3 8e57     .^Q..TS..IU..?W.
    e114:	3640 8e59 2d66 8e5b 2514 8e5d 1d4b 8e5f     @6Y.f-[..%].K._.
    e124:	160a 8e61 0f53 8e63 0925 8e65 0381 8e67     ..a.S.c.%.e...g.
    e134:	fe66 8e68 f9d6 8e6a f5d0 8e6c f254 8e6e     f.h...j...l.T.n.
    e144:	ef62 8e70 ecfc 8e72 eb21 8e74 e9d1 8e76     b.p...r.!.t...v.
    e154:	e90c 8e78 e8d4 8e7a e927 8e7c ea06 8e7e     ..x...z.'.|...~.
    e164:	eb72 8e80 ed6b 8e82 eff0 8e84 f303 8e86     r...k...........
    e174:	f6a2 8e88 fad0 8e8a ff8b 8e8c 04d4 8e8f     ................
    e184:	0aab 8e91 1111 8e93 1805 8e95 1f88 8e97     ................
    e194:	279b 8e99 303d 8e9b 396e 8e9d 432f 8e9f     .'..=0..n9../C..
    e1a4:	4d80 8ea1 5862 8ea3 63d4 8ea5 6fd6 8ea7     .M..bX...c...o..
    e1b4:	7c6a 8ea9 898f 8eab 9745 8ead a58d 8eaf     j|......E.......
    e1c4:	b467 8eb1 c3d3 8eb3 d3d1 8eb5 e462 8eb7     g...........b...
    e1d4:	f586 8eb9 073d 8ebc 1987 8ebe 2c65 8ec0     ....=.......e,..
    e1e4:	3fd6 8ec2 53dc 8ec4 6875 8ec6 7da4 8ec8     .?...S..uh...}..
    e1f4:	9367 8eca a9bf 8ecc c0ac 8ece d82f 8ed0     g.........../...
    e204:	f047 8ed2 08f6 8ed5 223a 8ed7 3c15 8ed9     G.......:"...<..
    e214:	5687 8edb 7190 8edd 8d30 8edf a967 8ee1     .V...q..0...g...
    e224:	c636 8ee3 e39d 8ee5 019c 8ee8 2033 8eea     6...........3 ..
    e234:	3f63 8eec 5f2c 8eee 7f8e 8ef0 a08a 8ef2     c?..,_..........
    e244:	c21f 8ef4 e44e 8ef6 0717 8ef9 2a7b 8efb     ....N.......{*..
    e254:	4e79 8efd 7312 8eff 9847 8f01 be16 8f03     yN...s..G.......
    e264:	e482 8f05 0b89 8f08 332d 8f0a 5b6d 8f0c     ........-3..m[..
    e274:	844a 8f0e adc3 8f10 d7da 8f12 028f 8f15     J...............
    e284:	2de1 8f17 59d1 8f19 8660 8f1b b38c 8f1d     .-...Y..`.......
    e294:	e158 8f1f 0fc3 8f22 3ecd 8f24 6e77 8f26     X....."..>$.wn&.
    e2a4:	9ec0 8f28 cfaa 8f2a 0134 8f2d 335e 8f2f     ..(...*.4.-.^3/.
    e2b4:	662a 8f31 9996 8f33 cda4 8f35 0254 8f38     *f1...3...5.T.8.
    e2c4:	37a6 8f3a 6d9a 8f3c a430 8f3e db69 8f40     .7:..m<.0.>.i.@.
    e2d4:	1346 8f43 4bc5 8f45 84e8 8f47 beaf 8f49     F.C..KE...G...I.
    e2e4:	f91a 8f4b 342a 8f4e 6fde 8f50 ac37 8f52     ..K.*4N..oP.7.R.
    e2f4:	e936 8f54 26da 8f57 6524 8f59 a413 8f5b     6.T..&W.$eY...[.
    e304:	e3aa 8f5d 23e6 8f60 64ca 8f62 a655 8f64     ..]..#`..db.U.d.
    e314:	e887 8f66 2b61 8f69 6ee3 8f6b b30e 8f6d     ..f.a+i..nk...m.
    e324:	f7e0 8f6f 3d5c 8f72 8381 8f74 ca50 8f76     ..o.\=r...t.P.v.
    e334:	11c8 8f79 59ea 8f7b a2b7 8f7d ec2e 8f7f     ..y..Y{...}.....
    e344:	3650 8f82 811d 8f84 cc95 8f86 18b9 8f89     P6..............
    e354:	658a 8f8b b306 8f8d 0130 8f90 5006 8f92     .e......0....P..
    e364:	9f89 8f94 efba 8f96 4099 8f99 9226 8f9b     .........@..&...
    e374:	e461 8f9d 374b 8fa0 8ae3 8fa2 df2c 8fa4     a...K7......,...
    e384:	3423 8fa7 89cb 8fa9 e022 8fab 372b 8fae     #4......"...+7..
    e394:	8ee4 8fb0 e74e 8fb2 4069 8fb5 9a36 8fb7     ....N...i@..6...
    e3a4:	f4b5 8fb9 4fe7 8fbc abcb 8fbe 0862 8fc1     .....O......b...
    e3b4:	65ac 8fc3 c3a9 8fc5 225b 8fc8 81c0 8fca     .e......["......
    e3c4:	e1da 8fcc 42a9 8fcf a42d 8fd1 0666 8fd4     .....B..-...f...
    e3d4:	6955 8fd6 ccfa 8fd8 3155 8fdb 9667 8fdd     Ui......U1..g...
    e3e4:	fc30 8fdf 62b0 8fe2 c9e8 8fe4 31d7 8fe7     0....b.......1..
    e3f4:	9a7f 8fe9 03df 8fec 6df8 8fee d8cb 8ff0     .........m......
    e404:	4456 8ff3 b09c 8ff5 1d9c 8ff8 8b56 8ffa     VD..........V...
    e414:	f9cb 8ffc 68fb 8fff d8e7 9001 498e 9004     .....h.......I..
    e424:	baf1 9006 2d11 9009 9fee 900b 1387 900e     .....-..........
    e434:	87de 9010 fcf3 9012 72c6 9015 e957 9017     .........r..W...
    e444:	60a7 901a d8b6 901c 5185 901f cb13 9021     .`.......Q....!.
    e454:	4561 9024 c070 9026 3c3f 9029 b8cf 902b     aE$.p.&.?<)...+.
    e464:	3621 902e b435 9030 330b 9033 b2a3 9035     !6..5.0..33...5.
    e474:	32fe 9038 b41c 903a 35fd 903d b8a3 903f     .28...:..5=...?.
    e484:	3c0c 9042 c03b 9044 452d 9047 cae6 9049     .<B.;.D.-EG...I.
    e494:	5163 904c d8a7 904e 60b1 9051 e981 9053     cQL...N..`Q...S.
    e4a4:	7318 9056 fd77 9058 889d 905b 148c 905e     .sV.w.X...[...^.
    e4b4:	a143 9060 2ec2 9063 bd0b 9065 4c1d 9068     C.`...c...e..Lh.
    e4c4:	dbf8 906a 6c9e 906d fe0f 906f 904a 9072     ..j..lm...o.J.r.
    e4d4:	2351 9075 b723 9077 4bc1 907a e12c 907c     Q#u.#.w..Kz.,.|.
    e4e4:	7763 907f 0e67 9082 a639 9084 3ed9 9087     cw..g...9....>..
    e4f4:	d846 9089 7282 908c 0d8e 908f a968 9091     F....r......h...
    e504:	4612 9094 e38c 9096 81d7 9099 20f2 909c     .F........... ..
    e514:	c0de 909e 619c 90a1 032c 90a4 a58e 90a6     .....a..,.......
    e524:	48c3 90a9 eccb 90ab 91a6 90ae 3755 90b1     .H..........U7..
    e534:	ddd9 90b3 8530 90b6 2d5d 90b9 d65f 90bb     ....0...]-.._...
    e544:	8037 90be 2ae5 90c1 d66a 90c3 82c5 90c6     7....*..j.......
    e554:	2ff8 90c9 de02 90cb 8ce5 90ce 3ca0 90d1     ./...........<..
    e564:	ed33 90d3 9ea0 90d6 50e7 90d9 0408 90dc     3........P......
    e574:	b803 90de 6cd9 90e1 228a 90e4 d917 90e6     .....l..."......
    e584:	9080 90e9 48c6 90ec 01e8 90ef bbe7 90f1     .....H..........
    e594:	76c4 90f4 3280 90f7 ef19 90f9 ac92 90fc     .v...2..........
    e5a4:	6aea 90ff 2a21 9102 ea39 9104 ab31 9107     .j..!*..9...1...
    e5b4:	6d0a 910a 2fc5 910d f361 910f b7e0 9112     .m.../..a.......
    e5c4:	7d41 9115 4385 9118 0aac 911b d2b8 911d     A}...C..........
    e5d4:	9ba8 9120 657c 9123 3036 9126 fbd5 9128     .. .|e#.60&...(.
    e5e4:	c85a 912b 95c5 912e 6418 9131 3351 9134     Z.+......d1.Q34.
    e5f4:	0372 9137 d47c 9139 a66e 913c 7949 913f     r.7.|.9.n.<.Iy?.
    e604:	4d0d 9142 21bb 9145 f754 9147 cdd7 914a     .MB..!E.T.G...J.
    e614:	a546 914d 7da0 9150 56e6 9153 3119 9156     F.M..}P..VS..1V.
    e624:	0c38 9159 e845 915b c540 915e a329 9161     8.Y.E.[.@.^.).a.
    e634:	8201 9164 61c8 9167 427e 916a 2425 916d     ..d..ag.~Bj.%$m.
    e644:	06bc 9170 ea44 9172 cebd 9175 b429 9178     ..p.D.r...u.).x.
    e654:	9a87 917b 81d7 917e 6a1b 9181 5352 9184     ..{...~..j..RS..
    e664:	3d7e 9187 289e 918a 14b4 918d 01be 9190     ~=...(..........
    e674:	efbf 9192 deb7 9195 cea5 9198 bf8b 919b     ................
    e684:	b169 919e a43f 91a1 980e 91a4 8cd6 91a7     i...?...........
    e694:	8298 91aa 7954 91ad 710b 91b0 69bd 91b3     ....Ty...q...i..
    e6a4:	636b 91b6 5e15 91b9 59bc 91bc 5660 91bf     kc...^...Y..`V..
    e6b4:	5402 91c2 52a1 91c5 523f 91c8 52dd 91cb     .T...R..?R...R..
    e6c4:	547a 91ce 5716 91d1 5ab4 91d4 5f52 91d7     zT...W...Z..R_..
    e6d4:	64f2 91da 6b95 91dd 7339 91e0 7be1 91e3     .d...k..9s...{..
    e6e4:	858c 91e6 903b 91e9 9bef 91ec a8a8 91ef     ....;...........
    e6f4:	b666 91f2 c52a 91f5 d4f5 91f8 e5c7 91fb     f...*...........
    e704:	f7a0 91fe 0a82 9202 1e6c 9205 335f 9208     ........l..._3..
    e714:	495c 920b 6063 920e 7875 9211 9192 9214     \I..c`..ux......
    e724:	abba 9217 c6ef 921a e330 921d 007f 9221     ........0.....!.
    e734:	1edb 9224 3e46 9227 5ebf 922a 8048 922d     ..$.F>'..^*.H.-.
    e744:	a2e1 9230 c68a 9233 eb44 9236 1110 923a     ..0...3.D.6...:.
    e754:	37ed 923d 5fdd 9240 88e1 9243 b2f7 9246     .7=.._@...C...F.
    e764:	de22 9249 0a62 924d 37b7 9250 6622 9253     ".I.b.M..7P."fS.
    e774:	95a3 9256 c63b 9259 f7eb 925c 2ab2 9260     ..V.;.Y...\..*`.
    e784:	5e92 9263 938c 9266 c99e 9269 00cb 926d     .^c...f...i...m.
    e794:	3913 9270 7276 9273 acf5 9276 e891 9279     .9p.vrs...v...y.
    e7a4:	2549 927d 6320 9280 a214 9283 e227 9286     I%}. c......'...
    e7b4:	2359 928a 65ab 928d a91e 9290 edb1 9293     Y#...e..........
    e7c4:	3367 9297 7a3e 929a c238 929d 0b55 92a1     g3..>z..8...U...
    e7d4:	5597 92a4 a0fc 92a7 ed87 92aa 3b38 92ae     .U..........8;..
    e7e4:	8a0f 92b1 da0c 92b4 2b31 92b8 7d7e 92bb     ........1+..~}..
    e7f4:	d0f4 92be 2593 92c2 7b5b 92c5 d24e 92c8     .....%..[{..N...
    e804:	2a6c 92cc 83b6 92cf de2c 92d2 39cf 92d6     l*......,....9..
    e814:	969f 92d9 f49d 92dc 53ca 92e0 b426 92e3     .........S..&...
    e824:	15b2 92e7 786e 92ea dc5b 92ed 417b 92f1     ....nx..[...{A..
    e834:	a7cc 92f4 0f51 92f8 7809 92fb e1f5 92fe     ....Q....x......
    e844:	4d16 9302 b96c 9305 26f9 9309 95bc 930c     .M..l....&......
    e854:	05b7 9310 76e9 9313 e955 9316 5cf9 931a     .....v..U....\..
    e864:	d1d8 931d 47f1 9321 bf45 9324 37d5 9328     .....G!.E.$..7(.
    e874:	b1a1 932b 2cab 932f a8f2 9332 2678 9336     ..+..,/...2.x&6.
    e884:	a53c 9339 2541 933d a686 9340 290c 9344     <.9.A%=...@..)D.
    e894:	acd3 9347 31dd 934b b82a 934e 3fbb 9352     ..G..1K.*.N..?R.
    e8a4:	c890 9355 52aa 9359 de0a 935c 6ab1 9360     ..U..RY...\..j`.
    e8b4:	f89e 9363 87d3 9367 1850 936b aa17 936e     ..c...g.P.k...n.
    e8c4:	3d27 9372 d182 9375 6728 9379 fe1a 937c     '=r...u.(gy...|.
    e8d4:	9658 9380 2fe3 9384 cabd 9387 66e5 938b     X..../.......f..
    e8e4:	045c 938f a323 9392 433b 9396 e4a4 9399     \...#...;C......
    e8f4:	8760 939d 2b6e 93a1 d0d0 93a4 7786 93a8     `...n+.......w..
    e904:	1f91 93ac c8f1 93af 73a8 93b3 1fb6 93b7     .........s......
    e914:	cd1c 93ba 7bdb 93be 2bf2 93c2 dd64 93c5     .....{...+..d...
    e924:	9030 93c9 4458 93cd f9dc 93d0 b0bd 93d4     0...XD..........
    e934:	68fc 93d8 2299 93dc dd95 93df 99f1 93e3     .h..."..........
    e944:	57ad 93e7 16cb 93eb d74b 93ee 992e 93f2     .W......K.......
    e954:	5c74 93f6 211f 93fa e72f 93fd aea5 9401     t\...!../.......
    e964:	7781 9405 41c5 9409 0d71 940d da86 9410     .w...A..q.......
    e974:	a905 9414 78ee 9418 4a43 941c 1d03 9420     .....x..CJ.... .
    e984:	f130 9423 c6cb 9427 9dd5 942b 764d 942f     0.#...'...+.Mv/.
    e994:	5035 9433 2b8e 9437 0859 943b e696 943e     5P3..+7.Y.;...>.
    e9a4:	c646 9442 a76a 9446 8a02 944a 6e10 944e     F.B.j.F...J..nN.
    e9b4:	5395 9452 3a90 9456 2304 945a 0cf0 945e     .SR..:V..#Z...^.
    e9c4:	f856 9461 e536 9465 d392 9469 c369 946d     V.a.6.e...i.i.m.
    e9d4:	b4bd 9471 a78f 9475 9bdf 9479 91af 947d     ..q...u...y...}.
    e9e4:	88ff 9481 81d0 9485 7c22 9489 77f8 948d     ........"|...w..
    e9f4:	7551 9491 742e 9495 7490 9499 7679 949d     Qu...t...t..yv..
    ea04:	79e8 94a1 7edf 94a5 855f 94a9 8d68 94ad     .y...~.._...h...
    ea14:	96fb 94b1 a21a 94b5 aec5 94b9 bcfc 94bd     ................
    ea24:	ccc2 94c1 de16 94c5 f0f9 94c9 056d 94ce     ............m...
    ea34:	1b73 94d2 330a 94d6 4c35 94da 66f4 94de     s....3..5L...f..
    ea44:	8347 94e2 a130 94e6 c0b0 94ea e1c7 94ee     G...0...........
    ea54:	0477 94f3 28c0 94f7 4ea4 94fb 7622 94ff     w....(...N.."v..
    ea64:	9f3d 9503 c9f5 9507 f64a 950b 243f 9510     =.......J...?$..
    ea74:	53d3 9514 8508 9518 b7de 951c ec57 9520     .S..........W. .
    ea84:	2274 9525 5a34 9529 939b 952d cea7 9531     t"%.4Z)...-...1.
    ea94:	0b5b 9536 49b6 953a 89bb 953e cb6b 9542     [.6..I:...>.k.B.
    eaa4:	0ec5 9547 53cb 954b 9a7e 954f e2df 9553     ..G..SK.~.O...S.
    eab4:	2cee 9558 78ae 955c c61f 9560 1541 9565     .,X..x\...`.A.e.
    eac4:	6616 9569 b89f 956d 0cdc 9572 62cf 9576     .fi...m...r..bv.
    ead4:	ba79 957a 13db 957f 6ef5 9583 cbc9 9587     y.z......n......
    eae4:	2a58 958c 8aa3 9590 ecaa 9594 506f 9599     X*..........oP..
    eaf4:	b5f2 959d 1d36 95a2 863a 95a6 f100 95aa     ....6...:.......
    eb04:	5d89 95af cbd5 95b3 3be7 95b8 adbe 95bc     .].......;......
    eb14:	215c 95c1 96c3 95c5 0df2 95ca 86eb 95ce     \!..............
    eb24:	01b0 95d3 7e40 95d7 fc9e 95db 7cca 95e0     ....@~.......|..
    eb34:	fec6 95e4 8292 95e9 082f 95ee 8f9f 95f2     ......../.......
    eb44:	18e3 95f7 a3fb 95fb 30e9 9600 bfae 9604     .........0......
    eb54:	504b 9609 e2c1 960d 7711 9612 0d3d 9617     KP.......w..=...
    eb64:	a544 961b 3f29 9620 daed 9624 7890 9629     D...)? ...$..x).
    eb74:	1815 962e b97b 9632 5cc4 9637 01f1 963c     ....{.2..\7...<.
    eb84:	a903 9640 51fc 9645 fcdc 9649 a9a5 964e     ..@..QE...I...N.
    eb94:	5858 9653 08f6 9658 bb80 965c 6ff7 9661     XXS...X...\..oa.
    eba4:	265d 9666 deb2 966a 98f8 966f 552f 9674     ]&f...j...o./Ut.
    ebb4:	135a 9679 d379 967d 958e 9682 5999 9687     Z.y.y.}......Y..
    ebc4:	1f9c 968c e798 9690 b18d 9695 7d7f 969a     .............}..
    ebd4:	4b6d 969f 1b58 96a4 ed43 96a8 c12d 96ad     mK..X...C...-...
    ebe4:	971a 96b2 6f08 96b7 48fb 96bc 24f2 96c1     .....o...H...$..
    ebf4:	02f0 96c6 e2f5 96ca c503 96cf a91b 96d4     ................
    ec04:	8f3e 96d9 776e 96de 61ab 96e3 4df8 96e8     >...nw...a...M..
    ec14:	3c54 96ed 2cc2 96f2 1f43 96f7 13d8 96fc     T<...,..C.......
    ec24:	0a82 9701 0342 9706 fe1b 970a fb0d 970f     ....B...........
    ec34:	fa19 9714 fb40 9719 fe85 971e 03e8 9724     ....@.........$.
    ec44:	0b6b 9729 150f 972e 20d4 9733 2ebe 9738     k.)...... 3...8.
    ec54:	3ecc 973d 5101 9742 655d 9747 7be2 974c     .>=..QB.]eG..{L.
    ec64:	9491 9751 af6c 9756 cc74 975b ebaa 9760     ..Q.l.V.t.[...`.
    ec74:	0d0f 9766 30a6 976b 566f 9770 7e6b 9775     ..f..0k.oVp.k~u.
    ec84:	a89d 977a d505 977f 03a5 9785 347e 978a     ..z.........~4..
    ec94:	6792 978f 9ce2 9794 d46f 9799 0e3b 979f     .g......o...;...
    eca4:	4a47 97a4 8895 97a9 c926 97ae 0bfc 97b4     GJ......&.......
    ecb4:	5117 97b9 9879 97be e225 97c3 2e1a 97c9     .Q..y...%.......
    ecc4:	7c5c 97ce ccea 97d3 1fc7 97d9 74f4 97de     \|...........t..
    ecd4:	cc72 97e3 2643 97e9 8269 97ee e0e5 97f3     r...C&..i.......
    ece4:	41b7 97f9 a4e3 97fe 0a69 9804 724b 9809     .A......i...Kr..
    ecf4:	dc8a 980e 4929 9814 b827 9819 2987 981f     ....)I..'....)..
    ed04:	9d4b 9824 1373 982a 8c02 982f 06f9 9835     K.$.s.*.../...5.
    ed14:	845a 983a 0425 9840 865e 9845 0b04 984b     Z.:.%.@.^.E...K.
    ed24:	921a 9850 1ba1 9856 a79b 985b 360a 9861     ..P...V...[..6a.
    ed34:	c6ee 9866 5a4a 986c f020 9871 8870 9877     ..f.JZl. .q.p.w.
    ed44:	233c 987d c086 9882 6050 9888 029c 988e     <#}.....P`......
    ed54:	a76a 9893 4ebc 9899 f894 989e a4f5 98a4     j....N..........
    ed64:	53de 98aa 0553 98b0 b954 98b5 6fe3 98bb     .S..S...T....o..
    ed74:	2903 98c1 e4b4 98c6 a2f9 98cc 63d2 98d2     .)...........c..
    ed84:	2742 98d8 ed4b 98dd b5ed 98e3 812b 98e9     B'..K.......+...
    ed94:	4f07 98ef 1f82 98f5 f29e 98fa c85d 9900     .O..........]...
    eda4:	a0c0 9906 7bc9 990c 5979 9912 39d4 9918     .....{..yY...9..
    edb4:	1cda 991e 028d 9924 eaee 9929 d601 992f     ......$...).../.
    edc4:	c3c5 9935 b43e 993b a76d 9941 9d54 9947     ..5.>.;.m.A.T.G.
    edd4:	95f4 994d 9150 9953 8f69 9959 9041 995f     ..M.P.S.i.Y.A._.
    ede4:	93da 9965 9a35 996b a355 9971 af3b 9977     ..e.5.k.U.q.;.w.
    edf4:	bde9 997d cf62 9983 e3a6 9989 fab9 998f     ..}.b...........
    ee04:	149a 9996 314e 999c 50d4 99a2 7330 99a8     ....N1...P..0s..
    ee14:	9864 99ae c070 99b4 eb57 99ba 191c 99c1     d...p...W.......
    ee24:	49bf 99c7 7d43 99cd b3aa 99d3 ecf5 99d9     .I..C}..........
    ee34:	2927 99e0 6842 99e6 aa47 99ec ef38 99f2     ')..Bh..G...8...
    ee44:	3718 99f9 81e9 99ff cfac 9a05 2064 9a0c     .7..........d ..
    ee54:	7412 9a12 cab8 9a18 2459 9a1f 80f6 9a25     .t......Y$....%.
    ee64:	e092 9a2b 432f 9a32 a8ce 9a38 1172 9a3f     ..+./C2...8.r.?.
    ee74:	7d1d 9a45 ebd0 9a4b 5d8f 9a52 d25a 9a58     .}E...K..]R.Z.X.
    ee84:	4a34 9a5f c520 9a65 431e 9a6c c432 9a72     4J_. .e..Cl.2.r.
    ee94:	485e 9a79 cfa3 9a7f 5a04 9a86 e782 9a8c     ^Hy......Z......
    eea4:	7821 9a93 0be2 9a9a a2c7 9aa0 3cd3 9aa7     !x...........<..
    eeb4:	da07 9aad 7a66 9ab4 1df2 9abb c4ad 9ac1     ....fz..........
    eec4:	6e9a 9ac8 1bbb 9acf cc11 9ad5 7f9f 9adc     .n..............
    eed4:	3668 9ae3 f06d 9ae9 adb1 9af0 6e36 9af7     h6..m.......6n..
    eee4:	31fe 9afe f90c 9b04 c362 9b0b 9102 9b12     .1......b.......
    eef4:	61ef 9b19 362a 9b20 0db7 9b27 e897 9b2d     .a..*6 ...'...-.
    ef04:	c6cc 9b34 a85a 9b3b 8d42 9b42 7587 9b49     ..4.Z.;.B.B..uI.
    ef14:	612b 9b50 5031 9b57 429a 9b5e 386a 9b65     +aP.1PW..B^.j8e.
    ef24:	31a3 9b6c 2e46 9b73 2e57 9b7a 31d8 9b81     .1l.F.s.W.z..1..
    ef34:	38cc 9b88 4334 9b8f 5113 9b96 626c 9b9d     .8..4C...Q..lb..
    ef44:	7742 9ba4 8f96 9bab ab6b 9bb2 cac3 9bb9     Bw......k.......
    ef54:	eda2 9bc0 1409 9bc8 3dfc 9bcf 6b7c 9bd6     .........=..|k..
    ef64:	9c8c 9bdd d12f 9be4 0968 9bec 4538 9bf3     ..../...h...8E..
    ef74:	84a2 9bfa c7aa 9c01 0e51 9c09 589a 9c10     ........Q....X..
    ef84:	a689 9c17 f81e 9c1e 4d5e 9c26 a64a 9c2d     ........^M&.J.-.
    ef94:	02e5 9c35 6333 9c3c c735 9c43 2eef 9c4b     ..5.3c<.5.C...K.
    efa4:	9a62 9c52 0992 9c5a 7c82 9c61 f333 9c68     b.R...Z..|a.3.h.
    efb4:	6daa 9c70 ebe8 9c77 6df0 9c7f f3c5 9c86     .mp...w..m......
    efc4:	7d6b 9c8e 0ae2 9c96 9c2f 9c9d 3154 9ca5     k}....../...T1..
    efd4:	ca54 9cac 6732 9cb4 07f1 9cbc ac93 9cc3     T...2g..........
    efe4:	551b 9ccb 018c 9cd3 b1e9 9cda 6635 9ce2     .U..........5f..
    eff4:	1e73 9cea daa5 9cf1 9acf 9cf9 5ef3 9d01     s............^..
    f004:	2714 9d09 f336 9d10 c35b 9d18 9787 9d20     .'..6...[..... .
    f014:	6fbb 9d28 4bfb 9d30 2c4b 9d38 10ad 9d40     .o(..K0.K,8...@.
    f024:	f924 9d47 e5b3 9d4f d65d 9d57 cb25 9d5f     $.G...O.].W.%._.
    f034:	c40f 9d67 c11d 9d6f c253 9d77 c7b3 9d7f     ..g...o.S.w.....
    f044:	d140 9d87 deff 9d8f f0f1 9d97 071a 9da0     @...............
    f054:	217d 9da8 401e 9db0 62ff 9db8 8a23 9dc0     }!...@...b..#...
    f064:	b58f 9dc8 e544 9dd0 1947 9dd9 519a 9de1     ....D...G....Q..
    f074:	8e41 9de9 cf3f 9df1 1497 9dfa 5e4d 9e02     A...?.......M^..
    f084:	ac63 9e0a fede 9e12 55c0 9e1b b10c 9e23     c........U....#.
    f094:	10c7 9e2c 74f3 9e34 dd94 9e3c 4aad 9e45     ..,..t4...<..JE.
    f0a4:	bc41 9e4d 3254 9e56 acea 9e5e 2c06 9e67     A.M.T2V...^..,g.
    f0b4:	afaa 9e6f 37dc 9e78 c49d 9e80 55f2 9e89     ..o..7x......U..
    f0c4:	ebde 9e91 8665 9e9a 258a 9ea3 c950 9eab     ....e....%..P...
    f0d4:	71bc 9eb4 1ed0 9ebd d091 9ec5 8701 9ece     .q..............
    f0e4:	4225 9ed7 0200 9ee0 c695 9ee8 8fe9 9ef1     %B..............
    f0f4:	5dff 9efa 30db 9f03 0880 9f0c e4f1 9f14     .]...0..........
    f104:	c634 9f1d ac4b 9f26 973a 9f2f 8705 9f38     4...K.&.:./...8.
    f114:	7bb0 9f41 753e 9f4a 73b3 9f53 7713 9f5c     .{A.>uJ..sS..w\.
    f124:	7f62 9f65 8ca4 9f6e 9edc 9f77 b60f 9f80     b.e...n...w.....
    f134:	d240 9f89 f373 9f92 19ac 9f9c 44ef 9fa5     @...s........D..
    f144:	7540 9fae aaa3 9fb7 e51b 9fc0 24ae 9fca     @u...........$..
    f154:	695e 9fd3 b330 9fdc 0228 9fe6 5649 9fef     ^i..0...(...IV..
    f164:	af99 9ff8 0e1a a002 71d2 a00b dac4 a014     .........q......
    f174:	48f4 a01e bc66 a027 351f a031 b323 a03a     .H..f.'..51.#.:.
    f184:	3676 a044 bf1c a04d 4d19 a057 e071 a060     v6D...M..MW.q.`.
    f194:	792a a06a 1747 a074 bacc a07d 63bd a087     *yj.G.t...}..c..
    f1a4:	1220 a091 c5f8 a09a 7f49 a0a4 3e18 a0ae      .......I....>..
    f1b4:	026a a0b8 cc43 a0c1 9ba7 a0cb 709a a0d5     j...C........p..
    f1c4:	4b21 a0df 2b41 a0e9 10fe a0f3 fc5d a0fc     !K..A+......]...
    f1d4:	ed61 a106 e410 a110 e06e a11a e280 a124     a.......n.....$.
    f1e4:	ea4a a12e f7d1 a138 0b19 a143 2428 a14d     J.....8...C.($M.
    f1f4:	4301 a157 67aa a161 9226 a16b c27c a175     .CW..ga.&.k.|.u.
    f204:	f8af a17f 34c5 a18a 76c2 a194 beaa a19e     .....4...v......
    f214:	0c83 a1a9 6052 a1b3 ba1b a1bd 19e4 a1c8     ....R`..........
    f224:	7fb0 a1d2 eb86 a1dc 5d69 a1e7 d55f a1f1     ........i].._...
    f234:	536d a1fc d798 a206 61e5 a211 f258 a21b     mS.......a..X...
    f244:	88f7 a226 25c7 a231 c8cd a23b 720f a246     ..&..%1...;..rF.
    f254:	2190 a251 d757 a25b 9368 a266 55c8 a271     .!Q.W.[.h.f..Uq.
    f264:	1e7e a27c ed8e a286 c2fc a291 9ed0 a29c     ~.|.............
    f274:	810d a2a7 69b9 a2b2 58da a2bd 4e75 a2c8     .....i...X..uN..
    f284:	4a8f a2d3 4d2d a2de 5655 a2e9 660d a2f4     .J..-M..UV...f..
    f294:	7c59 a2ff 9940 a30a bcc6 a315 e6f2 a320     Y|..@......... .
    f2a4:	17c8 a32c 4f4f a337 8d8c a342 d284 a34d     ..,.OO7...B...M.
    f2b4:	1e3d a359 70be a364 ca0a a36f 2a29 a37b     =.Y..pd...o.)*{.
    f2c4:	9120 a386 fef4 a391 73ac a39d ef4d a3a8      ........s..M...
    f2d4:	71dd a3b4 fb61 a3bf 8be1 a3cb 2360 a3d7     .q..a.......`#..
    f2e4:	c1e6 a3e2 6779 a3ee 141d a3fa c7da a405     ....yg..........
    f2f4:	82b5 a411 44b5 a41d 0dde a429 de38 a434     .....D....).8.4.
    f304:	b5c8 a440 9495 a44c 7aa5 a458 67fd a464     ..@...L..zX..gd.
    f314:	5ca4 a470 58a1 a47c 5bf9 a488 66b2 a494     .\p..X|..[...f..
    f324:	78d4 a4a0 9264 a4ac b368 a4b8 dbe8 a4c4     .x..d...h.......
    f334:	0be9 a4d1 4372 a4dd 8288 a4e9 c934 a4f5     ....rC......4...
    f344:	177b a502 6d63 a50e caf4 a51a 3034 a527     {...cm......40'.
    f354:	9d28 a533 11d9 a540 8e4d a54c 128a a559     (.3...@.M.L...Y.
    f364:	9e97 a565 327a a572 ce3c a57e 71e1 a58b     ..e.z2r.<.~..q..
    f374:	1d72 a598 d0f4 a5a4 8c6f a5b1 4fea a5be     r.......o....O..
    f384:	1b6c a5cb eefb a5d7 ca9f a5e4 ae5e a5f1     l...........^...
    f394:	9a3f a5fe 8e4b a60b 8a87 a618 8efb a625     ?...K.........%.
    f3a4:	9bad a632 b0a6 a63f cded a64c f387 a659     ..2...?...L...Y.
    f3b4:	217e a667 57d8 a674 969c a681 ddd2 a68e     ~!g..Wt.........
    f3c4:	2d81 a69c 85b1 a6a9 e669 a6b6 4fb0 a6c4     .-......i....O..
    f3d4:	c18e a6d1 3c0b a6df bf2d a6ec 4afe a6fa     .....<..-....J..
    f3e4:	df83 a707 7cc6 a715 22cd a723 d1a1 a730     .....|..."#...0.
    f3f4:	8948 a73e 49cb a74c 1332 a75a e585 a767     H.>..IL.2.Z...g.
    f404:	c0cb a775 a50c a783 9250 a791 889f a79f     ..u.....P.......
    f414:	8802 a7ad 907f a7bb a220 a7c9 bcec a7d7     ........ .......
    f424:	e0ec a7e5 0e27 a7f4 44a6 a802 8471 a810     ....'....D..q...
    f434:	cd91 a81e 200d a82d 7bee a83b e13c a849     ..... -..{;.<.I.
    f444:	4fff a858 c841 a866 4a0a a875 d561 a883     .OX.A.f..Ju.a...
    f454:	6a50 a892 08df a8a1 b117 a8af 6300 a8be     Pj...........c..
    f464:	1ea3 a8cd e409 a8db b33b a8ea 8c41 a8f9     ........;...A...
    f474:	6f23 a908 5bec a917 52a3 a926 5352 a935     #o...[...R&.RS5.
    f484:	5e02 a944 72bc a953 9188 a962 ba6f a971     .^D..rS...b.o.q.
    f494:	ed7c a980 2ab6 a990 7228 a99f c3da a9ae     |....*..(r......
    f4a4:	1fd5 a9be 8624 a9cd f6ce a9dc 71de a9ec     ....$........q..
    f4b4:	f75d a9fb 8754 aa0b 21cd aa1b c6d2 aa2a     ]...T....!....*.
    f4c4:	766b aa3a 30a3 aa4a f582 aa59 c514 aa69     kv:..0J...Y...i.
    f4d4:	9f61 aa79 8473 aa89 7454 aa99 6f0d aaa9     a.y.s...Tt...o..
    f4e4:	74aa aab9 8533 aac9 a0b2 aad9 c731 aae9     .t..3.......1...
    f4f4:	f8bb aaf9 355a ab0a 7d17 ab1a cffd ab2a     ....Z5...}....*.
    f504:	2e15 ab3b 976b ab4b 0c08 ab5c 8bf6 ab6c     ..;.k.K...\...l.
    f514:	1741 ab7d adf2 ab8d 5014 ab9e fdb0 abae     A.}......P......
    f524:	b6d3 abbf 7b86 abd0 4bd4 abe1 27c7 abf2     .....{...K...'..
    f534:	0f6a ac03 02c8 ac14 01ec ac25 0ce0 ac36     j.........%...6.
    f544:	23af ac47 4665 ac58 750b ac69 afae ac7a     .#G.eFX..ui...z.
    f554:	f657 ac8b 4913 ac9d a7eb acae 12ec acc0     W....I..........
    f564:	8a21 acd1 0d94 ace3 9d51 acf4 3963 ad06     !.......Q...c9..
    f574:	e1d7 ad17 96b6 ad29 580c ad3b 25e6 ad4d     ......)..X;..%M.
    f584:	004e ad5f e750 ad70 daf8 ad82 db51 ad94     N._.P.p.....Q...
    f594:	e868 ada6 0247 adb9 28fb adcb 5c90 addd     h...G....(...\..
    f5a4:	9d11 adef ea8a ae01 4508 ae14 ac96 ae26     .........E....&.
    f5b4:	2140 ae39 a314 ae4b 321c ae5e ce65 ae70     @!9...K..2^.e.p.
    f5c4:	77fb ae83 2eeb ae96 f341 aea8 c509 aebb     .w......A.......
    f5d4:	a450 aece 9122 aee1 8b8d aef4 939b af07     P..."...........
    f5e4:	a95b af1a ccd9 af2d fe21 af40 3d41 af54     [.....-.!.@.A=T.
    f5f4:	8a45 af67 e539 af7a 4e2c af8e c52a afa1     E.g.9.z.,N..*...
    f604:	4a40 afb5 dd7b afc8 7ee8 afdc 2e95 aff0     @J..{....~......
    f614:	ec8e b003 b8e1 b017 939b b02b 7cca b03f     ..........+..|?.
    f624:	747b b053 7abc b067 8f99 b07b b321 b08f     {tS..zg...{.!...
    f634:	e562 b0a3 2668 b0b8 7642 b0cc d4fd b0e0     b...h&..Bv......
    f644:	42a7 b0f5 bf4e b109 4b01 b11e e5cc b132     .B..N....K....2.
    f654:	8fbe b147 48e5 b15c 1150 b171 e90b b185     ..G..H\.P.q.....
    f664:	d026 b19a c6af b1af ccb4 b1c4 e244 b1d9     &...........D...
    f674:	076c b1ef 3c3c b204 80c2 b219 d50c b22e     l...<<..........
    f684:	392a b244 ad29 b259 3119 b26f c507 b284     *9D.).Y..1o.....
    f694:	6905 b29a 1d1f b2b0 e165 b2c5 b5e5 b2db     .i......e.......
    f6a4:	9ab0 b2f1 8fd4 b307 9560 b31d ab63 b333     ........`...c.3.
    f6b4:	d1ed b349 090d b360 50d2 b376 a94b b38c     ..I...`..Pv.K...
    f6c4:	1289 b3a3 8c9a b3b9 178e b3d0 b375 b3e6     ............u...
    f6d4:	605e b3fd 1e59 b414 ed76 b42a cdc5 b441     ^`..Y...v.*...A.
    f6e4:	bf54 b458 c235 b46f d678 b486 fc2b b49d     T.X.5.o.x...+...
    f6f4:	3360 b4b5 7c26 b4cc d68e b4e3 42a7 b4fb     `3..&|.......B..
    f704:	c083 b512 5030 b52a f1c1 b541 a544 b559     ....0P*...A.D.Y.
    f714:	6acb b571 4266 b589 2c26 b5a1 281a b5b9     .jq.fB..&,...(..
    f724:	3655 b5d1 56e6 b5e9 89de b601 cf4e b619     U6...V......N...
    f734:	2747 b632 91da b64a 0f18 b663 9f12 b67b     G'2...J...c...{.
    f744:	41d8 b694 f77c b6ac c010 b6c5 9ba3 b6de     .A..|...........
    f754:	8a48 b6f7 8c10 b710 a10c b729 c94d b742     H.........).M.B.
    f764:	04e5 b75c 53e5 b775 b660 b78e 2c65 b7a8     ..\..Su.`...e,..
    f774:	b608 b7c1 535a b7db 046c b7f5 c950 b80e     ....ZS..l...P...
    f784:	a218 b828 8ed6 b842 8f9b b85c a47b b876     ..(...B...\.{.v.
    f794:	cd85 b890 0ace b8ab 5c66 b8c5 c260 b8df     ........f\..`...
    f7a4:	3ccd b8fa cbc1 b914 6f4d b92f 2784 b94a     .<......Mo/..'J.
    f7b4:	f478 b964 d63b b97f ccdf b99a d878 b9b5     x.d.;.......x...
    f7c4:	f917 b9d0 2ed0 b9ec 79b4 ba07 d9d6 ba22     .........y....".
    f7d4:	4f49 ba3e da20 ba59 7a6d ba75 3043 ba91     IO>. .Y.mzu.C0..
    f7e4:	fbb4 baac dcd5 bac8 d3b7 bae4 e06d bb00     ............m...
    f7f4:	030a bb1d 3ba2 bb39 8a47 bb55 ef0c bb71     .....;9.G.U...q.
    f804:	6a04 bb8e fb43 bbaa a2db bbc7 60e0 bbe4     .j..C........`..
    f814:	3565 bc01 207c bc1e 223a bc3b 3ab2 bc58     e5..| ..:";..:X.
    f824:	69f6 bc75 b01a bc92 0d32 bcb0 8151 bccd     .iu.....2...Q...
    f834:	0c8a bceb aef1 bd08 6899 bd26 3995 bd44     .........h&..9D.
    f844:	21fa bd62 21da bd80 3949 bd9e 685b bdbc     .!b..!..I9..[h..
    f854:	af23 bdda 0db5 bdf9 8424 be17 1284 be36     #.......$.....6.
    f864:	b8e9 be54 7767 be73 4e10 be92 3cf9 beb1     ..T.gws..N...<..
    f874:	4435 bed0 63d9 beef 9bf7 bf0e eca3 bf2d     5D...c........-.
    f884:	55f2 bf4d d7f7 bf6c 72c5 bf8c 2671 bfac     .UM...l..r..q&..
    f894:	f30e bfcb d8b0 bfeb d76b c00b ef52 c02b     ........k...R.+.
    f8a4:	2079 c04c 6af5 c06c ced7 c08c 4c36 c0ad     y L..jl.....6L..
    f8b4:	e323 c0cd 93b4 c0ee 5dfb c10f 420c c130     #........]...B0.
    f8c4:	3ffb c151 57dd c172 89c3 c193 d5c3 c1b4     .?Q..Wr.........
    f8d4:	3bef c1d6 bc5c c1f7 571d c219 0c45 c23b     .;..\....W..E.;.
    f8e4:	dbe9 c25c c61b c27e caf0 c2a0 ea7b c2c2     ..\...~.....{...
    f8f4:	24ce c2e5 79ff c307 ea20 c329 7544 c34c     .$...y.. .).DuL.
    f904:	1b7f c36f dce4 c391 b987 c3b4 b17b c3d7     ..o.........{...
    f914:	c4d3 c3fa f3a2 c41d 3dfb c441 a3f2 c464     .........=A...d.
    f924:	2599 c488 c303 c4ab 7c44 c4cf 516f c4f3     .%......D|..oQ..
    f934:	4295 c517 4fca c53b 7921 c55f beac c583     .B...O;.!y_.....
    f944:	207e c5a8 9eaa c5cc 3941 c5f1 f057 c615     ~ ......A9..W...
    f954:	c3fd c63a b447 c65f c145 c684 eb0b c6a9     ..:.G._.E.......
    f964:	31ab c6cf 9535 c6f4 15bd c71a b354 c73f     .1..5.......T.?.
    f974:	6e0b c765 45f5 c78b 3b23 c7b1 4da6 c7d7     .ne..E..#;...M..
    f984:	7d90 c7fd caf2 c823 35dd c84a be63 c870     .}....#..5J.c.p.
    f994:	6493 c897 2880 c8be 0a39 c8e5 09d0 c90c     .d...(..9.......
    f9a4:	2754 c933 62d7 c95a bc68 c981 3419 c9a9     T'3..bZ.h....4..
    f9b4:	c9f7 c9d0 7e15 c9f8 5081 ca20 414b ca48     .....~...P .KAH.
    f9c4:	5083 ca70 7e38 ca98 ca79 cac0 3555 cae9     .Pp.8~..y...U5..
    f9d4:	bedc cb11 671b cb3a 2e23 cb63 1400 cb8c     .....g:.#.c.....
    f9e4:	18c2 cbb5 3c77 cbde 7f2d cc07 e0f1 cc30     ....w<..-.....0.
    f9f4:	61d1 cc5a 01db cc84 c11c ccad 9fa1 ccd7     .aZ.............
    fa04:	9d78 cd01 baad cd2b f74c cd55 5362 cd80     x.....+.L.U.bS..
    fa14:	cefb cdaa 6a24 cdd5 24e8 ce00 ff52 ce2a     ....$j...$..R.*.
    fa24:	f96f ce55 1349 ce81 4ceb ceac a660 ced7     o.U.I....L..`...
    fa34:	1fb3 cf03 b8ee cf2e 721b cf5a 4b44 cf86     .........rZ.DK..
    fa44:	4472 cfb2 5daf cfde 9705 d00a f07c d036     rD...]......|.6.
    fa54:	6a1c d063 03ef d090 bdfc d0bc 984b d0e9     .jc.........K...
    fa64:	92e4 d116 adcf d143 e912 d170 44b4 d19e     ......C...p..D..
    fa74:	c0bc d1cb 5d31 d1f9 1a17 d227 f776 d254     ....1]....'.v.T.
    fa84:	f551 d282 13b0 d2b1 5296 d2df b207 d30d     Q........R......
    fa94:	3209 d33c d29f d36a 93cd d399 7595 d3c8     .2<...j......u..
    faa4:	77fc d3f7 9b04 d426 deae d455 42fe d485     .w....&...U..B..
    fab4:	c7f4 d4b4 6d92 d4e4 33da d514 1acb d544     .....m...3....D.
    fac4:	2266 d574 4aab d5a4 939a d5d4 fd31 d604     f"t..J......1...
    fad4:	8770 d635 3255 d666 fddf d696 ea0a d6c7     p.5.U2f.........
    fae4:	f6d5 d6f8 243d d72a 723d d75b e0d3 d78c     ....=$*.=r[.....
    faf4:	6ffa d7be 1fad d7f0 efe7 d821 e0a4 d853     .o........!...S.
    fb04:	f1dd d885 238c d8b8 75ab d8ea e832 d91c     .....#...u..2...
    fb14:	7b19 d94f 2e5a d982 01ec d9b5 f5c6 d9e7     .{O.Z...........
    fb24:	09de da1b 3e2c da4e 92a4 da81 073d dab5     ....,>N.....=...
    fb34:	9bec dae8 50a5 db1c 255c db50 1a04 db84     .....P..\%P.....
    fb44:	2e92 dbb8 62f7 dbec b727 dc20 2b12 dc55     .....b..'. ..+U.
    fb54:	beaa dc89 71df dcbe 44a3 dcf3 36e5 dd28     .....q...D...6(.
    fb64:	4894 dd5d 799f dd92 c9f4 ddc7 3982 ddfd     .H]..y.......9..
    fb74:	c835 de32 75fb de68 42bf de9e 2e6e ded4     5.2..uh..B..n...
    fb84:	38f3 df0a 6239 df40 aa2a df76 10af dfad     .8..9b@.*.v.....
    fb94:	95b2 dfe3 391b e01a fad4 e050 dac3 e087     .....9....P.....
    fba4:	d8cf e0be f4df e0f5 2eda e12d 86a4 e164     ..........-...d.
    fbb4:	fc22 e19b 8f3a e1d3 3fce e20b 0dc2 e243     "...:....?....C.
    fbc4:	f8fa e27a 0156 e2b3 26b9 e2eb 6904 e323     ..z.V....&...i#.
    fbd4:	c817 e35b 43d2 e394 dc16 e3cc 90c0 e405     ..[..C..........
    fbe4:	61af e43e 4ec1 e477 57d3 e4b0 7cc1 e4e9     .a>..Nw..W...|..
    fbf4:	bd68 e522 19a3 e55c 914e e595 2442 e5cf     h."...\.N...B$..
    fc04:	d259 e608 9b6d e642 7f56 e67c 7dec e6b6     Y...m.B.V.|..}..
    fc14:	9707 e6f0 ca7e e72a 1828 e765 7fda e79f     ....~.*.(.e.....
    fc24:	0169 e7da 9caa e814 5171 e84f 1f93 e88a     i.......qQO.....
    fc34:	06e1 e8c5 072f e900 204e e93b 5210 e976     ..../...N ;..Rv.
    fc44:	9c45 e9b1 febe e9ec 794a ea28 0bb9 ea64     E.......Jy(...d.
    fc54:	b5d9 ea9f 7778 eadb 5063 eb17 4068 eb53     ....xw..cP..h@S.
    fc64:	4753 eb8f 64f0 ebcb 990a ec07 e36b ec43     SG...d......k.C.
    fc74:	43df ec80 ba2e ecbc 4622 ecf9 e784 ed35     .C......"F....5.
    fc84:	9e1b ed72 69af edaf 4a08 edec 3eec ee29     ..r..i...J...>).
    fc94:	4820 ee66 656b eea3 9692 eee0 db58 ef1d      Hf.ke......X...
    fca4:	3383 ef5b 9ed5 ef98 1d12 efd6 adfc f013     .3[.............
    fcb4:	5156 f051 06e0 f08f ce5d f0cc a78c f10a     VQQ.....].......
    fcc4:	922f f148 8e05 f186 9acc f1c4 b845 f202     /.H.........E...
    fcd4:	e62e f240 2443 f27f 7244 f2bd cfee f2fb     ..@.C$..Dr......
    fce4:	3cfc f33a b92b f378 4438 f3b7 ddde f3f5     .<:.+.x.8D......
    fcf4:	85d7 f434 3bdf f473 ffb0 f4b1 d104 f4f0     ..4..;s.........
    fd04:	af95 f52f 9b1b f56e 9350 f5ad 97ed f5ec     ../...n.P.......
    fd14:	a8a8 f62b c53b f66a ed5d f6a9 20c5 f6e9     ..+.;.j.].... ..
    fd24:	5f2a f728 a843 f767 fbc6 f7a6 5968 f7e6     *_(.C.g.....hY..
    fd34:	c0e0 f825 31e3 f865 ac26 f8a4 2f5f f8e4     ..%..1e.&..._/..
    fd44:	bb41 f923 4f82 f963 ebd5 f9a2 8fee f9e2     A.#..Oc.........
    fd54:	3b82 fa22 ee43 fa61 a7e5 faa1 681c fae1     .;".C.a......h..
    fd64:	2e99 fb21 fb10 fb60 cd34 fba0 a4b6 fbe0     ..!...`.4.......
    fd74:	814a fc20 62a0 fc60 486c fca0 325f fce0     J. ..b`.lH.._2..
    fd84:	202b fd20 1181 fd60 0613 fda0 fd92 fddf     +  ...`.........
    fd94:	f7b0 fe1f f41e fe5f f28d fe9f f2af fedf     ......_.........
    fda4:	f434 ff1f f6cd ff5f fa2c ff9f fe02 ffdf     4....._.,.......
    fdb4:	01fe 0020 05d4 0060 0933 00a0 0bcc 00e0     .. ...`.3.......
    fdc4:	0d51 0120 0d73 0160 0be2 01a0 0850 01e0     Q. .s.`.....P...
    fdd4:	026e 0220 f9ed 025f ee7f 029f dfd5 02df     n. ..._.........
    fde4:	cda1 031f b794 035f 9d60 039f 7eb6 03df     ......_.`....~..
    fdf4:	5b4a 041f 32cc 045f 04f0 049f d167 04de     J[...2_.....g...
    fe04:	97e4 051e 581b 055e 11bd 059e c47e 05dd     .....X^.....~...
    fe14:	7012 061d 142b 065d b07e 069c 44bf 06dc     .p..+.].~....D..
    fe24:	d0a1 071b 53da 075b ce1d 079a 3f20 07da     .....S[..... ?..
    fe34:	a698 0819 043a 0859 57bd 0898 a0d6 08d7     ....:.Y..W......
    fe44:	df3b 0916 12a3 0956 3ac5 0995 5758 09d4     ;.....V..:..XW..
    fe54:	6813 0a13 6cb0 0a52 64e5 0a91 506b 0ad0     .h...lR..d..kP..
    fe64:	2efc 0b0f 0050 0b4e c421 0b8c 7a29 0bcb     ....P.N.!...)z..
    fe74:	2222 0c0a bbc8 0c48 46d5 0c87 c304 0cc5     ""....H..F......
    fe84:	3012 0d04 8dbc 0d42 dbbd 0d80 19d2 0dbf     .0....B.........
    fe94:	47bb 0dfd 6534 0e3b 71fb 0e79 6dd1 0eb7     .G..4e;..qy..m..
    fea4:	5874 0ef5 31a3 0f33 f920 0f70 aeaa 0fae     tX...13. .p.....
    feb4:	5204 0fec e2ee 1029 612b 1067 cc7d 10a4     .R....).+ag.}...
    fec4:	24a8 10e2 696e 111f 9a95 115c b7e0 1199     .$..ni....\.....
    fed4:	c114 11d6 b5f8 1213 9651 1250 61e5 128d     ........Q.P..a..
    fee4:	187c 12ca b9de 1306 45d2 1343 bc21 137f     |........EC.!...
    fef4:	1c95 13bc 66f6 13f8 9b10 1434 b8ad 1470     .....f....4...p.
    ff04:	bf98 14ac af9d 14e8 8888 1524 4a27 1560     ..........$.'J`.
    ff14:	f447 159b 86b6 15d7 0142 1613 63bb 164e     G.......B....cN.
    ff24:	adf0 1689 dfb2 16c4 f8d1 16ff f91f 173a     ..............:.
    ff34:	e06d 1775 ae8f 17b0 6356 17eb fe97 1825     m.u.....Vc....%.
    ff44:	8026 1860 e7d8 189a 3582 18d5 68f9 190f     &.`......5...h..
    ff54:	8214 1949 80aa 1983 6493 19bd 2da7 19f7     ..I......d...-..
    ff64:	dbbe 1a30 6eb2 1a6a e65d 1aa3 4298 1add     ..0..nj.]....B..
    ff74:	833f 1b16 a82d 1b4f b13f 1b88 9e51 1bc1     ?...-.O.?...Q...
    ff84:	6f40 1bfa 23ea 1c33 bc2e 1c6b 37e9 1ca4     @o...#3...k..7..
    ff94:	96fc 1cdc d947 1d14 feaa 1d4c 0706 1d85     ....G.....L.....
    ffa4:	f23e 1dbc c032 1df4 70c6 1e2c 03de 1e64     >...2....p,...d.
    ffb4:	795c 1e9b d126 1ed2 0b21 1f0a 2731 1f41     \y..&...!...1'A.
    ffc4:	253d 1f78 052c 1faf c6e5 1fe5 6a4e 201c     =%x.,.......Nj. 
    ffd4:	ef51 2052 55d6 2089 9dc7 20bf c70d 20f5     Q.R .U. ... ... 
    ffe4:	d192 212b bd41 2161 8a05 2197 37cb 21cd     ..+!A.a!...!.7.!
    fff4:	c67e 2202 360c 2238 8661 226d b76c 22a2     ~..".68"a.m"l.."
   10004:	c91b 22d7 bb5d 230c 8e21 2341 4156 2376     ..."]..#!.A#VAv#
   10014:	d4ee 23aa 48d9 23df 9d09 2413 d16e 2447     ...#.H.#...$n.G$
   10024:	e5fc 247b daa4 24af af5b 24e3 6414 2517     ..{$...$[..$.d.%
   10034:	f8c3 254a 6d5c 257e c1d4 25b1 f622 25e4     ..J%\m~%...%"..%
   10044:	0a3a 2618 fe14 264a d1a6 267d 84e7 26b0     :..&..J&..}&...&
   10054:	17ce 26e3 8a55 2715 dc74 2747 0e23 277a     ...&U..'t.G'#.z'
   10064:	1f5c 27ac 1019 27de e053 280f 9006 2841     \..'...'S..(..A(
   10074:	1f2d 2873 8dc3 28a4 dbc3 28d5 092b 2907     -.s(...(...(+..)
   10084:	15f6 2938 0221 2969 cdab 2999 7890 29ca     ..8)!.i)...).x.)
   10094:	02cf 29fb 6c66 2a2b b555 2a5b dd9a 2a8b     ...)fl+*U.[*...*
   100a4:	e535 2abb cc26 2aeb 926e 2b1b 380c 2b4b     5..*&..*n..+.8K+
   100b4:	bd02 2b7a 2152 2baa 64fc 2bd9 8804 2c08     ..z+R!.+.d.+...,
   100c4:	8a6b 2c37 6c33 2c66 2d61 2c95 cdf7 2cc3     k.7,3lf,a-.,...,
   100d4:	4df9 2cf2 ad6a 2d20 ec50 2d4e 0aaf 2d7d     .M.,j. -P.N-..}-
   100e4:	088a 2dab e5e9 2dd8 a2cf 2e06 3f44 2e34     ...-...-....D?4.
   100f4:	bb4c 2e61 16ee 2e8f 5231 2ebc 6d1c 2ee9     L.a.....1R...m..
   10104:	67b5 2f16 4204 2f43 fc11 2f6f 95e4 2f9c     .g./.BC/..o/.../
   10114:	0f84 2fc9 68fb 2ff5 a251 3021 bb8e 304d     .../.h./Q.!0..M0
   10124:	b4bc 3079 8de5 30a5 4712 30d1 e04d 30fc     ..y0...0.G.0M..0
   10134:	59a0 3128 b315 3153 ecb7 317e 0691 31aa     .Y(1..S1..~1...1
   10144:	00ae 31d5 db18 31ff 95dc 322a 3105 3255     ...1...1..*2.1U2
   10154:	ac9e 327f 08b4 32aa 4553 32d4 6288 32fe     ...2...2SE.2.b.2
   10164:	605f 3328 3ee4 3352 fe25 337b 9e2f 33a5     _`(3.>R3%.{3/..3
   10174:	1f0f 33cf 80d3 33f8 c389 3421 e73e 344a     ...3...3..!4>.J4
   10184:	ec00 3473 d1dd 349c 98e5 34c5 4124 34ee     ..s4...4...4$A.4
   10194:	caab 3516 3587 353f 81c8 3567 af7d 358f     ...5.5?5..g5}..5
   101a4:	beb5 35b7 af7f 35df 81eb 3607 3609 362f     ...5...5...6.6/6
   101b4:	cbe7 3656 4398 367e 9d29 36a5 d8ac 36cc     ..V6.C~6)..6...6
   101c4:	f630 36f3 f5c7 371a d780 3741 9b6d 3768     0..6...7..A7m.h7
   101d4:	419d 378f ca23 37b5 350e 37dc 8270 3802     .A.7#..7.5.7p..8
   101e4:	b25a 3828 c4dd 384e ba0b 3874 91f5 389a     Z.(8..N8..t8...8
   101f4:	4cac 38c0 ea43 38e5 6acb 390b ce55 3930     .L.8C..8.j.9U.09
   10204:	14f5 3956 3ebb 397b 4bb9 39a0 3c03 39c5     ..V9.>{9.K.9.<.9
   10214:	0fa9 39ea c6bf 3a0e 6156 3a33 df82 3a57     ...9...:Va3:..W:
   10224:	4154 3a7c 86df 3aa0 b036 3ac4 bd6b 3ae8     TA|:...:6..:k..:
   10234:	ae91 3b0c 83bc 3b30 3cfd 3b54 da67 3b77     ...;..0;.<T;g.w;
   10244:	5c0e 3b9b c205 3bbe 0c5e 3be2 3b2d 3c05     .\.;...;^..;-;.<
   10254:	4e85 3c28 4679 3c4b 231c 3c6e e481 3c90     .N(<yFK<.#n<...<
   10264:	8abc 3cb3 15e0 3cd6 8601 3cf8 db32 3d1a     ...<...<...<2..=
   10274:	1585 3d3d 3510 3d5f 39e5 3d81 2417 3da3     ..==.5_=.9.=.$.=
   10284:	f3bb 3dc4 a8e3 3de6 43a4 3e08 c411 3e29     ...=...=.C.>..)>
   10294:	2a3d 3e4b 763d 3e6c a823 3e8d c005 3eae     =*K>=vl>#..>...>
   102a4:	bdf4 3ecf a205 3ef0 6c4c 3f11 1cdd 3f32     ...>...>Ll.?..2?
   102b4:	b3ca 3f52 3129 3f73 950b 3f93 df87 3fb3     ..R?)1s?...?...?
   102c4:	10ae 3fd4 2895 3ff4 2750 4014 0cf2 4034     ...?.(.?P'.@..4@
   102d4:	d98f 4053 8d3b 4073 2809 4093 aa0e 40b2     ..S@;.s@.(.@...@
   102e4:	135d 40d2 6409 40f1 9c27 4110 bbcb 412f     ]..@.d.@'..A../A
   102f4:	c307 414e b1f0 416d 8899 418c 4717 41ab     ..NA..mA...A.G.A
   10304:	ed7c 41c9 7bdc 41e8 f24b 4206 50dd 4225     |..A.{.AK..B.P%B
   10314:	97a5 4243 c6b7 4261 de26 427f de06 429d     ..CB..aB&..B...B
   10324:	c66b 42bb 9767 42d9 510f 42f7 f376 4314     k..Bg..B.Q.Bv..C
   10334:	7eaf 4332 f2ce 434f 4fe6 436d 960a 438a     .~2C..OC.OmC...C
   10344:	c54e 43a7 ddc6 43c4 df84 43e1 ca9b 43fe     N..C...C...C...C
   10354:	9f20 441b 5d25 4438 04bd 4455 95fc 4471      ..D%]8D..UD..qD
   10364:	10f4 448e 75b9 44aa c45e 44c6 fcf6 44e2     ...D.u.D^..D...D
   10374:	1f93 44ff 2c49 451b 232b 4537 044c 4553     ...DI,.E+#7EL.SE
   10384:	cfbd 456e 8593 458a 25e0 45a6 b0b7 45c1     ..nE...E.%.E...E
   10394:	262a 45dd 864c 45f8 d130 4613 06e9 462f     *&.EL..E0..F../F
   103a4:	2788 464a 3321 4665 29c5 4680 0b88 469b     .'JF!3eF.).F...F
   103b4:	d87c 46b5 90b3 46d0 343f 46eb c333 4705     |..F...F?4.F3..G
   103c4:	3da0 4720 a39a 473a f532 4754 327b 476f     .= G..:G2.TG{2oG
   103d4:	5b85 4789 7065 47a3 712a 47bd 5de8 47d7     .[.Gep.G*q.G.].G
   103e4:	36b0 47f1 fb94 480a aca6 4824 49f8 483e     .6.G...H..$H.I>H
   103f4:	d39b 4857 49a0 4871 ac1b 488a fb1b 48a3     ..WH.IqH...H...H
   10404:	36b3 48bd 5ef4 48d6 73f0 48ef 75b8 4908     .6.H.^.H.s.H.u.I
   10414:	645d 4921 3ff0 493a 0884 4953 be28 496b     ]d!I.?:I..SI(.kI
   10424:	60ee 4984 f0e8 499c 6e26 49b5 d8b9 49cd     .`.I...I&n.I...I
   10434:	30b2 49e6 7622 49fe a91a 4a16 c9ab 4a2e     .0.I"v.I...J...J
   10444:	d7e6 4a46 d3da 4a5e bd9a 4a76 9535 4a8e     ..FJ..^J..vJ5..J
   10454:	5abc 4aa6 0e3f 4abe afd0 4ad5 3f7d 4aed     .Z.J?..J...J}?.J
   10464:	bd59 4b04 2972 4b1c 83da 4b33 cca0 4b4a     Y..Kr).K..3K..JK
   10474:	03d5 4b62 2988 4b79 3dcb 4b90 40ac 4ba7     ..bK.)yK.=.K.@.K
   10484:	323b 4bbe 128a 4bd5 e1a7 4beb 9fa2 4c02     ;2.K...K...K...L
   10494:	4c8b 4c19 e872 4c2f 7366 4c46 ed77 4c5c     .L.Lr./LfsFLw.\L
   104a4:	56b5 4c73 af2e 4c89 f6f3 4c9f 2e13 4cb6     .VsL...L...L...L
   104b4:	549d 4ccc 6aa0 4ce2 702c 4cf8 6550 4d0e     .T.L.j.L,p.LPe.M
   104c4:	4a1b 4d24 1e9b 4d3a e2e1 4d4f 96fb 4d65     .J$M..:M..OM..eM
   104d4:	3af9 4d7b cee7 4d90 52d7 4da6 c6d6 4dbb     .:{M...M.R.M...M
   104e4:	2af4 4dd1 7f3e 4de6 c3c4 4dfb f894 4e10     .*.M>..M...M...N
   104f4:	1dbc 4e26 334c 4e3b 3951 4e50 2fda 4e65     ..&NL3;NQ9PN./eN
   10504:	16f5 4e7a eeb0 4e8e b71b 4ea3 7042 4eb8     ..zN...N...NBp.N
   10514:	1a34 4ecd b4ff 4ee1 40b2 4ef6 bd59 4f0a     4..N...N.@.NY..O
   10524:	2b03 4f1f 89be 4f33 d998 4f47 1a9e 4f5c     .+.O..3O..GO..\O
   10534:	4cdf 4f70 7067 4f84 8544 4f98 8b85 4fac     .LpOgp.OD..O...O
   10544:	8336 4fc0 6c65 4fd4 471f 4fe8 1372 4ffc     6..Oel.O.G.Or..O
   10554:	d16b 500f 8118 5023 2285 5037 b5c0 504a     k..P..#P."7P..JP
   10564:	3ad6 505e b1d4 5071 1ac7 5085 75bb 5098     .:^P..qP...P.u.P
   10574:	c2bf 50ab 01df 50bf 3327 50d2 56a5 50e5     ...P...P'3.P.V.P
   10584:	6c65 50f8 7473 510b 6ede 511e 5bb0 5131     el.Pst.Q.n.Q.[1Q
   10594:	3af7 5144 0cbf 5157 d115 5169 8805 517c     .:DQ..WQ..iQ..|Q
   105a4:	319b 518f cde4 51a1 5cec 51b4 dec0 51c6     .1.Q...Q.\.Q...Q
   105b4:	536a 51d9 baf8 51eb 1576 51fe 62ef 5210     jS.Q...Qv..Q.b.R
   105c4:	a370 5222 d705 5234 fdb9 5246 1798 5259     p."R..4R..FR..YR
   105d4:	24af 526b 2508 527d 18b0 528f ffb2 52a0     .$kR.%}R...R...R
   105e4:	da1a 52b2 a7f4 52c4 694a 52d6 1e29 52e8     ...R...RJi.R)..R
   105f4:	c69d 52f9 62af 530b f26c 531c 75df 532e     ...R.b.Sl..S.u.S
   10604:	ed14 533f 5815 5351 b6ed 5362 09a9 5374     ..?S.XQS..bS..tS
   10614:	5052 5385 8af5 5396 b99b 53a7 dc51 53b8     RP.S...S...SQ..S
   10624:	f320 53c9 fe14 53da fd38 53eb f096 53fc      ..S...S8..S...S
   10634:	d839 540d b42c 541e 847a 542f 492d 5440     9..T,..Tz./T-I@T
   10644:	0250 5451 afec 5461 520e 5472 e8bf 5482     P.QT..aT.RrT...T
   10654:	740a 5493 f3f8 54a3 6895 54b4 d1eb 54c4     .t.T...T.h.T...T
   10664:	3003 54d5 82e9 54e5 caa6 54f5 0745 5506     .0.T...T...TE..U
   10674:	38cf 5516 5f4e 5526 7acd 5536 8b56 5546     .8.UN_&U.z6UV.FU
   10684:	90f3 5556 8bac 5566 7b8d 5576 609f 5586     ..VU..fU.{vU.`.U
   10694:	3aec 5596 0a7e 55a6 cf5d 55b5 8995 55c5     .:.U~..U]..U...U
   106a4:	392e 55d5 de33 55e4 78ac 55f4 08a3 5604     .9.U3..U.x.U...V
   106b4:	8e22 5613 0932 5623 79dc 5632 e02b 5641     "..V2.#V.y2V+.AV
   106c4:	3c26 5651 8dd8 5660 d54a 566f 1284 567f     &<QV..`VJ.oV...V
   106d4:	4591 568e 6e78 569d 8d44 56ac a1fe 56bb     .E.Vxn.VD..V...V
   106e4:	acae 56ca ad5d 56d9 a414 56e8 90dd 56f7     ...V]..V...V...V
   106f4:	73bf 5706 4cc5 5715 1bf7 5724 e15d 5732     .s.W.L.W..$W].2W
   10704:	9d00 5741 4ee9 5750 f721 575e 95b0 576d     ..AW.NPW!.^W..mW
   10714:	2a9f 577c b5f6 578a 37bf 5799 b001 57a7     .*|W...W.7.W...W
   10724:	1ec4 57b6 8412 57c4 dff3 57d2 326f 57e1     ...W...W...Wo2.W
   10734:	7b8f 57ef bb5a 57fd f1d9 580b 1f14 581a     .{.WZ..W...X...X
   10744:	4314 5828 5de0 5836 6f81 5844 77fe 5852     .C(X.]6X.oDX.wRX
   10754:	7761 5860 6db0 586e 5af4 587c 3f35 588a     aw`X.mnX.Z|X5?.X
   10764:	1a7b 5898 ecce 58a5 b635 58b3 76b8 58c1     {..X...X5..X.v.X
   10774:	2e5f 58cf dd33 58dc 833a 58ea 207d 58f8     _..X3..X:..X} .X
   10784:	b502 5905 40d3 5913 c3f5 5920 3e72 592e     ...Y.@.Y.. Yr>.Y
   10794:	b050 593b 1997 5949 7a4f 5956 d27f 5963     P.;Y..IYOzVY..cY
   107a4:	222e 5971 6964 597e a828 598b de82 5998     ."qYdi~Y(..Y...Y
   107b4:	0c79 59a6 3213 59b3 4f5a 59c0 6453 59cd     y..Y.2.YZO.YSd.Y
   107c4:	7105 59da 7579 59e7 71b5 59f4 65c1 5a01     .q.Yyu.Y.q.Y.e.Z
   107d4:	51a2 5a0e 3561 5a1b 1105 5a28 e494 5a34     .Q.Za5.Z..(Z..4Z
   107e4:	b016 5a41 7391 5a4e 2f0c 5a5b e28e 5a67     ..AZ.sNZ./[Z..gZ
   107f4:	8e1f 5a74 31c4 5a81 cd86 5a8d 6169 5a9a     ..tZ.1.Z...Zia.Z
   10804:	ed76 5aa6 71b3 5ab3 ee27 5abf 62d8 5acc     v..Z.q.Z'..Z.b.Z
   10814:	cfcc 5ad8 350c 5ae5 929d 5af1 e885 5afd     ...Z.5.Z...Z...Z
   10824:	36cc 5b0a 7d78 5b16 bc8e 5b22 f417 5b2e     .6.[x}.[.."[...[
   10834:	2418 5b3b 4c98 5b47 6d9c 5b53 872c 5b5f     .$;[.LG[.mS[,._[
   10844:	994e 5b6b a407 5b77 a75f 5b83 a35c 5b8f     N.k[..w[_..[\..[
   10854:	9803 5b9b 855b 5ba7 6b6b 5bb3 4a38 5bbf     ...[[..[kk.[8J.[
   10864:	21c8 5bcb f222 5bd6 bb4b 5be2 7d4b 5bee     .!.["..[K..[K}.[
   10874:	3826 5bfa ebe3 5c05 9887 5c11 3e1a 5c1d     &8.[...\...\.>.\
   10884:	dca0 5c28 741f 5c34 049f 5c40 8e23 5c4b     ..(\.t4\..@\#.K\
   10894:	10b3 5c57 8c54 5c62 010c 5c6e 6ee0 5c79     ..W\T.b\..n\.ny\
   108a4:	d5d7 5c84 35f6 5c90 8f42 5c9b e1c3 5ca6     ...\.5.\B..\...\
   108b4:	2d7c 5cb2 7274 5cbd b0b1 5cc8 e838 5cd3     |-.\tr.\...\8..\
   108c4:	190e 5cdf 433a 5cea 66c0 5cf5 83a7 5d00     ...\:C.\.f.\...]
   108d4:	99f3 5d0b a9ab 5d16 b2d3 5d21 b571 5d2c     ...]...]..!]q.,]
   108e4:	b18b 5d37 a726 5d42 9647 5d4d 7ef3 5d58     ..7]&.B]G.M].~X]
   108f4:	6130 5d63 3d04 5d6e 1272 5d79 e182 5d83     0ac].=n]r.y]...]
   10904:	aa38 5d8e 6c98 5d99 28a9 5da4 de70 5dae     8..].l.].(.]p..]
   10914:	8df1 5db9 3733 5dc4 da39 5dce 7709 5dd9     ...]37.]9..].w.]
   10924:	0da8 5de4 9e1b 5dee 2868 5df9 ac93 5e03     ...]...]h(.]...^
   10934:	2aa1 5e0e a297 5e18 147a 5e23 8050 5e2d     .*.^...^z.#^P.-^
   10944:	e61c 5e37 45e5 5e42 9fae 5e4c f37d 5e56     ..7^.EB^..L^}.V^
   10954:	4156 5e61 893e 5e6b cb3b 5e75 0751 5e80     VAa^>.k^;.u^Q..^
   10964:	3d84 5e8a 6dda 5e94 9856 5e9e bcff 5ea8     .=.^.m.^V..^...^
   10974:	dbd8 5eb2 f4e7 5ebc 082f 5ec7 15b6 5ed1     ...^...^/..^...^
   10984:	1d80 5edb 1f92 5ee5 1bf0 5eef 129f 5ef9     ...^...^...^...^
   10994:	03a3 5f03 ef02 5f0c d4bf 5f16 b4df 5f20     ..._..._..._.. _
   109a4:	8f66 5f2a 6459 5f34 33bd 5f3e fd96 5f47     f.*_Yd4_.3>_..G_
   109b4:	c1e8 5f51 80b7 5f5b 3a08 5f65 ede0 5f6e     ..Q_..[_.:e_..n_
   109c4:	9c43 5f78 4534 5f82 e8b9 5f8b 86d6 5f95     C.x_4E._..._..._
   109d4:	1f8f 5f9f b2e7 5fa8 40e4 5fb2 c98a 5fbb     ..._..._.@._..._
   109e4:	4cdd 5fc5 cae1 5fce 439a 5fd8 b70c 5fe1     .L._..._.C._..._
   109f4:	253c 5feb 8e2e 5ff4 f1e6 5ffd 5067 6007     <%._..._..._gP.`
   10a04:	a9b7 6010 fdd8 6019 4cd0 6023 96a2 602c     ...`...`.L#`..,`
   10a14:	db52 6035 1ae5 603f 555d 6048 8ac0 6051     R.5`..?`]UH`..Q`
   10a24:	bb11 605a e654 6063 0c8d 606d 2dc0 6076     ..Z`T.c`..m`.-v`
   10a34:	49f1 607f 6124 6088 735c 6091 809e 609a     .I.`$a.`\s.`...`
   10a44:	88ed 60a3 8c4d 60ac 8ac2 60b5 8450 60be     ...`M..`...`P..`
   10a54:	78fb 60c7 68c6 60d0 53b5 60d9 39cc 60e2     .x.`.h.`.S.`.9.`
   10a64:	1b0f 60eb f780 60f3 cf25 60fc a201 6105     ...`...`%..`...a
   10a74:	7017 610e 396b 6117 fe00 611f bddb 6128     .p.ak9.a...a..(a
   10a84:	78ff 6131 2f6f 613a e130 6142 8e44 614b     .x1ao/:a0.BaD.Ka
   10a94:	36b0 6154 da76 615c 799b 6165 1422 616e     .6Tav.\a.yea".na
   10aa4:	aa0e 6176 3b63 617f c824 6187 5056 6190     ..vac;.a$..aVP.a
   10ab4:	d3fa 6198 5316 61a1 cdac 61a9 43bf 61b2     ...a.S.a...a.C.a
   10ac4:	b553 61ba 226c 61c3 8b0d 61cb ef39 61d3     S..al".a...a9..a
   10ad4:	4ef4 61dc aa40 61e4 0122 61ed 539d 61f5     .N.a@..a"..a.S.a
   10ae4:	a1b3 61fd eb69 6205 30c1 620e 71bf 6216     ...ai..b.0.b.q.b
   10af4:	ae66 621e e6b9 6226 1abc 622f 4a71 6237     f..b..&b../bqJ7b
   10b04:	75dd 623f 9d01 6247 bfe2 624f de83 6257     .u?b..Gb..Ob..Wb
   10b14:	f8e6 625f 0f0f 6268 2101 6270 2ec0 6278     .._b..hb.!pb..xb
   10b24:	384d 6280 3dad 6288 3ee3 6290 3bf1 6298     M8.b.=.b.>.b.;.b
   10b34:	34db 62a0 29a3 62a8 1a4d 62b0 06dc 62b8     .4.b.).bM..b...b
   10b44:	ef53 62bf d3b5 62c7 b405 62cf 9045 62d7     S..b...b...bE..b
   10b54:	6879 62df 3ca5 62e7 0cca 62ef d8ec 62f6     yh.b.<.b...b...b
   10b64:	a10d 62fe 6531 6306 255b 630e e18d 6315     ...b1e.c[%.c...c
   10b74:	99cb 631d 4e17 6325 fe74 632c aae5 6334     ...c.N%ct.,c..4c
   10b84:	536d 633c f80f 6343 98ce 634b 35ac 6353     mS<c..Cc..Kc.5Sc
   10b94:	ceac 635a 63d1 6362 f51e 6369 8295 6371     ..Zc.cbc..ic..qc
   10ba4:	0c3b 6379 9210 6380 1418 6388 9256 638f     ;.yc...c...cV..c
   10bb4:	0ccd 6397 837e 639e f66e 63a5 659e 63ad     ...c~..cn..c.e.c
   10bc4:	d111 63b4 38cb 63bc 9ccd 63c3 fd1b 63ca     ...c.8.c...c...c
   10bd4:	59b6 63d2 b2a2 63d9 07e2 63e1 5977 63e8     .Y.c...c...cwY.c
   10be4:	a766 63ef f1af 63f6 3856 63fe 7b5e 6405     f..c...cV8.c^{.d
   10bf4:	bac8 640c f698 6413 2ed1 641b 6374 6422     ...d...d...dtc"d
   10c04:	9484 6429 c204 6430 ebf7 6437 125e 643f     ..)d..0d..7d^.?d
   10c14:	353d 6446 5495 644d 706a 6454 88be 645b     =5Fd.TMdjpTd..[d
   10c24:	9d94 6462 aeed 6469 bccc 6470 c734 6477     ..bd..id..pd4.wd
   10c34:	ce28 647e d1a9 6485 d1ba 648c ce5d 6493     (.~d...d...d]..d
   10c44:	c796 649a bd66 64a1 afcf 64a8 9ed5 64af     ...df..d...d...d
   10c54:	8a79 64b6 72be 64bd 57a6 64c4 3934 64cb     y..d.r.d.W.d49.d
   10c64:	1769 64d2 f249 64d8 c9d6 64df 9e11 64e6     i..dI..d...d...d
   10c74:	6efe 64ed 3c9e 64f4 06f4 64fb ce02 6501     .n.d.<.d...d...e
   10c84:	91ca 6508 524f 650f 0f93 6516 c998 651c     ...eOR.e...e...e
   10c94:	8061 6523 33ef 652a e445 6530 9166 6537     a.#e.3*eE.0ef.7e
   10ca4:	3b53 653e e20e 6544 859a 654b 25f9 6552     S;>e..De..Ke.%Re
   10cb4:	c32d 6558 5d39 655f f41e 6565 87df 656c     -.Xe9]_e..ee..le
   10cc4:	187e 6573 a5fc 6579 305d 6580 b7a2 6586     ~.se..ye]0.e...e
   10cd4:	3bce 658d bce2 6593 3ae0 659a b5cc 65a0     .;.e...e.:.e...e
   10ce4:	2da6 65a7 a271 65ad 1430 65b4 82e3 65ba     .-.eq..e0..e...e
   10cf4:	ee8e 65c0 5732 65c7 bcd1 65cd 1f6e 65d4     ...e2W.e...en..e
   10d04:	7f0a 65da dba7 65e0 3548 65e7 8bee 65ed     ...e...eH5.e...e
   10d14:	df9c 65f3 3054 65fa 7e17 6600 c8e8 6606     ...eT0.e.~.f...f
   10d24:	10c8 660d 55b9 6613 97be 6619 d6d9 661f     ...f.U.f...f...f
   10d34:	130b 6626 4c56 662c 82bd 6632 b641 6638     ..&fVL,f..2fA.8f
   10d44:	e6e4 663e 14a9 6645 3f90 664b 679c 6651     ..>f..Ef.?Kf.gQf
   10d54:	8cd0 6657 af2c 665d ceb2 6663 eb66 6669     ..Wf,.]f..cff.if
   10d64:	0547 6670 1c5a 6676 309e 667c 4217 6682     G.pfZ.vf.0|f.B.f
   10d74:	50c5 6688 5cab 668e 65cb 6694 6c26 669a     .P.f.\.f.e.f&l.f
   10d84:	6fbf 66a0 7097 66a6 6eb0 66ac 6a0c 66b2     .o.f.p.f.n.f.j.f
   10d94:	62ac 66b8 5893 66be 4bc2 66c4 3c3b 66ca     .b.f.X.f.K.f;<.f
   10da4:	29ff 66d0 1512 66d6 fd73 66db e326 66e1     .).f...fs..f&..f
   10db4:	c62c 66e7 a687 66ed 8437 66f3 5f40 66f9     ,..f...f7..f@_.f
   10dc4:	37a3 66ff 0d62 6705 e07e 670a b0f9 6710     .7.fb..g~..g...g
   10dd4:	7ed5 6716 4a13 671c 12b5 6722 d8be 6727     .~.g.J.g.."g..'g
   10de4:	9c2e 672d 5d07 6733 1b4c 6739 d6fd 673e     ..-g.]3gL.9g..>g
   10df4:	901d 6744 46ac 674a faad 674f ac22 6755     ..Dg.FJg..Og".Ug
   10e04:	5b0b 675b 076c 6761 b144 6766 5896 676c     .[[gl.agD.fg.Xlg
   10e14:	fd64 6771 9fb0 6777 3f7a 677d dcc4 6782     d.qg..wgz?}g...g
   10e24:	7790 6788 0fe0 678e a5b6 6793 3912 6799     .w.g...g...g.9.g
   10e34:	c9f6 679e 5865 67a4 e45f 67a9 6de6 67af     ...geX.g_..g.m.g
   10e44:	f4fc 67b4 79a2 67ba fbdb 67bf 7ba6 67c5     ...g.y.g...g.{.g
   10e54:	f907 67ca 73fe 67d0 ec8d 67d5 62b5 67db     ...g.s.g...g.b.g
   10e64:	d679 67e0 47d9 67e6 b6d7 67eb 2376 67f1     y..g.G.g...gv#.g
   10e74:	8db5 67f6 f597 67fb 5b1d 6801 be49 6806     ...g...g.[.hI..h
   10e84:	1f1b 680c 7d97 6811 d9bd 6816 338e 681c     ...h.}.h...h.3.h
   10e94:	8b0c 6821 e039 6826 3316 682c 83a4 6831     ..!h9.&h.3,h..1h
   10ea4:	d1e6 6836 1ddb 683c 6787 6841 aee9 6846     ..6h..<h.gAh..Fh
   10eb4:	f404 684b 36da 6851 776b 6856 b5b9 685b     ..Kh.6QhkwVh..[h
   10ec4:	f1c5 6860 2b91 6866 631e 686b 986e 6870     ..`h.+fh.ckhn.ph
   10ed4:	cb82 6875 fc5b 687a 2afb 6880 5763 6885     ..uh[.zh.*.hcW.h
   10ee4:	8195 688a a991 688f cf5a 6894 f2f1 6899     ...h...hZ..h...h
   10ef4:	1456 689f 338c 68a4 5094 68a9 6b6f 68ae     V..h.3.h.P.hok.h
   10f04:	841e 68b3 9aa3 68b8 aeff 68bd c134 68c2     ...h...h...h4..h
   10f14:	d142 68c7 df2c 68cc eaf1 68d1 f495 68d6     B..h,..h...h...h
   10f24:	fc18 68db 017b 68e1 04c0 68e6 05e7 68eb     ...h{..h...h...h
   10f34:	04f3 68f0 01e5 68f5 fcbe 68f9 f57e 68fe     ...h...h...h~..h
   10f44:	ec28 6903 e0bd 6908 d33e 690d c3ac 6912     (..i...i>..i...i
   10f54:	b208 6917 9e55 691c 8892 6921 70c2 6926     ...iU..i..!i.p&i
   10f64:	56e5 692b 3afd 6930 1d0b 6935 fd10 6939     .V+i.:0i..5i..9i
   10f74:	db0e 693e b705 6943 90f8 6948 68e6 694d     ..>i..Ci..Hi.hMi
   10f84:	3ed3 6952 12bd 6957 e4a8 695b b493 6960     .>Ri..Wi..[i..`i
   10f94:	8281 6965 4e73 696a 1868 696f e064 6973     ..eisNjih.oid.si
   10fa4:	a667 6978 6a72 697d 2c87 6982 eca6 6986     g.xirj}i.,.i...i
   10fb4:	aad1 698b 6708 6990 214e 6995 d9a3 6999     ...i.g.iN!.i...i
   10fc4:	9009 699e 4480 69a3 f70a 69a7 a7a8 69ac     ...i.D.i...i...i
   10fd4:	565b 69b1 0324 69b6 ae04 69ba 56fd 69bf     [V.i$..i...i.V.i
   10fe4:	fe0f 69c3 a33c 69c8 4685 69cd e7eb 69d1     ...i<..i.F.i...i
   10ff4:	8770 69d6 2513 69db c0d7 69df 5abc 69e4     p..i.%.i...i.Z.i
   11004:	f2c3 69e8 88ef 69ed 1d3f 69f2 afb5 69f6     ...i...i?..i...i
   11014:	4052 69fb cf17 69ff 5c05 6a04 e71d 6a08     R@.i...i.\.j...j
   11024:	7061 6a0d f7d1 6a11 7d6e 6a16 013a 6a1b     ap.j...jn}.j:..j
   11034:	8336 6a1f 0362 6a24 81c0 6a28 fe50 6a2c     6..jb.$j..(jP.,j
   11044:	7915 6a31 f20e 6a35 693d 6a3a dea4 6a3e     .y1j..5j=i:j..>j
   11054:	5242 6a43 c419 6a47 342b 6a4c a277 6a50     BRCj..Gj+4Ljw.Pj
   11064:	0f00 6a55 79c6 6a59 e2ca 6a5d 4a0e 6a62     ..Uj.yYj..]j.Jbj
   11074:	af91 6a66 1356 6a6b 755d 6a6f d5a8 6a73     ..fjV.kj]uoj..sj
   11084:	3437 6a78 910b 6a7c ec25 6a80 4587 6a85     74xj..|j%..j.E.j
   11094:	9d31 6a89 f324 6a8d 4761 6a92 99ea 6a96     1..j$..jaG.j...j
   110a4:	eabf 6a9a 39e1 6a9f 8752 6aa3 d312 6aa7     ...j.9.jR..j...j
   110b4:	1d21 6aac 6582 6ab0 ac35 6ab4 f13b 6ab8     !..j.e.j5..j;..j
   110c4:	3495 6abd 7645 6ac1 b64a 6ac5 f4a5 6ac9     .4.jEv.jJ..j...j
   110d4:	3159 6ace 6c65 6ad2 a5cc 6ad6 dd8c 6ada     Y1.jel.j...j...j
   110e4:	13a9 6adf 4822 6ae3 7af8 6ae7 ac2d 6aeb     ...j"H.j.z.j-..j
   110f4:	dbc1 6aef 09b6 6af4 360b 6af8 60c3 6afc     ...j...j.6.j.`.j
   11104:	89de 6b00 b15c 6b04 d740 6b08 fb89 6b0c     ...k\..k@..k...k
   11114:	1e39 6b11 3f50 6b15 5ed0 6b19 7cb9 6b1d     9..kP?.k.^.k.|.k
   11124:	990c 6b21 b3cb 6b25 ccf6 6b29 e48d 6b2d     ..!k..%k..)k..-k
   11134:	fa93 6b31 0f07 6b36 21ea 6b3a 333e 6b3e     ..1k..6k.!:k>3>k
   11144:	4304 6b42 513b 6b46 5de6 6b4a 6905 6b4e     .CBk;QFk.]Jk.iNk
   11154:	7298 6b52 7aa1 6b56 8121 6b5a 8618 6b5e     .rRk.zVk!.Zk..^k
   11164:	8987 6b62 8b70 6b66 8bd2 6b6a 8aaf 6b6e     ..bkp.fk..jk..nk
   11174:	8808 6b72 83de 6b76 7e30 6b7a 7701 6b7e     ..rk..vk0~zk.w~k
   11184:	6e51 6b82 6421 6b86 5871 6b8a 4b43 6b8e     Qn.k!d.kqX.kCK.k
   11194:	3c97 6b92 2c6e 6b96 1aca 6b9a 07aa 6b9e     .<.kn,.k...k...k
   111a4:	f310 6ba1 dcfc 6ba5 c570 6ba9 ac6b 6bad     ...k...kp..kk..k
   111b4:	91f0 6bb1 75fe 6bb5 5896 6bb9 39ba 6bbd     ...k.u.k.X.k.9.k
   111c4:	196a 6bc1 f7a7 6bc4 d472 6bc8 afcb 6bcc     j..k...kr..k...k
   111d4:	89b3 6bd0 622b 6bd4 3935 6bd8 0ed0 6bdc     ...k+b.k59.k...k
   111e4:	e2fd 6bdf b5bd 6be3 8712 6be7 56fb 6beb     ...k...k...k.V.k
   111f4:	257a 6bef f28f 6bf2 be3b 6bf6 887f 6bfa     z%.k...k;..k...k
   11204:	515b 6bfe 18d1 6c02 dee1 6c05 a38c 6c09     [Q.k...l...l...l
   11214:	66d2 6c0d 28b5 6c11 e935 6c14 a853 6c18     .f.l.(.l5..lS..l
   11224:	660f 6c1c 226b 6c20 dd67 6c23 9704 6c27     .f.lk" lg.#l..'l
   11234:	4f43 6c2b 0624 6c2f bba8 6c32 6fd0 6c36     CO+l$./l..2l.o6l
   11244:	229c 6c3a d40e 6c3d 8425 6c41 32e4 6c45     .":l..=l%.Al.2El
   11254:	e04a 6c48 8c58 6c4c 370f 6c50 e06f 6c53     J.HlX.Ll.7Plo.Sl
   11264:	887a 6c57 2f30 6c5b d492 6c5e 78a0 6c62     z.Wl0/[l..^l.xbl
   11274:	1b5c 6c66 bcc5 6c69 5cdd 6c6d fba4 6c70     \.fl..il.\ml..pl
   11284:	991b 6c74 3543 6c78 d01d 6c7b 69a8 6c7f     ..tlC5xl..{l.i.l
   11294:	01e6 6c83 98d8 6c86 2e7e 6c8a c2d9 6c8d     ...l...l~..l...l
   112a4:	55e9 6c91 e7b0 6c94 782d 6c98 0762 6c9c     .U.l...l-x.lb..l
   112b4:	954f 6c9f 21f6 6ca3 ad56 6ca6 3770 6caa     O..l.!.lV..lp7.l
   112c4:	c045 6cad 47d6 6cb1 ce23 6cb4 532d 6cb8     E..l.G.l#..l-S.l
   112d4:	d6f4 6cbb 597a 6cbf dabf 6cc2 5ac4 6cc6     ...lzY.l...l.Z.l
   112e4:	d988 6cc9 570e 6ccd d355 6cd0 4e5f 6cd4     ...l.W.lU..l_N.l
   112f4:	c82b 6cd7 40bb 6cdb b80f 6cde 2e28 6ce2     +..l.@.l...l(..l
   11304:	a307 6ce5 16ab 6ce9 8917 6cec fa49 6cef     ...l...l...lI..l
   11314:	6a44 6cf3 d907 6cf6 4694 6cfa b2ea 6cfd     Dj.l...l.F.l...l
   11324:	1e0b 6d01 87f7 6d04 f0af 6d07 5834 6d0b     ...m...m...m4X.m
   11334:	be85 6d0e 23a5 6d12 8792 6d15 ea4e 6d18     ...m.#.m...mN..m
   11344:	4bda 6d1c ac36 6d1f 0b63 6d23 6961 6d26     .K.m6..mc.#mai&m
   11354:	c631 6d29 21d4 6d2d 7c4a 6d30 d594 6d33     1.)m.!-mJ|0m..3m
   11364:	2db2 6d37 84a5 6d3a da6d 6d3d 2f0c 6d41     .-7m..:mm.=m./Am
   11374:	8282 6d44 d4cf 6d47 25f4 6d4b 75f1 6d4e     ..Dm..Gm.%Km.uNm
   11384:	c4c8 6d51 1279 6d55 5f04 6d58 aa69 6d5b     ..Qmy.Um._Xmi.[m
   11394:	f4ab 6d5e 3dc8 6d62 85c2 6d65 cc99 6d68     ..^m.=bm..em..hm
   113a4:	124f 6d6c 56e2 6d6f 9a55 6d72 dca7 6d75     O.lm.VomU.rm..um
   113b4:	1dd9 6d79 5dec 6d7c 9ce0 6d7f dab7 6d82     ..ym.]|m...m...m
   113c4:	176f 6d86 530b 6d89 8d8a 6d8c c6ed 6d8f     o..m.S.m...m...m
   113d4:	ff35 6d92 3662 6d96 6c74 6d99 a16e 6d9c     5..mb6.mtl.mn..m
   113e4:	d54e 6d9f 0815 6da3 39c5 6da6 6a5d 6da9     N..m...m.9.m]j.m
   113f4:	99de 6dac c849 6daf f59e 6db2 21de 6db6     ...mI..m...m.!.m
   11404:	4d09 6db9 771f 6dbc a023 6dbf c813 6dc2     .M.m.w.m#..m...m
   11414:	eef0 6dc5 14bc 6dc9 3976 6dcc 5d1f 6dcf     ...m...mv9.m.].m
   11424:	7fb8 6dd2 a141 6dd5 c1ba 6dd8 e125 6ddb     ...mA..m...m%..m
   11434:	ff81 6dde 1cd0 6de2 3911 6de5 5446 6de8     ...m...m.9.mFT.m
   11444:	6e6e 6deb 878b 6dee 9f9d 6df1 b6a4 6df4     nn.m...m...m...m
   11454:	cca1 6df7 e194 6dfa f57e 6dfd 0860 6e01     ...m...m~..m`..n
   11464:	1a39 6e04 2b0b 6e07 3ad6 6e0a 499a 6e0d     9..n.+.n.:.n.I.n
   11474:	5758 6e10 6411 6e13 6fc5 6e16 7a74 6e19     XW.n.d.n.o.ntz.n
   11484:	841f 6e1c 8cc7 6e1f 946b 6e22 9b0e 6e25     ...n...nk."n..%n
   11494:	a0ae 6e28 a54c 6e2b a8ea 6e2e ab86 6e31     ..(nL.+n...n..1n
   114a4:	ad23 6e34 adc1 6e37 ad5f 6e3a abfe 6e3d     #.4n..7n_.:n..=n
   114b4:	a9a0 6e40 a644 6e43 a1eb 6e46 9c95 6e49     ..@nD.Cn..Fn..In
   114c4:	9643 6e4c 8ef5 6e4f 86ac 6e52 7d68 6e55     C.Ln..On..Rnh}Un
   114d4:	732a 6e58 67f2 6e5b 5bc1 6e5e 4e97 6e61     *sXn.g[n.[^n.Nan
   114e4:	4075 6e64 315b 6e67 2149 6e6a 1041 6e6d     u@dn[1gnI!jnA.mn
   114f4:	fe42 6e6f eb4c 6e72 d762 6e75 c282 6e78     B.onL.rnb.un..xn
   11504:	acae 6e7b 95e5 6e7e 7e29 6e81 6579 6e84     ..{n..~n)~.nye.n
   11514:	4bd7 6e87 3143 6e8a 15bc 6e8d f944 6e8f     .K.nC1.n...nD..n
   11524:	dbdb 6e92 bd82 6e95 9e38 6e98 7dff 6e9b     ...n...n8..n.}.n
   11534:	5cd7 6e9e 3ac0 6ea1 17bb 6ea4 f3c8 6ea6     .\.n.:.n...n...n
   11544:	cee7 6ea9 a91a 6eac 8260 6eaf 5aba 6eb2     ...n...n`..n.Z.n
   11554:	3229 6eb5 08ac 6eb8 de45 6eba b2f3 6ebd     )2.n...nE..n...n
   11564:	86b7 6ec0 5992 6ec3 2b84 6ec6 fc8e 6ec8     ...n.Y.n.+.n...n
   11574:	ccaf 6ecb 9be8 6ece 6a3b 6ed1 37a6 6ed4     ...n...n;j.n.7.n
   11584:	042b 6ed7 cfca 6ed9 9a84 6edc 6458 6edf     +..n...n...nXd.n
   11594:	2d48 6ee2 f554 6ee4 bc7b 6ee7 82bf 6eea     H-.nT..n{..n...n
   115a4:	4820 6eed 0c9f 6ef0 d03b 6ef2 92f6 6ef5      H.n...n;..n...n
   115b4:	54cf 6ef8 15c7 6efb d5df 6efd 9516 6f00     .T.n...n...n...o
   115c4:	536e 6f03 10e7 6f06 cd80 6f08 893c 6f0b     nS.o...o...o<..o
   115d4:	4419 6f0e fe18 6f10 b73a 6f13 6f80 6f16     .D.o...o:..o.o.o
   115e4:	26e9 6f19 dd76 6f1b 9327 6f1e 47fd 6f21     .&.ov..o'..o.G!o
   115f4:	fbf8 6f23 af19 6f26 6160 6f29 12cd 6f2c     ..#o..&o`a)o..,o
   11604:	c360 6f2e 731b 6f31 21fe 6f34 d008 6f36     `..o.s1o.!4o..6o
   11614:	7d3b 6f39 2996 6f3c d51b 6f3e 7fc9 6f41     ;}9o.)<o..>o..Ao
   11624:	29a1 6f44 d2a3 6f46 7ad0 6f49 2227 6f4c     .)Do..Fo.zIo'"Lo
   11634:	c8ab 6f4e 6e5a 6f51 1335 6f54 b73d 6f56     ..NoZnQo5.To=.Vo
   11644:	5a72 6f59 fcd4 6f5b 9e64 6f5e 3f22 6f61     rZYo..[od.^o"?ao
   11654:	df0e 6f63 7e29 6f66 1c74 6f69 b9ee 6f6b     ..co)~fot.io..ko
   11664:	5698 6f6e f272 6f70 8d7e 6f73 27ba 6f76     .Vnor.po~.so.'vo
   11674:	c127 6f78 59c7 6f7b f199 6f7d 889d 6f80     '.xo.Y{o..}o...o
   11684:	1ed4 6f83 b43f 6f85 48dd 6f88 dcaf 6f8a     ...o?..o.H.o...o
   11694:	6fb6 6f8d 01f1 6f90 9362 6f92 2408 6f95     .o.o...ob..o.$.o
   116a4:	b3e3 6f97 42f5 6f9a d13e 6f9c 5ebd 6f9f     ...o.B.o>..o.^.o
   116b4:	eb74 6fa1 7763 6fa4 0289 6fa7 8ce8 6fa9     t..ocw.o...o...o
   116c4:	167f 6fac 9f4f 6fae 2759 6fb1 ae9d 6fb3     ...oO..oY'.o...o
   116d4:	351a 6fb6 bad3 6fb8 3fc5 6fbb c3f4 6fbd     .5.o...o.?.o...o
   116e4:	475d 6fc0 ca03 6fc2 4be4 6fc5 cd02 6fc7     ]G.o...o.K.o...o
   116f4:	4d5d 6fca ccf5 6fcc 4bcb 6fcf c9df 6fd1     ]M.o...o.K.o...o
   11704:	4731 6fd4 c3c1 6fd6 3f90 6fd9 ba9f 6fdb     1G.o...o.?.o...o
   11714:	34ed 6fde ae7b 6fe0 274a 6fe3 9f59 6fe5     .4.o{..oJ'.oY..o
   11724:	16a9 6fe8 8d3a 6fea 030d 6fed 7822 6fef     ...o:..o...o"x.o
   11734:	ec79 6ff1 6012 6ff4 d2ef 6ff6 450f 6ff9     y..o.`.o...o.E.o
   11744:	b672 6ffb 2719 6ffe 9705 7000 0635 7003     r..o.'.o...p5..p
   11754:	74aa 7005 e264 7007 4f64 700a bbaa 700c     .t.pd..pdO.p...p
   11764:	2735 700f 9208 7011 fc21 7013 6581 7016     5'.p...p!..p.e.p
   11774:	ce29 7018 3618 701b 9d50 701d 03d0 7020     )..p.6.pP..p.. p
   11784:	6999 7022 ceab 7024 3306 7027 96ab 7029     .i"p..$p.3'p..)p
   11794:	f99a 702b 5bd3 702e bd57 7030 1e26 7033     ..+p.[.pW.0p&.3p
   117a4:	7e40 7035 dda5 7037 3c57 703a 9a54 703c     @~5p..7pW<:pT.<p
   117b4:	f79e 703e 5435 7041 b019 7043 0b4b 7046     ..>p5TAp..CpK.Fp
   117c4:	65ca 7048 bf97 704a 18b2 704d 711c 704f     .eHp..Jp..Mp.qOp
   117d4:	c8d5 7051 1fde 7054 7635 7056 cbdd 7058     ..Qp..Tp5vVp..Xp
   117e4:	20d4 705b 751d 705d c8b5 705f 1b9f 7062     . [p.u]p.._p..bp
   117f4:	6dda 7064 bf67 7066 1046 7069 6077 706b     .mdpg.fpF.ipw`kp
   11804:	affa 706d fed0 706f 4cfa 7072 9a76 7074     ..mp..op.Lrpv.tp
   11814:	e747 7076 336b 7079 7ee3 707b c9b0 707d     G.vpk3yp.~{p..}p
   11824:	13d2 7080 5d49 7082 a616 7084 ee38 7086     ...pI].p...p8..p
   11834:	35b0 7089 7c7f 708b c2a4 708d 0820 7090     .5.p.|.p...p ..p
   11844:	4cf2 7092 911d 7094 d49f 7096 1779 7099     .L.p...p...py..p
   11854:	59ab 709b 9b36 709d dc1a 709f 1c56 70a2     .Y.p6..p...pV..p
   11864:	5bed 70a4 9adc 70a6 d926 70a8 16ca 70ab     .[.p...p&..p...p
   11874:	53c9 70ad 9022 70af cbd6 70b1 06e6 70b4     .S.p"..p...p...p
   11884:	4151 70b6 7b18 70b8 b43b 70ba ecba 70bc     QA.p.{.p;..p...p
   11894:	2497 70bf 5bd0 70c1 9266 70c3 c85a 70c5     .$.p.[.pf..pZ..p
   118a4:	fdac 70c7 325c 70ca 666a 70cc 99d6 70ce     ...p\2.pjf.p...p
   118b4:	cca2 70d0 fecc 70d2 3056 70d5 6140 70d7     ...p...pV0.p@a.p
   118c4:	9189 70d9 c133 70db f03d 70dd 1ea8 70e0     ...p3..p=..p...p
   118d4:	4c74 70e2 79a0 70e4 a62f 70e6 d21f 70e8     tL.p.y.p/..p...p
   118e4:	fd71 70ea 2826 70ed 523d 70ef 7bb6 70f1     q..p&(.p=R.p.{.p
   118f4:	a493 70f3 ccd3 70f5 f477 70f7 1b7e 70fa     ...p...pw..p~..p
   11904:	41ea 70fc 67b9 70fe 8cee 7100 b187 7102     .A.p.g.p...q...q
   11914:	d585 7104 f8e9 7106 1bb2 7109 3de1 710b     ...q...q...q.=.q
   11924:	5f76 710d 8072 710f a0d4 7111 c09d 7113     v_.qr..q...q...q
   11934:	dfcd 7115 fe64 7117 1c63 711a 39ca 711c     ...qd..qc..q.9.q
   11944:	5699 711e 72d0 7120 8e70 7122 a979 7124     .V.q.r qp."qy.$q
   11954:	c3eb 7126 ddc6 7128 f70a 712a 0fb9 712d     ..&q..(q..*q..-q
   11964:	27d1 712f 3f54 7131 5641 7133 6c99 7135     .'/qT?1qAV3q.l5q
   11974:	825c 7137 978b 7139 ac24 713b c02a 713d     \.7q..9q$.;q*.=q
   11984:	d39b 713f e679 7141 f8c3 7143 0a7a 7146     ..?qy.Aq..Cqz.Fq
   11994:	1b9e 7148 2c2f 714a 3c2d 714c 4b99 714e     ..Hq/,Jq-<Lq.KNq
   119a4:	5a73 7150 68bb 7152 7671 7154 8396 7156     sZPq.hRqqvTq..Vq
   119b4:	902a 7158 9c2c 715a a79e 715c b280 715e     *.Xq,.Zq..\q..^q
   119c4:	bcd1 7160 c692 7162 cfc3 7164 d865 7166     ..`q..bq..dqe.fq
   119d4:	e078 7168 e7fb 716a eeef 716c f555 716e     x.hq..jq..lqU.nq
   119e4:	fb2c 7170 0075 7173 0530 7175 095e 7177     ,.pqu.sq0.uq^.wq
   119f4:	0cfd 7179 1010 717b 1295 717d 148e 717f     ..yq..{q..}q...q
   11a04:	15fa 7181 16d9 7183 172c 7185 16f4 7187     ...q...q,..q...q
   11a14:	162f 7189 14df 718b 1304 718d 109e 718f     /..q...q...q...q
   11a24:	0dac 7191 0a30 7193 062a 7195 019a 7197     ...q0..q*..q...q
   11a34:	fc7f 7198 f6db 719a f0ad 719c e9f6 719e     ...q...q...q...q
   11a44:	e2b5 71a0 daec 71a2 d29a 71a4 c9c0 71a6     ...q...q...q...q
   11a54:	c05d 71a8 b672 71aa ac00 71ac a105 71ae     ]..qr..q...q...q
   11a64:	9584 71b0 897b 71b2 7ceb 71b4 6fd4 71b6     ...q{..q.|.q.o.q
   11a74:	6237 71b8 5414 71ba 456a 71bc 363a 71be     7b.q.T.qjE.q:6.q
   11a84:	2685 71c0 164a 71c2 058a 71c4 f445 71c5     .&.qJ..q...qE..q
   11a94:	e27a 71c7 d02c 71c9 bd58 71cb aa01 71cd     z..q,..qX..q...q
   11aa4:	9625 71cf 81c5 71d1 6ce2 71d3 577b 71d5     %..q...q.l.q{W.q
   11ab4:	4191 71d7 2b24 71d9 1434 71db fcc2 71dc     .A.q$+.q4..q...q
   11ac4:	e4cd 71de cc56 71e0 b35c 71e2 99e1 71e4     ...qV..q\..q...q
   11ad4:	7fe5 71e6 6567 71e8 4a67 71ea 2ee7 71ec     ...qge.qgJ.q...q
   11ae4:	12e5 71ee f664 71ef d961 71f1 bbdf 71f3     ...qd..qa..q...q
   11af4:	9ddc 71f5 7f59 71f7 6057 71f9 40d6 71fb     ...qY..qW`.q.@.q
   11b04:	20d5 71fd 0055 71ff df56 7200 bdd9 7202     . .qU..qV..r...r
   11b14:	9bdd 7204 7962 7206 566a 7208 32f4 720a     ...rby.rjV.r.2.r
   11b24:	0f00 720c ea8e 720d c59f 720f a033 7211     ...r...r...r3..r
   11b34:	7a4b 7213 53e5 7215 2d03 7217 05a4 7219     Kz.r.S.r.-.r...r
   11b44:	ddc9 721a b573 721c 8ca0 721e 6352 7220     ...rs..r...rRc r
   11b54:	3988 7222 0f43 7224 e484 7225 b949 7227     .9"rC.$r..%rI.'r
   11b64:	8d93 7229 6163 722b 34b9 722d 0795 722f     ..)rca+r.4-r../r
   11b74:	d9f7 7230 abdf 7232 7d4d 7234 4e42 7236     ..0r..2rM}4rBN6r
   11b84:	1ebe 7238 eec0 7239 be4a 723b 8d5c 723d     ..8r..9rJ.;r\.=r
   11b94:	5bf5 723f 2a15 7241 f7be 7242 c4ee 7244     .[?r.*Ar..Br..Dr
   11ba4:	91a7 7246 5de8 7248 29b2 724a f504 724b     ..Fr.]Hr.)Jr..Kr
   11bb4:	bfe0 724d 8a45 724f 5433 7251 1daa 7253     ..MrE.Or3TQr..Sr
   11bc4:	e6ac 7254 af37 7256 774c 7258 3eeb 725a     ..Tr7.VrLwXr.>Zr
   11bd4:	0615 725c ccca 725d 9309 725f 58d3 7261     ..\r..]r.._r.Xar
   11be4:	1e28 7263 e308 7264 a774 7266 6b6c 7268     (.cr..drt.frlkhr
   11bf4:	2eef 726a f1fe 726b b499 726d 76c1 726f     ..jr..kr..mr.vor
   11c04:	3875 7271 f9b6 7272 ba84 7274 7ade 7276     u8qr..rr..tr.zvr
   11c14:	3ac6 7278 fa3b 7279 b93e 727b 77cf 727d     .:xr;.yr>.{r.w}r
   11c24:	35ed 727f f399 7280 b0d3 7282 6d9c 7284     .5.r...r...r.m.r
   11c34:	29f4 7286 e5da 7287 a14e 7289 5c52 728b     .).r...rN..rR\.r
   11c44:	16e6 728d d108 728e 8aba 7290 43fc 7292     ...r...r...r.C.r
   11c54:	fccd 7293 b52f 7295 6d21 7297 24a3 7299     ...r/..r!m.r.$.r
   11c64:	dbb5 729a 9259 729c 488d 729e fe52 729f     ...rY..r.H.rR..r
   11c74:	b3a9 72a1 6890 72a3 1d0a 72a5 d114 72a6     ...r.h.r...r...r
   11c84:	84b1 72a8 37e0 72aa eaa1 72ab 9cf4 72ad     ...r.7.r...r...r
   11c94:	4eda 72af 0052 72b1 b15d 72b2 61fb 72b4     .N.rR..r]..r.a.r
   11ca4:	122c 72b6 c1f0 72b7 7148 72b9 2034 72bb     ,..r...rHq.r4 .r
   11cb4:	ceb3 72bc 7cc6 72be 2a6d 72c0 d7a8 72c1     ...r.|.rm*.r...r
   11cc4:	8478 72c3 30dc 72c5 dcd5 72c6 8863 72c8     x..r.0.r...rc..r
   11cd4:	3385 72ca de3d 72cb 888a 72cd 326d 72cf     .3.r=..r...rm2.r
   11ce4:	dbe5 72d0 84f3 72d2 2d97 72d4 d5d2 72d5     ...r...r.-.r...r
   11cf4:	7da2 72d7 2509 72d9 cc06 72da 729a 72dc     .}.r.%.r...r.r.r
   11d04:	18c4 72de be86 72df 63df 72e1 08cf 72e3     ...r...r.c.r...r
   11d14:	ad57 72e4 5176 72e6 f52d 72e7 987c 72e9     W..rvQ.r-..r|..r
   11d24:	3b63 72eb dde2 72ec 7ffa 72ee 21aa 72f0     c;.r...r...r.!.r
   11d34:	c2f2 72f1 63d4 72f3 044e 72f5 a461 72f6     ...r.c.rN..ra..r
   11d44:	440e 72f8 e354 72f9 8234 72fb 20ad 72fd     .D.rT..r4..r. .r
   11d54:	bec0 72fe 5c6e 7300 f9b5 7301 9696 7303     ...rn\.s...s...s
   11d64:	3312 7305 cf29 7306 6ada 7308 0626 730a     .3.s)..s.j.s&..s
   11d74:	a10d 730b 3b8f 730d d5ac 730e 6f65 7310     ...s.;.s...seo.s
   11d84:	08ba 7312 a1aa 7313 3a36 7315 d25e 7316     ...s...s6:.s^..s
   11d94:	6a22 7318 0182 731a 987f 731b 2f18 731d     "j.s...s...s./.s
   11da4:	c54e 731e 5b21 7320 f091 7321 859e 7323     N..s![ s..!s..#s

00011db4 <sine_q31_t>:
   11db4:	0000 0000 2abf 0324 d97c 0647 9049 096a     .....*$.|.G.I.j.
   11dc4:	d35e 0c8b 272b 0fab 106e 12c8 1444 15e2     ^...+'..n...D...
   11dd4:	b83c 18f8 826a 1c0b f97b 1f19 a4c5 2223     <...j...{.....#"
   11de4:	0c5d 2528 b928 2826 34eb 2b1f 0a62 2e11     ].(%(.&(.4.+b...
   11df4:	c54d 30fb f287 33de 2013 36ba dd32 398c     M..0...3. .62..9
   11e04:	ba70 3c56 49b7 3f17 1e64 41ce cd50 447a     p.V<.I.?d..AP.zD
   11e14:	ece6 471c 1533 49b4 dff3 4c3f e8a4 4ebf     ...G3..I..?L...N
   11e24:	cc94 5133 2aef 539b a4d2 55f5 dd54 5842     ..3Q.*.S...UT.BX
   11e34:	7999 5a82 20df 5cb4 7c89 5ed7 382f 60ec     .y.Z. .\.|.^/8.`
   11e44:	01ac 62f2 8925 64e8 811f 66cf 9e80 68a6     ...b%..d...f...h
   11e54:	98a3 6a6d 295f 6c24 0d14 6dca 02b1 6f5f     ..mj_)$l...m.._o
   11e64:	cbc5 70e2 2c84 7255 ebd0 73b5 d344 7504     ...p.,Ur...sD..u
   11e74:	af3c 7641 4eda 776c 8413 7884 23b0 798a     <.Av.Nlw...x.#.y
   11e84:	055a 7a7d 039d 7b5d fbed 7c29 ceb1 7ce3     Z.}z..]{..)|...|
   11e94:	5f3f 7d8a 93e9 7e1d 55fb 7e9d 91c3 7f09     ?_.}...~.U.~....
   11ea4:	368e 7f62 36b3 7fa7 878d 7fd8 2181 7ff6     .6b..6.......!..
   11eb4:	ffff 7fff 2181 7ff6 878d 7fd8 36b3 7fa7     .....!.......6..
   11ec4:	368e 7f62 91c3 7f09 55fb 7e9d 93e9 7e1d     .6b......U.~...~
   11ed4:	5f3f 7d8a ceb1 7ce3 fbed 7c29 039d 7b5d     ?_.}...|..)|..]{
   11ee4:	055a 7a7d 23b0 798a 8413 7884 4eda 776c     Z.}z.#.y...x.Nlw
   11ef4:	af3c 7641 d344 7504 ebd0 73b5 2c84 7255     <.AvD..u...s.,Ur
   11f04:	cbc5 70e2 02b1 6f5f 0d14 6dca 295f 6c24     ...p.._o...m_)$l
   11f14:	98a3 6a6d 9e80 68a6 811f 66cf 8925 64e8     ..mj...h...f%..d
   11f24:	01ac 62f2 382f 60ec 7c89 5ed7 20df 5cb4     ...b/8.`.|.^. .\
   11f34:	7999 5a82 dd54 5842 a4d2 55f5 2aef 539b     .y.ZT.BX...U.*.S
   11f44:	cc94 5133 e8a4 4ebf dff3 4c3f 1533 49b4     ..3Q...N..?L3..I
   11f54:	ece6 471c cd50 447a 1e64 41ce 49b7 3f17     ...GP.zDd..A.I.?
   11f64:	ba70 3c56 dd32 398c 2013 36ba f287 33de     p.V<2..9. .6...3
   11f74:	c54d 30fb 0a62 2e11 34eb 2b1f b928 2826     M..0b....4.+(.&(
   11f84:	0c5d 2528 a4c5 2223 f97b 1f19 826a 1c0b     ].(%..#"{...j...
   11f94:	b83c 18f8 1444 15e2 106e 12c8 272b 0fab     <...D...n...+'..
   11fa4:	d35e 0c8b 9049 096a d97c 0647 2abf 0324     ^...I.j.|.G..*$.
   11fb4:	0000 0000 d541 fcdb 2684 f9b8 6fb7 f695     ....A....&...o..
   11fc4:	2ca2 f374 d8d5 f054 ef92 ed37 ebbc ea1d     .,t...T...7.....
   11fd4:	47c4 e707 7d96 e3f4 0685 e0e6 5b3b dddc     .G...}......;[..
   11fe4:	f3a3 dad7 46d8 d7d9 cb15 d4e0 f59e d1ee     .....F..........
   11ff4:	3ab3 cf04 0d79 cc21 dfed c945 22ce c673     .:..y.!...E.."s.
   12004:	4590 c3a9 b649 c0e8 e19c be31 32b0 bb85     .E..I.....1..2..
   12014:	131a b8e3 eacd b64b 200d b3c0 175c b140     ......K.. ..\.@.
   12024:	336c aecc d511 ac64 5b2e aa0a 22ac a7bd     l3....d..[..."..
   12034:	8667 a57d df21 a34b 8377 a128 c7d1 9f13     g.}.!.K.w.(.....
   12044:	fe54 9d0d 76db 9b17 7ee1 9930 6180 9759     T....v...~0..aY.
   12054:	675d 9592 d6a1 93db f2ec 9235 fd4f 90a0     ]g........5.O...
   12064:	343b 8f1d d37c 8daa 1430 8c4a 2cbc 8afb     ;4..|...0.J..,..
   12074:	50c4 89be b126 8893 7bed 877b dc50 8675     .P..&....{{.P.u.
   12084:	faa6 8582 fc63 84a2 0413 83d6 314f 831c     ....c.......O1..
   12094:	a0c1 8275 6c17 81e2 aa05 8162 6e3d 80f6     ..u..l....b.=n..
   120a4:	c972 809d c94d 8058 7873 8027 de7f 8009     r...M.X.sx'.....
   120b4:	0001 8000 de7f 8009 7873 8027 c94d 8058     ........sx'.M.X.
   120c4:	c972 809d 6e3d 80f6 aa05 8162 6c17 81e2     r...=n....b..l..
   120d4:	a0c1 8275 314f 831c 0413 83d6 fc63 84a2     ..u.O1......c...
   120e4:	faa6 8582 dc50 8675 7bed 877b b126 8893     ....P.u..{{.&...
   120f4:	50c4 89be 2cbc 8afb 1430 8c4a d37c 8daa     .P...,..0.J.|...
   12104:	343b 8f1d fd4f 90a0 f2ec 9235 d6a1 93db     ;4..O.....5.....
   12114:	675d 9592 6180 9759 7ee1 9930 76db 9b17     ]g...aY..~0..v..
   12124:	fe54 9d0d c7d1 9f13 8377 a128 df21 a34b     T.......w.(.!.K.
   12134:	8667 a57d 22ac a7bd 5b2e aa0a d511 ac64     g.}.."...[....d.
   12144:	336c aecc 175c b140 200d b3c0 eacd b64b     l3..\.@.. ....K.
   12154:	131a b8e3 32b0 bb85 e19c be31 b649 c0e8     .....2....1.I...
   12164:	4590 c3a9 22ce c673 dfed c945 0d79 cc21     .E..."s...E.y.!.
   12174:	3ab3 cf04 f59e d1ee cb15 d4e0 46d8 d7d9     .:...........F..
   12184:	f3a3 dad7 5b3b dddc 0685 e0e6 7d96 e3f4     ....;[.......}..
   12194:	47c4 e707 ebbc ea1d ef92 ed37 d8d5 f054     .G........7...T.
   121a4:	2ca2 f374 6fb7 f695 2684 f9b8 d541 fcdb     .,t..o...&..A...
   121b4:	492d 464e 2d00 6e69 0066 4e2d 4e41 2d00     -INF.-inf.-NAN.-
   121c4:	616e 006e                                   nan.

000121c8 <CSWTCH.22>:
   121c8:	0001 0000 0000 0000 0000 0000 0000 0000     ................
	...
   121e4:	0001 0000 0401                                   .....

000121e9 <CSWTCH.23>:
   121e9:	0004 0000 0000 0000 0000 0000 0000 0000     ................
	...
   12205:	0002 0000 0003                                   .....

0001220a <__aeabi_ctype_table_C>:
   1220a:	8000 8080 8080 8080 8080 9090 9090 8090     ................
   1221a:	8080 8080 8080 8080 8080 8080 8080 8080     ................
   1222a:	1880 0404 0404 0404 0404 0404 0404 0404     ................
   1223a:	0204 0202 0202 0202 0202 0402 0404 0404     ................
   1224a:	0404 4343 4343 4343 4141 4141 4141 4141     ..CCCCCCAAAAAAAA
   1225a:	4141 4141 4141 4141 4141 4141 0404 0404     AAAAAAAAAAAA....
   1226a:	0404 2323 2323 2323 2121 2121 2121 2121     ..######!!!!!!!!
   1227a:	2121 2121 2121 2121 2121 2121 0404 0404     !!!!!!!!!!!!....
   1228a:	0080 0000 0000 0000 0000 0000 0000 0000     ................
	...

00012310 <digit_values>:
   12310:	0000 0000 0000 4024 0000 0000 0000 4059     ......$@......Y@
   12320:	0000 0000 4000 408f 0000 0000 8800 40c3     .....@.@.......@
   12330:	0000 0000 6a00 40f8 0000 0000 8480 412e     .....j.@.......A
   12340:	0000 0000 12d0 4163 0000 0000 d784 4197     ......cA.......A

00012350 <bit_values>:
   12350:	0000 0000 0000 4024 0000 0000 0000 4059     ......$@......Y@
   12360:	0000 0000 8800 40c3 0000 0000 d784 4197     .......@.......A
   12370:	8000 37e0 c379 4341 6e17 b505 b8b5 4693     ...7y.AC.n.....F
   12380:	f9f5 e93f 4f03 4d38 1d32 f930 7748 5a82     ..?..O8M2.0.Hw.Z
   12390:	bf3c 7f73 4fdd 7515                         <.s..O.u

00012398 <dp_h>:
	...
   123a0:	0000 4000 b803 3fe2                         ...@...?

000123a8 <dp_l>:
	...
   123b0:	d006 43cf fdeb 3e4c                         ...C..L>

000123b8 <bp>:
   123b8:	0000 0000 0000 3ff0 0000 0000 0000 3ff8     .......?.......?

000123c8 <npio2_hw>:
   123c8:	21fb 3ff9 21fb 4009 d97c 4012 21fb 4019     .!.?.!.@|..@.!.@
   123d8:	6a7a 401f d97c 4022 fdbb 4025 21fb 4029     zj.@|."@..%@.!)@
   123e8:	463a 402c 6a7a 402f 475c 4031 d97c 4032     :F,@zj/@\G1@|.2@
   123f8:	6b9c 4034 fdbb 4035 8fdb 4037 21fb 4039     .k4@..5@..7@.!9@
   12408:	b41b 403a 463a 403c d85a 403d 6a7a 403f     ..:@:F<@Z.=@zj?@
   12418:	7e4c 4040 475c 4041 106c 4042 d97c 4042     L~@@\GA@l.B@|.B@
   12428:	a28c 4043 6b9c 4044 34ac 4045 fdbb 4045     ..C@.kD@.4E@..E@
   12438:	c6cb 4046 8fdb 4047 58eb 4048 21fb 4049     ..F@..G@.XH@.!I@

00012448 <two_over_pi>:
   12448:	f983 00a2 4e44 006e 29fc 0015 57d1 0027     ....DNn..)...W'.
   12458:	34dd 00f5 db62 00c0 993c 0095 9041 0043     .4..b...<...A.C.
   12468:	5163 00fe debb 00ab 61b7 00c5 6e3a 0024     cQ.......a..:n$.
   12478:	4dd2 0042 0649 00e0 ea09 002e 921c 00d1     .MB.I...........
   12488:	1deb 00fe b129 001c 3ee8 00a7 35f5 0082     ....)....>...5..
   12498:	bb44 002e e99c 0084 26b4 0070 7e41 005f     D........&p.A~_.
   124a8:	91d6 0039 8353 0039 f49c 0039 5f8b 0084     ..9.S.9...9.._..
   124b8:	f928 00bd 1ff8 003b ffde 0097 980f 0005     (.....;.........
   124c8:	2f11 00ef 5a0a 008b 1f6d 006d 7ecf 0036     ./...Z..m.m..~6.
   124d8:	cb09 0027 4f46 00b7 669e 003f ea2d 005f     ..'.FO...f?.-._.
   124e8:	27ba 0075 ebe5 00c7 7b3d 00f1 39f7 0007     .'u.....={...9..
   124f8:	5292 008a 6bfb 00ea b11f 005f 5d08 008d     .R...k...._..]..
   12508:	0330 0056 fc7b 0046 abf0 006b bc20 00cf     0.V.{.F...k. ...
   12518:	f436 009a a9e3 001d 615e 0091 1b08 00e6     6.......^a......
   12528:	9985 0065 14a0 005f 408d 0068 d880 00ff     ..e..._..@h.....
   12538:	7327 004d 0606 0031 56ca 0015 a8c9 0073     'sM...1..V....s.
   12548:	e27b 0060 8c6b 00c0                         {.`.k...

00012550 <init_jk>:
   12550:	0002 0000 0003 0000 0004 0000 0006 0000     ................

00012560 <PIo2>:
   12560:	0000 4000 21fb 3ff9 0000 0000 442d 3e74     ...@.!.?....-Dt>
   12570:	0000 8000 4698 3cf8 0000 6000 cc51 3b78     .....F.<...`Q.x;
   12580:	0000 8000 1b83 39f0 0000 4000 2520 387a     .......9...@ %z8
   12590:	0000 8000 8222 36e3 0000 0000 f31d 3569     ...."..6......i5
