   1              		.syntax unified
   2              		.cpu cortex-m4
   3              		.fpu softvfp
   4              		.eabi_attribute 20, 1
   5              		.eabi_attribute 21, 1
   6              		.eabi_attribute 23, 3
   7              		.eabi_attribute 24, 1
   8              		.eabi_attribute 25, 1
   9              		.eabi_attribute 26, 1
  10              		.eabi_attribute 30, 6
  11              		.eabi_attribute 34, 1
  12              		.eabi_attribute 18, 4
  13              		.thumb
  14              		.file	"kinetis_sysinit.c"
  15              		.text
  16              	.Ltext0:
  17              		.cfi_sections	.debug_frame
  18              		.section	.text.Default_Handler,"ax",%progbits
  19              		.align	2
  20              		.global	Default_Handler
  21              		.thumb
  22              		.thumb_func
  24              	Default_Handler:
  25              	.LFB0:
  26              		.file 1 "../Project_Settings/Startup_Code/kinetis_sysinit.c"
   1:../Project_Settings/Startup_Code/kinetis_sysinit.c **** /*
   2:../Project_Settings/Startup_Code/kinetis_sysinit.c ****  *    kinetis_sysinit.c - Default init routines for P0
   3:../Project_Settings/Startup_Code/kinetis_sysinit.c ****  *                     		Kinetis ARM systems
   4:../Project_Settings/Startup_Code/kinetis_sysinit.c ****  *    Copyright © 2012 Freescale semiConductor Inc. All Rights Reserved.
   5:../Project_Settings/Startup_Code/kinetis_sysinit.c ****  */
   6:../Project_Settings/Startup_Code/kinetis_sysinit.c ****  
   7:../Project_Settings/Startup_Code/kinetis_sysinit.c **** #include "kinetis_sysinit.h"
   8:../Project_Settings/Startup_Code/kinetis_sysinit.c **** #include "derivative.h"
   9:../Project_Settings/Startup_Code/kinetis_sysinit.c **** 
  10:../Project_Settings/Startup_Code/kinetis_sysinit.c **** 
  11:../Project_Settings/Startup_Code/kinetis_sysinit.c **** extern void sai0_rx_isr(void);
  12:../Project_Settings/Startup_Code/kinetis_sysinit.c **** 
  13:../Project_Settings/Startup_Code/kinetis_sysinit.c **** extern void sai0_tx_isr(void);
  14:../Project_Settings/Startup_Code/kinetis_sysinit.c **** /**
  15:../Project_Settings/Startup_Code/kinetis_sysinit.c ****  **===========================================================================
  16:../Project_Settings/Startup_Code/kinetis_sysinit.c ****  **  External declarations
  17:../Project_Settings/Startup_Code/kinetis_sysinit.c ****  **===========================================================================
  18:../Project_Settings/Startup_Code/kinetis_sysinit.c ****  */
  19:../Project_Settings/Startup_Code/kinetis_sysinit.c **** #if __cplusplus
  20:../Project_Settings/Startup_Code/kinetis_sysinit.c **** extern "C" {
  21:../Project_Settings/Startup_Code/kinetis_sysinit.c **** #endif
  22:../Project_Settings/Startup_Code/kinetis_sysinit.c **** extern uint32_t __vector_table[];
  23:../Project_Settings/Startup_Code/kinetis_sysinit.c **** extern unsigned long _estack;
  24:../Project_Settings/Startup_Code/kinetis_sysinit.c **** extern void __thumb_startup(void);
  25:../Project_Settings/Startup_Code/kinetis_sysinit.c **** #if __cplusplus
  26:../Project_Settings/Startup_Code/kinetis_sysinit.c **** }
  27:../Project_Settings/Startup_Code/kinetis_sysinit.c **** #endif
  28:../Project_Settings/Startup_Code/kinetis_sysinit.c **** 
  29:../Project_Settings/Startup_Code/kinetis_sysinit.c **** /**
  30:../Project_Settings/Startup_Code/kinetis_sysinit.c ****  **===========================================================================
  31:../Project_Settings/Startup_Code/kinetis_sysinit.c ****  **  Default interrupt handler
  32:../Project_Settings/Startup_Code/kinetis_sysinit.c ****  **===========================================================================
  33:../Project_Settings/Startup_Code/kinetis_sysinit.c ****  */
  34:../Project_Settings/Startup_Code/kinetis_sysinit.c **** void Default_Handler()
  35:../Project_Settings/Startup_Code/kinetis_sysinit.c **** 
  36:../Project_Settings/Startup_Code/kinetis_sysinit.c **** {
  27              		.loc 1 36 0
  28              		.cfi_startproc
  29              		@ args = 0, pretend = 0, frame = 0
  30              		@ frame_needed = 1, uses_anonymous_args = 0
  31              		@ link register save eliminated.
  32 0000 80B4     		push	{r7}
  33              	.LCFI0:
  34              		.cfi_def_cfa_offset 4
  35              		.cfi_offset 7, -4
  36 0002 00AF     		add	r7, sp, #0
  37              	.LCFI1:
  38              		.cfi_def_cfa_register 7
  37:../Project_Settings/Startup_Code/kinetis_sysinit.c **** 	__asm("bkpt");
  39              		.loc 1 37 0
  40              	@ 37 "../Project_Settings/Startup_Code/kinetis_sysinit.c" 1
  41 0004 00BE     		bkpt
  42              	@ 0 "" 2
  38:../Project_Settings/Startup_Code/kinetis_sysinit.c **** }
  43              		.loc 1 38 0
  44              		.thumb
  45 0006 BD46     		mov	sp, r7
  46 0008 80BC     		pop	{r7}
  47 000a 7047     		bx	lr
  48              		.cfi_endproc
  49              	.LFE0:
  51              		.weak	HardFault_Handler
  52              		.thumb_set HardFault_Handler,Default_Handler
  53              		.weak	MemManage_Handler
  54              		.thumb_set MemManage_Handler,Default_Handler
  55              		.weak	BusFault_Handler
  56              		.thumb_set BusFault_Handler,Default_Handler
  57              		.weak	UsageFault_Handler
  58              		.thumb_set UsageFault_Handler,Default_Handler
  59              		.weak	SVC_Handler
  60              		.thumb_set SVC_Handler,Default_Handler
  61              		.weak	DebugMonitor_Handler
  62              		.thumb_set DebugMonitor_Handler,Default_Handler
  63              		.weak	PendSV_Handler
  64              		.thumb_set PendSV_Handler,Default_Handler
  65              		.weak	SysTick_Handler
  66              		.thumb_set SysTick_Handler,Default_Handler
  67              		.weak	NMI_Handler
  68              		.thumb_set NMI_Handler,Default_Handler
  69              		.section	.text.__init_hardware,"ax",%progbits
  70              		.align	2
  71              		.global	__init_hardware
  72              		.thumb
  73              		.thumb_func
  75              	__init_hardware:
  76              	.LFB1:
  39:../Project_Settings/Startup_Code/kinetis_sysinit.c **** 
  40:../Project_Settings/Startup_Code/kinetis_sysinit.c **** /**
  41:../Project_Settings/Startup_Code/kinetis_sysinit.c ****  **===========================================================================
  42:../Project_Settings/Startup_Code/kinetis_sysinit.c ****  **  Reset handler
  43:../Project_Settings/Startup_Code/kinetis_sysinit.c ****  **===========================================================================
  44:../Project_Settings/Startup_Code/kinetis_sysinit.c ****  */
  45:../Project_Settings/Startup_Code/kinetis_sysinit.c **** void __init_hardware()
  46:../Project_Settings/Startup_Code/kinetis_sysinit.c **** {
  77              		.loc 1 46 0
  78              		.cfi_startproc
  79              		@ args = 0, pretend = 0, frame = 0
  80              		@ frame_needed = 1, uses_anonymous_args = 0
  81              		@ link register save eliminated.
  82 0000 80B4     		push	{r7}
  83              	.LCFI2:
  84              		.cfi_def_cfa_offset 4
  85              		.cfi_offset 7, -4
  86 0002 00AF     		add	r7, sp, #0
  87              	.LCFI3:
  88              		.cfi_def_cfa_register 7
  47:../Project_Settings/Startup_Code/kinetis_sysinit.c **** 	SCB_VTOR = (uint32_t)__vector_table; /* Set the interrupt vector table position */
  89              		.loc 1 47 0
  90 0004 4FF0E022 		mov	r2, #-536813568
  91 0008 40F20003 		movw	r3, #:lower16:__vector_table
  92 000c C0F20003 		movt	r3, #:upper16:__vector_table
  93 0010 C2F8083D 		str	r3, [r2, #3336]
  48:../Project_Settings/Startup_Code/kinetis_sysinit.c **** 	/*
  49:../Project_Settings/Startup_Code/kinetis_sysinit.c **** 		Disable the Watchdog because it may reset the core before entering main().
  50:../Project_Settings/Startup_Code/kinetis_sysinit.c **** 		There are 2 unlock words which shall be provided in sequence before
  51:../Project_Settings/Startup_Code/kinetis_sysinit.c **** 		accessing the control register.
  52:../Project_Settings/Startup_Code/kinetis_sysinit.c **** 	*/
  53:../Project_Settings/Startup_Code/kinetis_sysinit.c **** 	WDOG_UNLOCK = KINETIS_WDOG_UNLOCK_SEQ_1;
  94              		.loc 1 53 0
  95 0014 4FF40053 		mov	r3, #8192
  96 0018 C4F20503 		movt	r3, 16389
  97 001c 4CF22052 		movw	r2, #50464
  98 0020 DA81     		strh	r2, [r3, #14]	@ movhi
  54:../Project_Settings/Startup_Code/kinetis_sysinit.c **** 	WDOG_UNLOCK = KINETIS_WDOG_UNLOCK_SEQ_2;
  99              		.loc 1 54 0
 100 0022 4FF40053 		mov	r3, #8192
 101 0026 C4F20503 		movt	r3, 16389
 102 002a 4DF62812 		movw	r2, #55592
 103 002e DA81     		strh	r2, [r3, #14]	@ movhi
  55:../Project_Settings/Startup_Code/kinetis_sysinit.c **** 	WDOG_STCTRLH = KINETIS_WDOG_DISABLED_CTRL;
 104              		.loc 1 55 0
 105 0030 4FF40053 		mov	r3, #8192
 106 0034 C4F20503 		movt	r3, 16389
 107 0038 4FF0D202 		mov	r2, #210
 108 003c 1A80     		strh	r2, [r3, #0]	@ movhi
  56:../Project_Settings/Startup_Code/kinetis_sysinit.c **** }
 109              		.loc 1 56 0
 110 003e BD46     		mov	sp, r7
 111 0040 80BC     		pop	{r7}
 112 0042 7047     		bx	lr
 113              		.cfi_endproc
 114              	.LFE1:
 116              		.global	InterruptVector
 117              		.section	.vectortable,"a",%progbits
 118              		.align	2
 121              	InterruptVector:
 122 0000 00000000 		.word	_estack
 123 0004 00000000 		.word	__thumb_startup
 124 0008 00000000 		.word	NMI_Handler
 125 000c 00000000 		.word	HardFault_Handler
 126 0010 00000000 		.word	MemManage_Handler
 127 0014 00000000 		.word	BusFault_Handler
 128 0018 00000000 		.word	UsageFault_Handler
 129 001c 00000000 		.word	0
 130 0020 00000000 		.word	0
 131 0024 00000000 		.word	0
 132 0028 00000000 		.word	0
 133 002c 00000000 		.word	SVC_Handler
 134 0030 00000000 		.word	DebugMonitor_Handler
 135 0034 00000000 		.word	0
 136 0038 00000000 		.word	PendSV_Handler
 137 003c 00000000 		.word	SysTick_Handler
 138 0040 00000000 		.word	Default_Handler
 139 0044 00000000 		.word	Default_Handler
 140 0048 00000000 		.word	Default_Handler
 141 004c 00000000 		.word	Default_Handler
 142 0050 00000000 		.word	Default_Handler
 143 0054 00000000 		.word	Default_Handler
 144 0058 00000000 		.word	Default_Handler
 145 005c 00000000 		.word	Default_Handler
 146 0060 00000000 		.word	Default_Handler
 147 0064 00000000 		.word	Default_Handler
 148 0068 00000000 		.word	Default_Handler
 149 006c 00000000 		.word	Default_Handler
 150 0070 00000000 		.word	Default_Handler
 151 0074 00000000 		.word	sai0_tx_isr
 152 0078 00000000 		.word	sai0_rx_isr
 153 007c 00000000 		.word	Default_Handler
 154 0080 00000000 		.word	Default_Handler
 155 0084 00000000 		.word	Default_Handler
 156 0088 00000000 		.word	Default_Handler
 157 008c 00000000 		.word	Default_Handler
 158 0090 00000000 		.word	Default_Handler
 159 0094 00000000 		.word	Default_Handler
 160 0098 00000000 		.word	Default_Handler
 161 009c 00000000 		.word	Default_Handler
 162 00a0 00000000 		.word	Default_Handler
 163 00a4 00000000 		.word	Default_Handler
 164 00a8 00000000 		.word	Default_Handler
 165 00ac 00000000 		.word	Default_Handler
 166 00b0 00000000 		.word	Default_Handler
 167 00b4 00000000 		.word	Default_Handler
 168 00b8 00000000 		.word	Default_Handler
 169 00bc 00000000 		.word	Default_Handler
 170 00c0 00000000 		.word	Default_Handler
 171 00c4 00000000 		.word	Default_Handler
 172 00c8 00000000 		.word	Default_Handler
 173 00cc 00000000 		.word	Default_Handler
 174 00d0 00000000 		.word	Default_Handler
 175 00d4 00000000 		.word	Default_Handler
 176 00d8 00000000 		.word	Default_Handler
 177 00dc 00000000 		.word	Default_Handler
 178 00e0 00000000 		.word	Default_Handler
 179 00e4 00000000 		.word	Default_Handler
 180 00e8 00000000 		.word	Default_Handler
 181 00ec 00000000 		.word	Default_Handler
 182 00f0 00000000 		.word	Default_Handler
 183 00f4 00000000 		.word	Default_Handler
 184              		.text
 185              	.Letext0:
 186              		.file 2 "C:/Freescale/CW MCU v10.6/MCU/ARM_GCC_Support/ewl/EWL_C/include/cstdint"
 187              		.file 3 "C:/Users/ehughes/Documents/GitHub/MonkeyJam/MonkeyJam/Project_Headers/MK20D5.h"