   1              		.syntax unified
   2              		.cpu cortex-m4
   3              		.fpu softvfp
   4              		.eabi_attribute 20, 1
   5              		.eabi_attribute 21, 1
   6              		.eabi_attribute 23, 3
   7              		.eabi_attribute 24, 1
   8              		.eabi_attribute 25, 1
   9              		.eabi_attribute 26, 1
  10              		.eabi_attribute 30, 6
  11              		.eabi_attribute 34, 1
  12              		.eabi_attribute 18, 4
  13              		.thumb
  14              		.file	"sai.c"
  15              		.text
  16              	.Ltext0:
  17              		.cfi_sections	.debug_frame
  18              		.section	.text.sai_pinmux_init,"ax",%progbits
  19              		.align	2
  20              		.global	sai_pinmux_init
  21              		.thumb
  22              		.thumb_func
  24              	sai_pinmux_init:
  25              	.LFB128:
  26              		.file 1 "../Sources/drivers/sai/sai.c"
   1:../Sources/drivers/sai/sai.c **** /*
   2:../Sources/drivers/sai/sai.c ****  *	File: sai.c
   3:../Sources/drivers/sai/sai.c ****  *	Purpose: SAI module driver
   4:../Sources/drivers/sai/sai.c ****  *	Author: Wang Hao (B17539)
   5:../Sources/drivers/sai/sai.c ****  *      Modified by Li Kan (B30657)
   6:../Sources/drivers/sai/sai.c **** */
   7:../Sources/drivers/sai/sai.c **** 
   8:../Sources/drivers/sai/sai.c **** #include "../../cpu/arm_cm4.h"
   9:../Sources/drivers/sai/sai.c **** #include "derivative.h"
  10:../Sources/drivers/sai/sai.c **** #include "sai.h"
  11:../Sources/drivers/sai/sai.c **** #include "../frdm-k20-def.h"
  12:../Sources/drivers/sai/sai.c **** #include "../../DSP/MathTables.h"
  13:../Sources/drivers/sai/sai.c **** #include "../../DSP/AudioProcess.h"
  14:../Sources/drivers/sai/sai.c **** #include "../IO.h"
  15:../Sources/drivers/sai/sai.c **** 
  16:../Sources/drivers/sai/sai.c **** /*
  17:../Sources/drivers/sai/sai.c ****  *	I2S0 port pins
  18:../Sources/drivers/sai/sai.c ****  *	I2S0_TX_BCLK - 	PTC3 or PTB18 or PTA5
  19:../Sources/drivers/sai/sai.c ****  *	I2S0_TX_FS - 	PTC2 or PTB19  or PTA13
  20:../Sources/drivers/sai/sai.c ****  *	I2S0_RX_BCLK - 	PTC9	or PTC6
  21:../Sources/drivers/sai/sai.c ****  *	I2S0_RX_FS - 	PTC10 or PTC7
  22:../Sources/drivers/sai/sai.c ****  * 	I2S0_RXD0 -	PTC5
  23:../Sources/drivers/sai/sai.c ****  *	I2S0_RXD1 - 	PTC11
  24:../Sources/drivers/sai/sai.c ****  *	I2S0_TXD0 -	PTC1  or PTA12
  25:../Sources/drivers/sai/sai.c ****  *	I2S0_TXD1 - 	PTC0
  26:../Sources/drivers/sai/sai.c ****  * 	I2S0_MCLK - 	PTC6 or PTC8
  27:../Sources/drivers/sai/sai.c ****  *
  28:../Sources/drivers/sai/sai.c ****  *
  29:../Sources/drivers/sai/sai.c **** */
  30:../Sources/drivers/sai/sai.c **** 
  31:../Sources/drivers/sai/sai.c **** /*
  32:../Sources/drivers/sai/sai.c **** *	Input parameter
  33:../Sources/drivers/sai/sai.c **** *	port:		SAI module used
  34:../Sources/drivers/sai/sai.c **** *	setting:	which pin mux setting used, please refer to above pin mux settings available on 256BGA p
  35:../Sources/drivers/sai/sai.c **** */
  36:../Sources/drivers/sai/sai.c **** 
  37:../Sources/drivers/sai/sai.c **** void sai_pinmux_init
  38:../Sources/drivers/sai/sai.c **** (
  39:../Sources/drivers/sai/sai.c ****     unsigned char   port,
  40:../Sources/drivers/sai/sai.c ****     unsigned char   setting
  41:../Sources/drivers/sai/sai.c **** )
  42:../Sources/drivers/sai/sai.c **** {
  27              		.loc 1 42 0
  28              		.cfi_startproc
  29              		@ args = 0, pretend = 0, frame = 8
  30              		@ frame_needed = 1, uses_anonymous_args = 0
  31              		@ link register save eliminated.
  32 0000 80B4     		push	{r7}
  33              	.LCFI0:
  34              		.cfi_def_cfa_offset 4
  35              		.cfi_offset 7, -4
  36 0002 83B0     		sub	sp, sp, #12
  37              	.LCFI1:
  38              		.cfi_def_cfa_offset 16
  39 0004 00AF     		add	r7, sp, #0
  40              	.LCFI2:
  41              		.cfi_def_cfa_register 7
  42 0006 0246     		mov	r2, r0
  43 0008 0B46     		mov	r3, r1
  44 000a FA71     		strb	r2, [r7, #7]
  45 000c BB71     		strb	r3, [r7, #6]
  43:../Sources/drivers/sai/sai.c ****     if(port == 0)
  46              		.loc 1 43 0
  47 000e FB79     		ldrb	r3, [r7, #7]	@ zero_extendqisi2
  48 0010 002B     		cmp	r3, #0
  49 0012 7DD1     		bne	.L1
  44:../Sources/drivers/sai/sai.c ****         {
  45:../Sources/drivers/sai/sai.c ****             if(setting == 0)                        //using PORTC pins
  50              		.loc 1 45 0
  51 0014 BB79     		ldrb	r3, [r7, #6]	@ zero_extendqisi2
  52 0016 002B     		cmp	r3, #0
  53 0018 38D1     		bne	.L3
  46:../Sources/drivers/sai/sai.c ****                 {
  47:../Sources/drivers/sai/sai.c ****                     PORTC_PCR(3) = PORT_PCR_MUX(6);     //PTC3(ALT6), I2S0_TX_BCLK	-	J37 pin2
  54              		.loc 1 47 0
  55 001a 4FF43043 		mov	r3, #45056
  56 001e C4F20403 		movt	r3, 16388
  57 0022 4FF4C062 		mov	r2, #1536
  58 0026 DA60     		str	r2, [r3, #12]
  48:../Sources/drivers/sai/sai.c ****                     PORTC_PCR(2) = PORT_PCR_MUX(6);     //PTC2(ALT6), I2S0_TX_FS	-	J51 pin11 or 14
  59              		.loc 1 48 0
  60 0028 4FF43043 		mov	r3, #45056
  61 002c C4F20403 		movt	r3, 16388
  62 0030 4FF4C062 		mov	r2, #1536
  63 0034 9A60     		str	r2, [r3, #8]
  49:../Sources/drivers/sai/sai.c ****                     PORTC_PCR(9) = PORT_PCR_MUX(4);     //PTC9(ALT4), I2S0_RX_BCLK	-	J44 pin5
  64              		.loc 1 49 0
  65 0036 4FF43043 		mov	r3, #45056
  66 003a C4F20403 		movt	r3, 16388
  67 003e 4FF48062 		mov	r2, #1024
  68 0042 5A62     		str	r2, [r3, #36]
  50:../Sources/drivers/sai/sai.c ****                     PORTC_PCR(10) = PORT_PCR_MUX(4);    //PTC10(ALT4), I2S0_RX_FS	-	J44 pin8
  69              		.loc 1 50 0
  70 0044 4FF43043 		mov	r3, #45056
  71 0048 C4F20403 		movt	r3, 16388
  72 004c 4FF48062 		mov	r2, #1024
  73 0050 9A62     		str	r2, [r3, #40]
  51:../Sources/drivers/sai/sai.c ****                     PORTC_PCR(5) = PORT_PCR_MUX(4);     //PTC5(ALT4), I2S0_RXD0	-	J37 pin8
  74              		.loc 1 51 0
  75 0052 4FF43043 		mov	r3, #45056
  76 0056 C4F20403 		movt	r3, 16388
  77 005a 4FF48062 		mov	r2, #1024
  78 005e 5A61     		str	r2, [r3, #20]
  52:../Sources/drivers/sai/sai.c ****                   //  PORTC_PCR(11) = PORT_PCR_MUX(4);    //PTC11(ALT4), I2S0_RXD1	-	J44 pin11
  53:../Sources/drivers/sai/sai.c ****                     PORTC_PCR(1) = PORT_PCR_MUX(6);     //PTC1(ALT6), I2S0_TXD0	-	J51 pin5 or 8
  79              		.loc 1 53 0
  80 0060 4FF43043 		mov	r3, #45056
  81 0064 C4F20403 		movt	r3, 16388
  82 0068 4FF4C062 		mov	r2, #1536
  83 006c 5A60     		str	r2, [r3, #4]
  54:../Sources/drivers/sai/sai.c ****            //         PORTC_PCR(0) = PORT_PCR_MUX(6);     //PTC0(ALT6), I2S0_TXD1	-	J51 pin2
  55:../Sources/drivers/sai/sai.c ****                     PORTC_PCR(6) = PORT_PCR_MUX(6);     //PTC6(ALT6), I2S0_MCLK	-	J37 pin11
  84              		.loc 1 55 0
  85 006e 4FF43043 		mov	r3, #45056
  86 0072 C4F20403 		movt	r3, 16388
  87 0076 4FF4C062 		mov	r2, #1536
  88 007a 9A61     		str	r2, [r3, #24]
  56:../Sources/drivers/sai/sai.c ****                     PORTC_PCR(8) = PORT_PCR_MUX(4);     //PTC6(ALT6), I2S0_MCLK	-	J37 pin11
  89              		.loc 1 56 0
  90 007c 4FF43043 		mov	r3, #45056
  91 0080 C4F20403 		movt	r3, 16388
  92 0084 4FF48062 		mov	r2, #1024
  93 0088 1A62     		str	r2, [r3, #32]
  94 008a 41E0     		b	.L1
  95              	.L3:
  57:../Sources/drivers/sai/sai.c ****                 }
  58:../Sources/drivers/sai/sai.c ****             else if(setting == 1)                   //using PORTA pins
  96              		.loc 1 58 0
  97 008c BB79     		ldrb	r3, [r7, #6]	@ zero_extendqisi2
  98 008e 012B     		cmp	r3, #1
  99 0090 3ED1     		bne	.L1
  59:../Sources/drivers/sai/sai.c ****                 {
  60:../Sources/drivers/sai/sai.c ****                     PORTA_PCR(5) = PORT_PCR_MUX(6);     //PTA5(ALT6), I2S0_TX_BCLK -	J35 pin8
 100              		.loc 1 60 0
 101 0092 4FF41043 		mov	r3, #36864
 102 0096 C4F20403 		movt	r3, 16388
 103 009a 4FF4C062 		mov	r2, #1536
 104 009e 5A61     		str	r2, [r3, #20]
  61:../Sources/drivers/sai/sai.c ****                     PORTA_PCR(13) = PORT_PCR_MUX(6);    //PTA13(ALT6), I2S0_TX_FS -		J35 pin14
 105              		.loc 1 61 0
 106 00a0 4FF41043 		mov	r3, #36864
 107 00a4 C4F20403 		movt	r3, 16388
 108 00a8 4FF4C062 		mov	r2, #1536
 109 00ac 5A63     		str	r2, [r3, #52]
  62:../Sources/drivers/sai/sai.c ****                     PORTC_PCR(6) = PORT_PCR_MUX(4);     //PTC6(ALT4), I2S0_RX_BCLK	-	J37 pin11
 110              		.loc 1 62 0
 111 00ae 4FF43043 		mov	r3, #45056
 112 00b2 C4F20403 		movt	r3, 16388
 113 00b6 4FF48062 		mov	r2, #1024
 114 00ba 9A61     		str	r2, [r3, #24]
  63:../Sources/drivers/sai/sai.c ****                     PORTC_PCR(7) = PORT_PCR_MUX(4);     //PTC7(ALT4), I2S0_RX_FS	-	J37 pin14
 115              		.loc 1 63 0
 116 00bc 4FF43043 		mov	r3, #45056
 117 00c0 C4F20403 		movt	r3, 16388
 118 00c4 4FF48062 		mov	r2, #1024
 119 00c8 DA61     		str	r2, [r3, #28]
  64:../Sources/drivers/sai/sai.c ****                     PORTC_PCR(5) = PORT_PCR_MUX(4);     //PTC5(ALT4), I2S0_RXD0	-
 120              		.loc 1 64 0
 121 00ca 4FF43043 		mov	r3, #45056
 122 00ce C4F20403 		movt	r3, 16388
 123 00d2 4FF48062 		mov	r2, #1024
 124 00d6 5A61     		str	r2, [r3, #20]
  65:../Sources/drivers/sai/sai.c ****                     PORTC_PCR(11) = PORT_PCR_MUX(4);    //PTC11(ALT4), I2S0_RXD1 -
 125              		.loc 1 65 0
 126 00d8 4FF43043 		mov	r3, #45056
 127 00dc C4F20403 		movt	r3, 16388
 128 00e0 4FF48062 		mov	r2, #1024
 129 00e4 DA62     		str	r2, [r3, #44]
  66:../Sources/drivers/sai/sai.c ****                     PORTA_PCR(12) = PORT_PCR_MUX(6);    //PTA12(ALT6), I2S0_TXD0	-	J35 pin11
 130              		.loc 1 66 0
 131 00e6 4FF41043 		mov	r3, #36864
 132 00ea C4F20403 		movt	r3, 16388
 133 00ee 4FF4C062 		mov	r2, #1536
 134 00f2 1A63     		str	r2, [r3, #48]
  67:../Sources/drivers/sai/sai.c ****                     PORTC_PCR(0) = PORT_PCR_MUX(6);     //PTC0(ALT6), I2S0_TXD1 -
 135              		.loc 1 67 0
 136 00f4 4FF43043 		mov	r3, #45056
 137 00f8 C4F20403 		movt	r3, 16388
 138 00fc 4FF4C062 		mov	r2, #1536
 139 0100 1A60     		str	r2, [r3, #0]
  68:../Sources/drivers/sai/sai.c ****                     PORTC_PCR(8) = PORT_PCR_MUX(4);     //PTC8(ALT4), I2S0_MCLK	-	J44 pin2
 140              		.loc 1 68 0
 141 0102 4FF43043 		mov	r3, #45056
 142 0106 C4F20403 		movt	r3, 16388
 143 010a 4FF48062 		mov	r2, #1024
 144 010e 1A62     		str	r2, [r3, #32]
 145              	.L1:
  69:../Sources/drivers/sai/sai.c ****                 }
  70:../Sources/drivers/sai/sai.c ****         }
  71:../Sources/drivers/sai/sai.c ****     else if(port == 1)
  72:../Sources/drivers/sai/sai.c ****         {
  73:../Sources/drivers/sai/sai.c ****         }
  74:../Sources/drivers/sai/sai.c **** }
 146              		.loc 1 74 0
 147 0110 07F10C07 		add	r7, r7, #12
 148 0114 BD46     		mov	sp, r7
 149 0116 80BC     		pop	{r7}
 150 0118 7047     		bx	lr
 151              		.cfi_endproc
 152              	.LFE128:
 154 011a 00BF     		.section	.text.sai_stop_dbg_enable,"ax",%progbits
 155              		.align	2
 156              		.global	sai_stop_dbg_enable
 157              		.thumb
 158              		.thumb_func
 160              	sai_stop_dbg_enable:
 161              	.LFB129:
  75:../Sources/drivers/sai/sai.c **** 
  76:../Sources/drivers/sai/sai.c **** /*
  77:../Sources/drivers/sai/sai.c **** *	Input Parameter:
  78:../Sources/drivers/sai/sai.c **** */
  79:../Sources/drivers/sai/sai.c **** 
  80:../Sources/drivers/sai/sai.c **** void sai_stop_dbg_enable
  81:../Sources/drivers/sai/sai.c **** (
  82:../Sources/drivers/sai/sai.c ****     unsigned char   port,
  83:../Sources/drivers/sai/sai.c ****     unsigned char   tx,
  84:../Sources/drivers/sai/sai.c ****     unsigned char   stope,
  85:../Sources/drivers/sai/sai.c ****     unsigned char   dbge
  86:../Sources/drivers/sai/sai.c **** )
  87:../Sources/drivers/sai/sai.c **** {
 162              		.loc 1 87 0
 163              		.cfi_startproc
 164              		@ args = 0, pretend = 0, frame = 8
 165              		@ frame_needed = 1, uses_anonymous_args = 0
 166              		@ link register save eliminated.
 167 0000 80B4     		push	{r7}
 168              	.LCFI3:
 169              		.cfi_def_cfa_offset 4
 170              		.cfi_offset 7, -4
 171 0002 83B0     		sub	sp, sp, #12
 172              	.LCFI4:
 173              		.cfi_def_cfa_offset 16
 174 0004 00AF     		add	r7, sp, #0
 175              	.LCFI5:
 176              		.cfi_def_cfa_register 7
 177 0006 F871     		strb	r0, [r7, #7]
 178 0008 B971     		strb	r1, [r7, #6]
 179 000a 7A71     		strb	r2, [r7, #5]
 180 000c 3B71     		strb	r3, [r7, #4]
  88:../Sources/drivers/sai/sai.c ****     if(port == 0)
 181              		.loc 1 88 0
 182 000e FB79     		ldrb	r3, [r7, #7]	@ zero_extendqisi2
 183 0010 002B     		cmp	r3, #0
 184 0012 7BD1     		bne	.L4
  89:../Sources/drivers/sai/sai.c ****         {
  90:../Sources/drivers/sai/sai.c ****             if(tx)
 185              		.loc 1 90 0
 186 0014 BB79     		ldrb	r3, [r7, #6]	@ zero_extendqisi2
 187 0016 002B     		cmp	r3, #0
 188 0018 38D0     		beq	.L6
  91:../Sources/drivers/sai/sai.c ****                 {
  92:../Sources/drivers/sai/sai.c ****                     if(stope) I2S_TCSR_REG(I2S0_BASE_PTR) |= I2S_TCSR_STOPE_MASK;   //stop enable
 189              		.loc 1 92 0
 190 001a 7B79     		ldrb	r3, [r7, #5]	@ zero_extendqisi2
 191 001c 002B     		cmp	r3, #0
 192 001e 0CD0     		beq	.L7
 193              		.loc 1 92 0 is_stmt 0
 194 0020 4FF47043 		mov	r3, #61440
 195 0024 C4F20203 		movt	r3, 16386
 196 0028 4FF47042 		mov	r2, #61440
 197 002c C4F20202 		movt	r2, 16386
 198 0030 1268     		ldr	r2, [r2, #0]
 199 0032 42F08042 		orr	r2, r2, #1073741824
 200 0036 1A60     		str	r2, [r3, #0]
 201 0038 0BE0     		b	.L8
 202              	.L7:
  93:../Sources/drivers/sai/sai.c ****                     else
  94:../Sources/drivers/sai/sai.c ****                         I2S_TCSR_REG(I2S0_BASE_PTR) &= ~I2S_TCSR_STOPE_MASK;        //stop disable
 203              		.loc 1 94 0 is_stmt 1
 204 003a 4FF47043 		mov	r3, #61440
 205 003e C4F20203 		movt	r3, 16386
 206 0042 4FF47042 		mov	r2, #61440
 207 0046 C4F20202 		movt	r2, 16386
 208 004a 1268     		ldr	r2, [r2, #0]
 209 004c 22F08042 		bic	r2, r2, #1073741824
 210 0050 1A60     		str	r2, [r3, #0]
 211              	.L8:
  95:../Sources/drivers/sai/sai.c **** 
  96:../Sources/drivers/sai/sai.c ****                     if(dbge) I2S_TCSR_REG(I2S0_BASE_PTR) |= I2S_TCSR_DBGE_MASK;     //debug enable
 212              		.loc 1 96 0
 213 0052 3B79     		ldrb	r3, [r7, #4]	@ zero_extendqisi2
 214 0054 002B     		cmp	r3, #0
 215 0056 0CD0     		beq	.L9
 216              		.loc 1 96 0 is_stmt 0
 217 0058 4FF47043 		mov	r3, #61440
 218 005c C4F20203 		movt	r3, 16386
 219 0060 4FF47042 		mov	r2, #61440
 220 0064 C4F20202 		movt	r2, 16386
 221 0068 1268     		ldr	r2, [r2, #0]
 222 006a 42F00052 		orr	r2, r2, #536870912
 223 006e 1A60     		str	r2, [r3, #0]
 224 0070 4CE0     		b	.L4
 225              	.L9:
  97:../Sources/drivers/sai/sai.c ****                     else
  98:../Sources/drivers/sai/sai.c ****                         I2S_TCSR_REG(I2S0_BASE_PTR) &= ~I2S_TCSR_DBGE_MASK;         //debug disable
 226              		.loc 1 98 0 is_stmt 1
 227 0072 4FF47043 		mov	r3, #61440
 228 0076 C4F20203 		movt	r3, 16386
 229 007a 4FF47042 		mov	r2, #61440
 230 007e C4F20202 		movt	r2, 16386
 231 0082 1268     		ldr	r2, [r2, #0]
 232 0084 22F00052 		bic	r2, r2, #536870912
 233 0088 1A60     		str	r2, [r3, #0]
 234 008a 3FE0     		b	.L4
 235              	.L6:
  99:../Sources/drivers/sai/sai.c ****                 }
 100:../Sources/drivers/sai/sai.c ****             else
 101:../Sources/drivers/sai/sai.c ****                 {
 102:../Sources/drivers/sai/sai.c ****                     if(stope) I2S_RCSR_REG(I2S0_BASE_PTR) |= I2S_RCSR_STOPE_MASK;   //stop enable
 236              		.loc 1 102 0
 237 008c 7B79     		ldrb	r3, [r7, #5]	@ zero_extendqisi2
 238 008e 002B     		cmp	r3, #0
 239 0090 0ED0     		beq	.L10
 240              		.loc 1 102 0 is_stmt 0
 241 0092 4FF47043 		mov	r3, #61440
 242 0096 C4F20203 		movt	r3, 16386
 243 009a 4FF47042 		mov	r2, #61440
 244 009e C4F20202 		movt	r2, 16386
 245 00a2 D2F88020 		ldr	r2, [r2, #128]
 246 00a6 42F08042 		orr	r2, r2, #1073741824
 247 00aa C3F88020 		str	r2, [r3, #128]
 248 00ae 0DE0     		b	.L11
 249              	.L10:
 103:../Sources/drivers/sai/sai.c ****                     else
 104:../Sources/drivers/sai/sai.c ****                         I2S_RCSR_REG(I2S0_BASE_PTR) &= ~I2S_RCSR_STOPE_MASK;        //stop disable
 250              		.loc 1 104 0 is_stmt 1
 251 00b0 4FF47043 		mov	r3, #61440
 252 00b4 C4F20203 		movt	r3, 16386
 253 00b8 4FF47042 		mov	r2, #61440
 254 00bc C4F20202 		movt	r2, 16386
 255 00c0 D2F88020 		ldr	r2, [r2, #128]
 256 00c4 22F08042 		bic	r2, r2, #1073741824
 257 00c8 C3F88020 		str	r2, [r3, #128]
 258              	.L11:
 105:../Sources/drivers/sai/sai.c **** 
 106:../Sources/drivers/sai/sai.c ****                     if(dbge) I2S_RCSR_REG(I2S0_BASE_PTR) |= I2S_RCSR_DBGE_MASK;     //debug enable
 259              		.loc 1 106 0
 260 00cc 3B79     		ldrb	r3, [r7, #4]	@ zero_extendqisi2
 261 00ce 002B     		cmp	r3, #0
 262 00d0 0ED0     		beq	.L12
 263              		.loc 1 106 0 is_stmt 0
 264 00d2 4FF47043 		mov	r3, #61440
 265 00d6 C4F20203 		movt	r3, 16386
 266 00da 4FF47042 		mov	r2, #61440
 267 00de C4F20202 		movt	r2, 16386
 268 00e2 D2F88020 		ldr	r2, [r2, #128]
 269 00e6 42F00052 		orr	r2, r2, #536870912
 270 00ea C3F88020 		str	r2, [r3, #128]
 271 00ee 0DE0     		b	.L4
 272              	.L12:
 107:../Sources/drivers/sai/sai.c ****                     else
 108:../Sources/drivers/sai/sai.c ****                         I2S_RCSR_REG(I2S0_BASE_PTR) &= ~I2S_RCSR_DBGE_MASK;         //debug disable
 273              		.loc 1 108 0 is_stmt 1
 274 00f0 4FF47043 		mov	r3, #61440
 275 00f4 C4F20203 		movt	r3, 16386
 276 00f8 4FF47042 		mov	r2, #61440
 277 00fc C4F20202 		movt	r2, 16386
 278 0100 D2F88020 		ldr	r2, [r2, #128]
 279 0104 22F00052 		bic	r2, r2, #536870912
 280 0108 C3F88020 		str	r2, [r3, #128]
 281              	.L4:
 109:../Sources/drivers/sai/sai.c ****                 }
 110:../Sources/drivers/sai/sai.c ****         }
 111:../Sources/drivers/sai/sai.c ****     else if(port == 1)
 112:../Sources/drivers/sai/sai.c ****         {
 113:../Sources/drivers/sai/sai.c ****             //	("Error: Port %d is not available yet.",port);
 114:../Sources/drivers/sai/sai.c ****         }
 115:../Sources/drivers/sai/sai.c **** }
 282              		.loc 1 115 0
 283 010c 07F10C07 		add	r7, r7, #12
 284 0110 BD46     		mov	sp, r7
 285 0112 80BC     		pop	{r7}
 286 0114 7047     		bx	lr
 287              		.cfi_endproc
 288              	.LFE129:
 290 0116 00BF     		.section	.text.sai_fifo_reset,"ax",%progbits
 291              		.align	2
 292              		.global	sai_fifo_reset
 293              		.thumb
 294              		.thumb_func
 296              	sai_fifo_reset:
 297              	.LFB130:
 116:../Sources/drivers/sai/sai.c **** 
 117:../Sources/drivers/sai/sai.c **** /* */
 118:../Sources/drivers/sai/sai.c **** 
 119:../Sources/drivers/sai/sai.c **** void sai_fifo_reset
 120:../Sources/drivers/sai/sai.c **** (
 121:../Sources/drivers/sai/sai.c ****     unsigned char   port,
 122:../Sources/drivers/sai/sai.c ****     unsigned char   tx
 123:../Sources/drivers/sai/sai.c **** )
 124:../Sources/drivers/sai/sai.c **** {
 298              		.loc 1 124 0
 299              		.cfi_startproc
 300              		@ args = 0, pretend = 0, frame = 8
 301              		@ frame_needed = 1, uses_anonymous_args = 0
 302              		@ link register save eliminated.
 303 0000 80B4     		push	{r7}
 304              	.LCFI6:
 305              		.cfi_def_cfa_offset 4
 306              		.cfi_offset 7, -4
 307 0002 83B0     		sub	sp, sp, #12
 308              	.LCFI7:
 309              		.cfi_def_cfa_offset 16
 310 0004 00AF     		add	r7, sp, #0
 311              	.LCFI8:
 312              		.cfi_def_cfa_register 7
 313 0006 0246     		mov	r2, r0
 314 0008 0B46     		mov	r3, r1
 315 000a FA71     		strb	r2, [r7, #7]
 316 000c BB71     		strb	r3, [r7, #6]
 125:../Sources/drivers/sai/sai.c ****     if(port == 0)
 317              		.loc 1 125 0
 318 000e FB79     		ldrb	r3, [r7, #7]	@ zero_extendqisi2
 319 0010 002B     		cmp	r3, #0
 320 0012 1DD1     		bne	.L13
 126:../Sources/drivers/sai/sai.c ****         {
 127:../Sources/drivers/sai/sai.c ****             if(tx) I2S_TCSR_REG(I2S0_BASE_PTR) |= I2S_TCSR_FR_MASK; //FIFO reset
 321              		.loc 1 127 0
 322 0014 BB79     		ldrb	r3, [r7, #6]	@ zero_extendqisi2
 323 0016 002B     		cmp	r3, #0
 324 0018 0CD0     		beq	.L15
 325              		.loc 1 127 0 is_stmt 0
 326 001a 4FF47043 		mov	r3, #61440
 327 001e C4F20203 		movt	r3, 16386
 328 0022 4FF47042 		mov	r2, #61440
 329 0026 C4F20202 		movt	r2, 16386
 330 002a 1268     		ldr	r2, [r2, #0]
 331 002c 42F00072 		orr	r2, r2, #33554432
 332 0030 1A60     		str	r2, [r3, #0]
 333 0032 0DE0     		b	.L13
 334              	.L15:
 128:../Sources/drivers/sai/sai.c ****             else
 129:../Sources/drivers/sai/sai.c ****                 I2S_RCSR_REG(I2S0_BASE_PTR) |= I2S_RCSR_FR_MASK;    //FIFO reset
 335              		.loc 1 129 0 is_stmt 1
 336 0034 4FF47043 		mov	r3, #61440
 337 0038 C4F20203 		movt	r3, 16386
 338 003c 4FF47042 		mov	r2, #61440
 339 0040 C4F20202 		movt	r2, 16386
 340 0044 D2F88020 		ldr	r2, [r2, #128]
 341 0048 42F00072 		orr	r2, r2, #33554432
 342 004c C3F88020 		str	r2, [r3, #128]
 343              	.L13:
 130:../Sources/drivers/sai/sai.c ****         }
 131:../Sources/drivers/sai/sai.c ****     else if(port == 1)
 132:../Sources/drivers/sai/sai.c ****         {
 133:../Sources/drivers/sai/sai.c ****             //("Error: Port %d is not available yet.",port);
 134:../Sources/drivers/sai/sai.c ****         }
 135:../Sources/drivers/sai/sai.c **** }
 344              		.loc 1 135 0
 345 0050 07F10C07 		add	r7, r7, #12
 346 0054 BD46     		mov	sp, r7
 347 0056 80BC     		pop	{r7}
 348 0058 7047     		bx	lr
 349              		.cfi_endproc
 350              	.LFE130:
 352 005a 00BF     		.section	.text.sai_soft_reset,"ax",%progbits
 353              		.align	2
 354              		.global	sai_soft_reset
 355              		.thumb
 356              		.thumb_func
 358              	sai_soft_reset:
 359              	.LFB131:
 136:../Sources/drivers/sai/sai.c **** 
 137:../Sources/drivers/sai/sai.c **** /* */
 138:../Sources/drivers/sai/sai.c **** 
 139:../Sources/drivers/sai/sai.c **** void sai_soft_reset
 140:../Sources/drivers/sai/sai.c **** (
 141:../Sources/drivers/sai/sai.c ****     unsigned char   port,
 142:../Sources/drivers/sai/sai.c ****     unsigned char   tx
 143:../Sources/drivers/sai/sai.c **** )
 144:../Sources/drivers/sai/sai.c **** {
 360              		.loc 1 144 0
 361              		.cfi_startproc
 362              		@ args = 0, pretend = 0, frame = 8
 363              		@ frame_needed = 1, uses_anonymous_args = 0
 364              		@ link register save eliminated.
 365 0000 80B4     		push	{r7}
 366              	.LCFI9:
 367              		.cfi_def_cfa_offset 4
 368              		.cfi_offset 7, -4
 369 0002 83B0     		sub	sp, sp, #12
 370              	.LCFI10:
 371              		.cfi_def_cfa_offset 16
 372 0004 00AF     		add	r7, sp, #0
 373              	.LCFI11:
 374              		.cfi_def_cfa_register 7
 375 0006 0246     		mov	r2, r0
 376 0008 0B46     		mov	r3, r1
 377 000a FA71     		strb	r2, [r7, #7]
 378 000c BB71     		strb	r3, [r7, #6]
 145:../Sources/drivers/sai/sai.c ****     if(port == 0)
 379              		.loc 1 145 0
 380 000e FB79     		ldrb	r3, [r7, #7]	@ zero_extendqisi2
 381 0010 002B     		cmp	r3, #0
 382 0012 37D1     		bne	.L16
 146:../Sources/drivers/sai/sai.c ****         {
 147:../Sources/drivers/sai/sai.c ****             if(tx)
 383              		.loc 1 147 0
 384 0014 BB79     		ldrb	r3, [r7, #6]	@ zero_extendqisi2
 385 0016 002B     		cmp	r3, #0
 386 0018 18D0     		beq	.L18
 148:../Sources/drivers/sai/sai.c ****                 {
 149:../Sources/drivers/sai/sai.c ****                     I2S_TCSR_REG(I2S0_BASE_PTR) |= I2S_TCSR_SR_MASK;    //software reset
 387              		.loc 1 149 0
 388 001a 4FF47043 		mov	r3, #61440
 389 001e C4F20203 		movt	r3, 16386
 390 0022 4FF47042 		mov	r2, #61440
 391 0026 C4F20202 		movt	r2, 16386
 392 002a 1268     		ldr	r2, [r2, #0]
 393 002c 42F08072 		orr	r2, r2, #16777216
 394 0030 1A60     		str	r2, [r3, #0]
 150:../Sources/drivers/sai/sai.c ****                     I2S_TCSR_REG(I2S0_BASE_PTR) &= ~I2S_TCSR_SR_MASK;   //clear software reset bit 
 395              		.loc 1 150 0
 396 0032 4FF47043 		mov	r3, #61440
 397 0036 C4F20203 		movt	r3, 16386
 398 003a 4FF47042 		mov	r2, #61440
 399 003e C4F20202 		movt	r2, 16386
 400 0042 1268     		ldr	r2, [r2, #0]
 401 0044 22F08072 		bic	r2, r2, #16777216
 402 0048 1A60     		str	r2, [r3, #0]
 403 004a 1BE0     		b	.L16
 404              	.L18:
 151:../Sources/drivers/sai/sai.c ****                 }
 152:../Sources/drivers/sai/sai.c ****             else
 153:../Sources/drivers/sai/sai.c ****                 {
 154:../Sources/drivers/sai/sai.c ****                     I2S_RCSR_REG(I2S0_BASE_PTR) |= I2S_RCSR_SR_MASK;    //software reset
 405              		.loc 1 154 0
 406 004c 4FF47043 		mov	r3, #61440
 407 0050 C4F20203 		movt	r3, 16386
 408 0054 4FF47042 		mov	r2, #61440
 409 0058 C4F20202 		movt	r2, 16386
 410 005c D2F88020 		ldr	r2, [r2, #128]
 411 0060 42F08072 		orr	r2, r2, #16777216
 412 0064 C3F88020 		str	r2, [r3, #128]
 155:../Sources/drivers/sai/sai.c ****                     I2S_RCSR_REG(I2S0_BASE_PTR) &= ~I2S_RCSR_SR_MASK;   //clear software reset bit 
 413              		.loc 1 155 0
 414 0068 4FF47043 		mov	r3, #61440
 415 006c C4F20203 		movt	r3, 16386
 416 0070 4FF47042 		mov	r2, #61440
 417 0074 C4F20202 		movt	r2, 16386
 418 0078 D2F88020 		ldr	r2, [r2, #128]
 419 007c 22F08072 		bic	r2, r2, #16777216
 420 0080 C3F88020 		str	r2, [r3, #128]
 421              	.L16:
 156:../Sources/drivers/sai/sai.c ****                 }
 157:../Sources/drivers/sai/sai.c ****         }
 158:../Sources/drivers/sai/sai.c ****     else if(port == 1)
 159:../Sources/drivers/sai/sai.c ****         {
 160:../Sources/drivers/sai/sai.c ****         }
 161:../Sources/drivers/sai/sai.c **** }
 422              		.loc 1 161 0
 423 0084 07F10C07 		add	r7, r7, #12
 424 0088 BD46     		mov	sp, r7
 425 008a 80BC     		pop	{r7}
 426 008c 7047     		bx	lr
 427              		.cfi_endproc
 428              	.LFE131:
 430 008e 00BF     		.section	.text.sai_interrupt_enable,"ax",%progbits
 431              		.align	2
 432              		.global	sai_interrupt_enable
 433              		.thumb
 434              		.thumb_func
 436              	sai_interrupt_enable:
 437              	.LFB132:
 162:../Sources/drivers/sai/sai.c **** 
 163:../Sources/drivers/sai/sai.c **** /* */
 164:../Sources/drivers/sai/sai.c **** 
 165:../Sources/drivers/sai/sai.c **** void sai_interrupt_enable
 166:../Sources/drivers/sai/sai.c **** (
 167:../Sources/drivers/sai/sai.c ****     unsigned char   port,
 168:../Sources/drivers/sai/sai.c ****     unsigned char   tx
 169:../Sources/drivers/sai/sai.c **** )
 170:../Sources/drivers/sai/sai.c **** {
 438              		.loc 1 170 0
 439              		.cfi_startproc
 440              		@ args = 0, pretend = 0, frame = 8
 441              		@ frame_needed = 1, uses_anonymous_args = 0
 442              		@ link register save eliminated.
 443 0000 80B4     		push	{r7}
 444              	.LCFI12:
 445              		.cfi_def_cfa_offset 4
 446              		.cfi_offset 7, -4
 447 0002 83B0     		sub	sp, sp, #12
 448              	.LCFI13:
 449              		.cfi_def_cfa_offset 16
 450 0004 00AF     		add	r7, sp, #0
 451              	.LCFI14:
 452              		.cfi_def_cfa_register 7
 453 0006 0246     		mov	r2, r0
 454 0008 0B46     		mov	r3, r1
 455 000a FA71     		strb	r2, [r7, #7]
 456 000c BB71     		strb	r3, [r7, #6]
 171:../Sources/drivers/sai/sai.c ****     if(port == 0)
 457              		.loc 1 171 0
 458 000e FB79     		ldrb	r3, [r7, #7]	@ zero_extendqisi2
 459 0010 002B     		cmp	r3, #0
 460 0012 1DD1     		bne	.L19
 172:../Sources/drivers/sai/sai.c ****         {
 173:../Sources/drivers/sai/sai.c ****             if(tx)
 461              		.loc 1 173 0
 462 0014 BB79     		ldrb	r3, [r7, #6]	@ zero_extendqisi2
 463 0016 002B     		cmp	r3, #0
 464 0018 0CD0     		beq	.L21
 174:../Sources/drivers/sai/sai.c ****                 {
 175:../Sources/drivers/sai/sai.c ****                     I2S_TCSR_REG(I2S0_BASE_PTR) |= //I2S_TCSR_WSIE_MASK   //word start interrupt en
 465              		.loc 1 175 0
 466 001a 4FF47043 		mov	r3, #61440
 467 001e C4F20203 		movt	r3, 16386
 468 0022 4FF47042 		mov	r2, #61440
 469 0026 C4F20202 		movt	r2, 16386
 470 002a 1268     		ldr	r2, [r2, #0]
 471 002c 42F48072 		orr	r2, r2, #256
 472 0030 1A60     		str	r2, [r3, #0]
 473 0032 0DE0     		b	.L19
 474              	.L21:
 176:../Sources/drivers/sai/sai.c ****                         //| I2S_TCSR_SEIE_MASK    //sync error interrupt enable
 177:../Sources/drivers/sai/sai.c ****                         //| I2S_TCSR_FEIE_MASK    //FIFO error interrupt enable
 178:../Sources/drivers/sai/sai.c ****                         // | I2S_TCSR_FWIE_MASK    //FIFO warning interrupt enable
 179:../Sources/drivers/sai/sai.c ****                         I2S_TCSR_FRIE_MASK;    //FIFO request interrupt enable
 180:../Sources/drivers/sai/sai.c ****                     ;
 181:../Sources/drivers/sai/sai.c ****                 }
 182:../Sources/drivers/sai/sai.c ****             else
 183:../Sources/drivers/sai/sai.c ****                 {
 184:../Sources/drivers/sai/sai.c ****                     I2S_RCSR_REG(I2S0_BASE_PTR) |= I2S_RCSR_FRIE_MASK;  //word start interrupt enab
 475              		.loc 1 184 0
 476 0034 4FF47043 		mov	r3, #61440
 477 0038 C4F20203 		movt	r3, 16386
 478 003c 4FF47042 		mov	r2, #61440
 479 0040 C4F20202 		movt	r2, 16386
 480 0044 D2F88020 		ldr	r2, [r2, #128]
 481 0048 42F48072 		orr	r2, r2, #256
 482 004c C3F88020 		str	r2, [r3, #128]
 483              	.L19:
 185:../Sources/drivers/sai/sai.c ****                     //    I2S_RCSR_REG(I2S0_BASE_PTR) |= I2S_RCSR_WSIE_MASK;  //word start interrup
 186:../Sources/drivers/sai/sai.c ****                 }
 187:../Sources/drivers/sai/sai.c ****         }
 188:../Sources/drivers/sai/sai.c ****     else if(port == 1)
 189:../Sources/drivers/sai/sai.c ****         {
 190:../Sources/drivers/sai/sai.c ****         }
 191:../Sources/drivers/sai/sai.c **** }
 484              		.loc 1 191 0
 485 0050 07F10C07 		add	r7, r7, #12
 486 0054 BD46     		mov	sp, r7
 487 0056 80BC     		pop	{r7}
 488 0058 7047     		bx	lr
 489              		.cfi_endproc
 490              	.LFE132:
 492 005a 00BF     		.section	.text.sai_clear_flags,"ax",%progbits
 493              		.align	2
 494              		.global	sai_clear_flags
 495              		.thumb
 496              		.thumb_func
 498              	sai_clear_flags:
 499              	.LFB133:
 192:../Sources/drivers/sai/sai.c **** 
 193:../Sources/drivers/sai/sai.c **** /* */
 194:../Sources/drivers/sai/sai.c **** 
 195:../Sources/drivers/sai/sai.c **** void sai_clear_flags
 196:../Sources/drivers/sai/sai.c **** (
 197:../Sources/drivers/sai/sai.c ****     unsigned char   port,
 198:../Sources/drivers/sai/sai.c ****     unsigned char   tx
 199:../Sources/drivers/sai/sai.c **** )
 200:../Sources/drivers/sai/sai.c **** {
 500              		.loc 1 200 0
 501              		.cfi_startproc
 502              		@ args = 0, pretend = 0, frame = 8
 503              		@ frame_needed = 1, uses_anonymous_args = 0
 504              		@ link register save eliminated.
 505 0000 80B4     		push	{r7}
 506              	.LCFI15:
 507              		.cfi_def_cfa_offset 4
 508              		.cfi_offset 7, -4
 509 0002 83B0     		sub	sp, sp, #12
 510              	.LCFI16:
 511              		.cfi_def_cfa_offset 16
 512 0004 00AF     		add	r7, sp, #0
 513              	.LCFI17:
 514              		.cfi_def_cfa_register 7
 515 0006 0246     		mov	r2, r0
 516 0008 0B46     		mov	r3, r1
 517 000a FA71     		strb	r2, [r7, #7]
 518 000c BB71     		strb	r3, [r7, #6]
 201:../Sources/drivers/sai/sai.c ****     /* add code for checking if input parameter is valid */
 202:../Sources/drivers/sai/sai.c ****     if(port == 0)
 519              		.loc 1 202 0
 520 000e FB79     		ldrb	r3, [r7, #7]	@ zero_extendqisi2
 521 0010 002B     		cmp	r3, #0
 522 0012 1DD1     		bne	.L22
 203:../Sources/drivers/sai/sai.c ****         {
 204:../Sources/drivers/sai/sai.c ****             /* SAI0 init */
 205:../Sources/drivers/sai/sai.c ****             if(tx)
 523              		.loc 1 205 0
 524 0014 BB79     		ldrb	r3, [r7, #6]	@ zero_extendqisi2
 525 0016 002B     		cmp	r3, #0
 526 0018 0CD0     		beq	.L24
 206:../Sources/drivers/sai/sai.c ****                 {
 207:../Sources/drivers/sai/sai.c ****                     I2S_TCSR_REG(I2S0_BASE_PTR) |= I2S_TCSR_WSF_MASK    //clear word start flag
 527              		.loc 1 207 0
 528 001a 4FF47043 		mov	r3, #61440
 529 001e C4F20203 		movt	r3, 16386
 530 0022 4FF47042 		mov	r2, #61440
 531 0026 C4F20202 		movt	r2, 16386
 532 002a 1268     		ldr	r2, [r2, #0]
 533 002c 42F4F812 		orr	r2, r2, #2031616
 534 0030 1A60     		str	r2, [r3, #0]
 535 0032 0DE0     		b	.L22
 536              	.L24:
 208:../Sources/drivers/sai/sai.c ****                                                    | I2S_TCSR_SEF_MASK //clear sync error flag
 209:../Sources/drivers/sai/sai.c ****                                                    | I2S_TCSR_FEF_MASK //clear FIFO error flag
 210:../Sources/drivers/sai/sai.c ****                                                    | I2S_TCSR_FWF_MASK //clear FIFO warning flag
 211:../Sources/drivers/sai/sai.c ****                                                    | I2S_TCSR_FRF_MASK //clear FIFO request flag
 212:../Sources/drivers/sai/sai.c ****                                                    ;
 213:../Sources/drivers/sai/sai.c ****                 }
 214:../Sources/drivers/sai/sai.c ****             else
 215:../Sources/drivers/sai/sai.c ****                 {
 216:../Sources/drivers/sai/sai.c ****                     I2S_RCSR_REG(I2S0_BASE_PTR) |= I2S_RCSR_WSF_MASK    //clear word start flag
 537              		.loc 1 216 0
 538 0034 4FF47043 		mov	r3, #61440
 539 0038 C4F20203 		movt	r3, 16386
 540 003c 4FF47042 		mov	r2, #61440
 541 0040 C4F20202 		movt	r2, 16386
 542 0044 D2F88020 		ldr	r2, [r2, #128]
 543 0048 42F4F812 		orr	r2, r2, #2031616
 544 004c C3F88020 		str	r2, [r3, #128]
 545              	.L22:
 217:../Sources/drivers/sai/sai.c ****                                                    | I2S_RCSR_SEF_MASK //clear sync error flag
 218:../Sources/drivers/sai/sai.c ****                                                    | I2S_RCSR_FEF_MASK //clear FIFO error flag
 219:../Sources/drivers/sai/sai.c ****                                                    | I2S_RCSR_FWF_MASK //clear FIFO warning flag
 220:../Sources/drivers/sai/sai.c ****                                                    | I2S_RCSR_FRF_MASK //clear FIFO request flag
 221:../Sources/drivers/sai/sai.c ****                                                    ;
 222:../Sources/drivers/sai/sai.c ****                 }
 223:../Sources/drivers/sai/sai.c ****         }
 224:../Sources/drivers/sai/sai.c ****     else if(port == 1)
 225:../Sources/drivers/sai/sai.c ****         {
 226:../Sources/drivers/sai/sai.c ****             /* SAI1 init */
 227:../Sources/drivers/sai/sai.c ****         }
 228:../Sources/drivers/sai/sai.c **** }
 546              		.loc 1 228 0
 547 0050 07F10C07 		add	r7, r7, #12
 548 0054 BD46     		mov	sp, r7
 549 0056 80BC     		pop	{r7}
 550 0058 7047     		bx	lr
 551              		.cfi_endproc
 552              	.LFE133:
 554 005a 00BF     		.section	.text.sai_fifo_request_dma_enable,"ax",%progbits
 555              		.align	2
 556              		.global	sai_fifo_request_dma_enable
 557              		.thumb
 558              		.thumb_func
 560              	sai_fifo_request_dma_enable:
 561              	.LFB134:
 229:../Sources/drivers/sai/sai.c **** 
 230:../Sources/drivers/sai/sai.c **** /* */
 231:../Sources/drivers/sai/sai.c **** 
 232:../Sources/drivers/sai/sai.c **** void sai_fifo_request_dma_enable
 233:../Sources/drivers/sai/sai.c **** (
 234:../Sources/drivers/sai/sai.c ****     unsigned char   port,
 235:../Sources/drivers/sai/sai.c ****     unsigned char   tx
 236:../Sources/drivers/sai/sai.c **** )
 237:../Sources/drivers/sai/sai.c **** {
 562              		.loc 1 237 0
 563              		.cfi_startproc
 564              		@ args = 0, pretend = 0, frame = 8
 565              		@ frame_needed = 1, uses_anonymous_args = 0
 566              		@ link register save eliminated.
 567 0000 80B4     		push	{r7}
 568              	.LCFI18:
 569              		.cfi_def_cfa_offset 4
 570              		.cfi_offset 7, -4
 571 0002 83B0     		sub	sp, sp, #12
 572              	.LCFI19:
 573              		.cfi_def_cfa_offset 16
 574 0004 00AF     		add	r7, sp, #0
 575              	.LCFI20:
 576              		.cfi_def_cfa_register 7
 577 0006 0246     		mov	r2, r0
 578 0008 0B46     		mov	r3, r1
 579 000a FA71     		strb	r2, [r7, #7]
 580 000c BB71     		strb	r3, [r7, #6]
 238:../Sources/drivers/sai/sai.c ****     if(port == 0)
 581              		.loc 1 238 0
 582 000e FB79     		ldrb	r3, [r7, #7]	@ zero_extendqisi2
 583 0010 002B     		cmp	r3, #0
 584 0012 1DD1     		bne	.L25
 239:../Sources/drivers/sai/sai.c ****         {
 240:../Sources/drivers/sai/sai.c ****             if(tx)
 585              		.loc 1 240 0
 586 0014 BB79     		ldrb	r3, [r7, #6]	@ zero_extendqisi2
 587 0016 002B     		cmp	r3, #0
 588 0018 0CD0     		beq	.L27
 241:../Sources/drivers/sai/sai.c ****                 {
 242:../Sources/drivers/sai/sai.c ****                     I2S_TCSR_REG(I2S0_BASE_PTR) |= I2S_TCSR_FRDE_MASK   //FIFO request DMA enable
 589              		.loc 1 242 0
 590 001a 4FF47043 		mov	r3, #61440
 591 001e C4F20203 		movt	r3, 16386
 592 0022 4FF47042 		mov	r2, #61440
 593 0026 C4F20202 		movt	r2, 16386
 594 002a 1268     		ldr	r2, [r2, #0]
 595 002c 42F00102 		orr	r2, r2, #1
 596 0030 1A60     		str	r2, [r3, #0]
 597 0032 0DE0     		b	.L25
 598              	.L27:
 243:../Sources/drivers/sai/sai.c ****                                                    ;
 244:../Sources/drivers/sai/sai.c ****                 }
 245:../Sources/drivers/sai/sai.c ****             else
 246:../Sources/drivers/sai/sai.c ****                 {
 247:../Sources/drivers/sai/sai.c ****                     I2S_RCSR_REG(I2S0_BASE_PTR) |= I2S_RCSR_FRDE_MASK   //FIFO request DMA enable
 599              		.loc 1 247 0
 600 0034 4FF47043 		mov	r3, #61440
 601 0038 C4F20203 		movt	r3, 16386
 602 003c 4FF47042 		mov	r2, #61440
 603 0040 C4F20202 		movt	r2, 16386
 604 0044 D2F88020 		ldr	r2, [r2, #128]
 605 0048 42F00102 		orr	r2, r2, #1
 606 004c C3F88020 		str	r2, [r3, #128]
 607              	.L25:
 248:../Sources/drivers/sai/sai.c ****                                                    ;
 249:../Sources/drivers/sai/sai.c ****                 }
 250:../Sources/drivers/sai/sai.c ****         }
 251:../Sources/drivers/sai/sai.c **** }
 608              		.loc 1 251 0
 609 0050 07F10C07 		add	r7, r7, #12
 610 0054 BD46     		mov	sp, r7
 611 0056 80BC     		pop	{r7}
 612 0058 7047     		bx	lr
 613              		.cfi_endproc
 614              	.LFE134:
 616 005a 00BF     		.section	.text.sai_fifo_warning_dma_enable,"ax",%progbits
 617              		.align	2
 618              		.global	sai_fifo_warning_dma_enable
 619              		.thumb
 620              		.thumb_func
 622              	sai_fifo_warning_dma_enable:
 623              	.LFB135:
 252:../Sources/drivers/sai/sai.c **** 
 253:../Sources/drivers/sai/sai.c **** /* */
 254:../Sources/drivers/sai/sai.c **** 
 255:../Sources/drivers/sai/sai.c **** void sai_fifo_warning_dma_enable
 256:../Sources/drivers/sai/sai.c **** (
 257:../Sources/drivers/sai/sai.c ****     unsigned char   port,
 258:../Sources/drivers/sai/sai.c ****     unsigned char   tx
 259:../Sources/drivers/sai/sai.c **** )
 260:../Sources/drivers/sai/sai.c **** {
 624              		.loc 1 260 0
 625              		.cfi_startproc
 626              		@ args = 0, pretend = 0, frame = 8
 627              		@ frame_needed = 1, uses_anonymous_args = 0
 628              		@ link register save eliminated.
 629 0000 80B4     		push	{r7}
 630              	.LCFI21:
 631              		.cfi_def_cfa_offset 4
 632              		.cfi_offset 7, -4
 633 0002 83B0     		sub	sp, sp, #12
 634              	.LCFI22:
 635              		.cfi_def_cfa_offset 16
 636 0004 00AF     		add	r7, sp, #0
 637              	.LCFI23:
 638              		.cfi_def_cfa_register 7
 639 0006 0246     		mov	r2, r0
 640 0008 0B46     		mov	r3, r1
 641 000a FA71     		strb	r2, [r7, #7]
 642 000c BB71     		strb	r3, [r7, #6]
 261:../Sources/drivers/sai/sai.c ****     if(port == 0)
 643              		.loc 1 261 0
 644 000e FB79     		ldrb	r3, [r7, #7]	@ zero_extendqisi2
 645 0010 002B     		cmp	r3, #0
 646 0012 1DD1     		bne	.L28
 262:../Sources/drivers/sai/sai.c ****         {
 263:../Sources/drivers/sai/sai.c ****             if(tx)
 647              		.loc 1 263 0
 648 0014 BB79     		ldrb	r3, [r7, #6]	@ zero_extendqisi2
 649 0016 002B     		cmp	r3, #0
 650 0018 0CD0     		beq	.L30
 264:../Sources/drivers/sai/sai.c ****                 {
 265:../Sources/drivers/sai/sai.c ****                     I2S_TCSR_REG(I2S0_BASE_PTR) |= I2S_TCSR_FWDE_MASK   //FIFO warning DMA enable
 651              		.loc 1 265 0
 652 001a 4FF47043 		mov	r3, #61440
 653 001e C4F20203 		movt	r3, 16386
 654 0022 4FF47042 		mov	r2, #61440
 655 0026 C4F20202 		movt	r2, 16386
 656 002a 1268     		ldr	r2, [r2, #0]
 657 002c 42F00202 		orr	r2, r2, #2
 658 0030 1A60     		str	r2, [r3, #0]
 659 0032 0DE0     		b	.L28
 660              	.L30:
 266:../Sources/drivers/sai/sai.c ****                                                    ;
 267:../Sources/drivers/sai/sai.c ****                 }
 268:../Sources/drivers/sai/sai.c ****             else
 269:../Sources/drivers/sai/sai.c ****                 {
 270:../Sources/drivers/sai/sai.c ****                     I2S_RCSR_REG(I2S0_BASE_PTR) |= I2S_RCSR_FWDE_MASK   //FIFO warning DMA enable
 661              		.loc 1 270 0
 662 0034 4FF47043 		mov	r3, #61440
 663 0038 C4F20203 		movt	r3, 16386
 664 003c 4FF47042 		mov	r2, #61440
 665 0040 C4F20202 		movt	r2, 16386
 666 0044 D2F88020 		ldr	r2, [r2, #128]
 667 0048 42F00202 		orr	r2, r2, #2
 668 004c C3F88020 		str	r2, [r3, #128]
 669              	.L28:
 271:../Sources/drivers/sai/sai.c ****                                                    ;
 272:../Sources/drivers/sai/sai.c ****                 }
 273:../Sources/drivers/sai/sai.c ****         }
 274:../Sources/drivers/sai/sai.c ****     else if(port == 1)
 275:../Sources/drivers/sai/sai.c ****         {
 276:../Sources/drivers/sai/sai.c ****             //	("Error: Port %d is not available yet.",port);
 277:../Sources/drivers/sai/sai.c ****         }
 278:../Sources/drivers/sai/sai.c **** }
 670              		.loc 1 278 0
 671 0050 07F10C07 		add	r7, r7, #12
 672 0054 BD46     		mov	sp, r7
 673 0056 80BC     		pop	{r7}
 674 0058 7047     		bx	lr
 675              		.cfi_endproc
 676              	.LFE135:
 678 005a 00BF     		.section	.text.sai_enable,"ax",%progbits
 679              		.align	2
 680              		.global	sai_enable
 681              		.thumb
 682              		.thumb_func
 684              	sai_enable:
 685              	.LFB136:
 279:../Sources/drivers/sai/sai.c **** 
 280:../Sources/drivers/sai/sai.c **** /* */
 281:../Sources/drivers/sai/sai.c **** 
 282:../Sources/drivers/sai/sai.c **** void sai_enable
 283:../Sources/drivers/sai/sai.c **** (
 284:../Sources/drivers/sai/sai.c ****     unsigned char   port,
 285:../Sources/drivers/sai/sai.c ****     unsigned char   tx
 286:../Sources/drivers/sai/sai.c **** )
 287:../Sources/drivers/sai/sai.c **** {
 686              		.loc 1 287 0
 687              		.cfi_startproc
 688              		@ args = 0, pretend = 0, frame = 8
 689              		@ frame_needed = 1, uses_anonymous_args = 0
 690              		@ link register save eliminated.
 691 0000 80B4     		push	{r7}
 692              	.LCFI24:
 693              		.cfi_def_cfa_offset 4
 694              		.cfi_offset 7, -4
 695 0002 83B0     		sub	sp, sp, #12
 696              	.LCFI25:
 697              		.cfi_def_cfa_offset 16
 698 0004 00AF     		add	r7, sp, #0
 699              	.LCFI26:
 700              		.cfi_def_cfa_register 7
 701 0006 0246     		mov	r2, r0
 702 0008 0B46     		mov	r3, r1
 703 000a FA71     		strb	r2, [r7, #7]
 704 000c BB71     		strb	r3, [r7, #6]
 288:../Sources/drivers/sai/sai.c ****     if(port == 0)
 705              		.loc 1 288 0
 706 000e FB79     		ldrb	r3, [r7, #7]	@ zero_extendqisi2
 707 0010 002B     		cmp	r3, #0
 708 0012 1DD1     		bne	.L31
 289:../Sources/drivers/sai/sai.c ****         {
 290:../Sources/drivers/sai/sai.c ****             if(tx) I2S_TCSR_REG(I2S0_BASE_PTR) |= I2S_TCSR_TE_MASK; //transmit enable
 709              		.loc 1 290 0
 710 0014 BB79     		ldrb	r3, [r7, #6]	@ zero_extendqisi2
 711 0016 002B     		cmp	r3, #0
 712 0018 0CD0     		beq	.L33
 713              		.loc 1 290 0 is_stmt 0
 714 001a 4FF47043 		mov	r3, #61440
 715 001e C4F20203 		movt	r3, 16386
 716 0022 4FF47042 		mov	r2, #61440
 717 0026 C4F20202 		movt	r2, 16386
 718 002a 1268     		ldr	r2, [r2, #0]
 719 002c 42F00042 		orr	r2, r2, #-2147483648
 720 0030 1A60     		str	r2, [r3, #0]
 721 0032 0DE0     		b	.L31
 722              	.L33:
 291:../Sources/drivers/sai/sai.c ****             else
 292:../Sources/drivers/sai/sai.c ****                 I2S_RCSR_REG(I2S0_BASE_PTR) |= I2S_RCSR_RE_MASK;    //receive enable
 723              		.loc 1 292 0 is_stmt 1
 724 0034 4FF47043 		mov	r3, #61440
 725 0038 C4F20203 		movt	r3, 16386
 726 003c 4FF47042 		mov	r2, #61440
 727 0040 C4F20202 		movt	r2, 16386
 728 0044 D2F88020 		ldr	r2, [r2, #128]
 729 0048 42F00042 		orr	r2, r2, #-2147483648
 730 004c C3F88020 		str	r2, [r3, #128]
 731              	.L31:
 293:../Sources/drivers/sai/sai.c ****         }
 294:../Sources/drivers/sai/sai.c ****     else if(port == 1)
 295:../Sources/drivers/sai/sai.c ****         {
 296:../Sources/drivers/sai/sai.c ****             //("Error: Port %d is not available yet.",port);
 297:../Sources/drivers/sai/sai.c ****         }
 298:../Sources/drivers/sai/sai.c **** }
 732              		.loc 1 298 0
 733 0050 07F10C07 		add	r7, r7, #12
 734 0054 BD46     		mov	sp, r7
 735 0056 80BC     		pop	{r7}
 736 0058 7047     		bx	lr
 737              		.cfi_endproc
 738              	.LFE136:
 740 005a 00BF     		.section	.text.sai_disable,"ax",%progbits
 741              		.align	2
 742              		.global	sai_disable
 743              		.thumb
 744              		.thumb_func
 746              	sai_disable:
 747              	.LFB137:
 299:../Sources/drivers/sai/sai.c **** 
 300:../Sources/drivers/sai/sai.c **** /* */
 301:../Sources/drivers/sai/sai.c **** 
 302:../Sources/drivers/sai/sai.c **** void sai_disable
 303:../Sources/drivers/sai/sai.c **** (
 304:../Sources/drivers/sai/sai.c ****     unsigned char   port,
 305:../Sources/drivers/sai/sai.c ****     unsigned char   tx
 306:../Sources/drivers/sai/sai.c **** )
 307:../Sources/drivers/sai/sai.c **** {
 748              		.loc 1 307 0
 749              		.cfi_startproc
 750              		@ args = 0, pretend = 0, frame = 8
 751              		@ frame_needed = 1, uses_anonymous_args = 0
 752              		@ link register save eliminated.
 753 0000 80B4     		push	{r7}
 754              	.LCFI27:
 755              		.cfi_def_cfa_offset 4
 756              		.cfi_offset 7, -4
 757 0002 83B0     		sub	sp, sp, #12
 758              	.LCFI28:
 759              		.cfi_def_cfa_offset 16
 760 0004 00AF     		add	r7, sp, #0
 761              	.LCFI29:
 762              		.cfi_def_cfa_register 7
 763 0006 0246     		mov	r2, r0
 764 0008 0B46     		mov	r3, r1
 765 000a FA71     		strb	r2, [r7, #7]
 766 000c BB71     		strb	r3, [r7, #6]
 308:../Sources/drivers/sai/sai.c ****     if(port == 0)
 767              		.loc 1 308 0
 768 000e FB79     		ldrb	r3, [r7, #7]	@ zero_extendqisi2
 769 0010 002B     		cmp	r3, #0
 770 0012 1DD1     		bne	.L34
 309:../Sources/drivers/sai/sai.c ****         {
 310:../Sources/drivers/sai/sai.c ****             if(tx) I2S_TCSR_REG(I2S0_BASE_PTR) &= ~I2S_TCSR_TE_MASK;    //transmit disable
 771              		.loc 1 310 0
 772 0014 BB79     		ldrb	r3, [r7, #6]	@ zero_extendqisi2
 773 0016 002B     		cmp	r3, #0
 774 0018 0CD0     		beq	.L36
 775              		.loc 1 310 0 is_stmt 0
 776 001a 4FF47043 		mov	r3, #61440
 777 001e C4F20203 		movt	r3, 16386
 778 0022 4FF47042 		mov	r2, #61440
 779 0026 C4F20202 		movt	r2, 16386
 780 002a 1268     		ldr	r2, [r2, #0]
 781 002c 22F00042 		bic	r2, r2, #-2147483648
 782 0030 1A60     		str	r2, [r3, #0]
 783 0032 0DE0     		b	.L34
 784              	.L36:
 311:../Sources/drivers/sai/sai.c ****             else
 312:../Sources/drivers/sai/sai.c ****                 I2S_RCSR_REG(I2S0_BASE_PTR) &= ~I2S_RCSR_RE_MASK;       //receive disable
 785              		.loc 1 312 0 is_stmt 1
 786 0034 4FF47043 		mov	r3, #61440
 787 0038 C4F20203 		movt	r3, 16386
 788 003c 4FF47042 		mov	r2, #61440
 789 0040 C4F20202 		movt	r2, 16386
 790 0044 D2F88020 		ldr	r2, [r2, #128]
 791 0048 22F00042 		bic	r2, r2, #-2147483648
 792 004c C3F88020 		str	r2, [r3, #128]
 793              	.L34:
 313:../Sources/drivers/sai/sai.c ****         }
 314:../Sources/drivers/sai/sai.c ****     else if(port == 1)
 315:../Sources/drivers/sai/sai.c ****         {
 316:../Sources/drivers/sai/sai.c ****             //	("Error: Port %d is not available yet.",port);
 317:../Sources/drivers/sai/sai.c ****         }
 318:../Sources/drivers/sai/sai.c **** }
 794              		.loc 1 318 0
 795 0050 07F10C07 		add	r7, r7, #12
 796 0054 BD46     		mov	sp, r7
 797 0056 80BC     		pop	{r7}
 798 0058 7047     		bx	lr
 799              		.cfi_endproc
 800              	.LFE137:
 802 005a 00BF     		.section	.text.sai_watermark_config,"ax",%progbits
 803              		.align	2
 804              		.global	sai_watermark_config
 805              		.thumb
 806              		.thumb_func
 808              	sai_watermark_config:
 809              	.LFB138:
 319:../Sources/drivers/sai/sai.c **** 
 320:../Sources/drivers/sai/sai.c **** /*
 321:../Sources/drivers/sai/sai.c **** *	Input parameter
 322:../Sources/drivers/sai/sai.c **** */
 323:../Sources/drivers/sai/sai.c **** 
 324:../Sources/drivers/sai/sai.c **** void sai_watermark_config
 325:../Sources/drivers/sai/sai.c **** (
 326:../Sources/drivers/sai/sai.c ****     unsigned char   port,
 327:../Sources/drivers/sai/sai.c ****     unsigned char   tx,
 328:../Sources/drivers/sai/sai.c ****     unsigned char   watermark
 329:../Sources/drivers/sai/sai.c **** )
 330:../Sources/drivers/sai/sai.c **** {
 810              		.loc 1 330 0
 811              		.cfi_startproc
 812              		@ args = 0, pretend = 0, frame = 8
 813              		@ frame_needed = 1, uses_anonymous_args = 0
 814              		@ link register save eliminated.
 815 0000 80B4     		push	{r7}
 816              	.LCFI30:
 817              		.cfi_def_cfa_offset 4
 818              		.cfi_offset 7, -4
 819 0002 83B0     		sub	sp, sp, #12
 820              	.LCFI31:
 821              		.cfi_def_cfa_offset 16
 822 0004 00AF     		add	r7, sp, #0
 823              	.LCFI32:
 824              		.cfi_def_cfa_register 7
 825 0006 1346     		mov	r3, r2
 826 0008 0246     		mov	r2, r0
 827 000a FA71     		strb	r2, [r7, #7]
 828 000c 0A46     		mov	r2, r1
 829 000e BA71     		strb	r2, [r7, #6]
 830 0010 7B71     		strb	r3, [r7, #5]
 331:../Sources/drivers/sai/sai.c ****     if(port == 0)
 831              		.loc 1 331 0
 832 0012 FB79     		ldrb	r3, [r7, #7]	@ zero_extendqisi2
 833 0014 002B     		cmp	r3, #0
 834 0016 10D1     		bne	.L37
 332:../Sources/drivers/sai/sai.c ****         {
 333:../Sources/drivers/sai/sai.c ****             if(tx) I2S_TCR1_REG(I2S0_BASE_PTR) = watermark; //tx FIFO watermark
 835              		.loc 1 333 0
 836 0018 BB79     		ldrb	r3, [r7, #6]	@ zero_extendqisi2
 837 001a 002B     		cmp	r3, #0
 838 001c 06D0     		beq	.L39
 839              		.loc 1 333 0 is_stmt 0
 840 001e 4FF47043 		mov	r3, #61440
 841 0022 C4F20203 		movt	r3, 16386
 842 0026 7A79     		ldrb	r2, [r7, #5]	@ zero_extendqisi2
 843 0028 5A60     		str	r2, [r3, #4]
 844 002a 06E0     		b	.L37
 845              	.L39:
 334:../Sources/drivers/sai/sai.c ****             else
 335:../Sources/drivers/sai/sai.c ****                 I2S_RCR1_REG(I2S0_BASE_PTR) = watermark;    //rx FIFO watermark
 846              		.loc 1 335 0 is_stmt 1
 847 002c 4FF47043 		mov	r3, #61440
 848 0030 C4F20203 		movt	r3, 16386
 849 0034 7A79     		ldrb	r2, [r7, #5]	@ zero_extendqisi2
 850 0036 C3F88420 		str	r2, [r3, #132]
 851              	.L37:
 336:../Sources/drivers/sai/sai.c ****         }
 337:../Sources/drivers/sai/sai.c ****     else if(port == 1)
 338:../Sources/drivers/sai/sai.c ****         {
 339:../Sources/drivers/sai/sai.c ****         }
 340:../Sources/drivers/sai/sai.c **** }
 852              		.loc 1 340 0
 853 003a 07F10C07 		add	r7, r7, #12
 854 003e BD46     		mov	sp, r7
 855 0040 80BC     		pop	{r7}
 856 0042 7047     		bx	lr
 857              		.cfi_endproc
 858              	.LFE138:
 860              		.section	.text.sai_mode_config,"ax",%progbits
 861              		.align	2
 862              		.global	sai_mode_config
 863              		.thumb
 864              		.thumb_func
 866              	sai_mode_config:
 867              	.LFB139:
 341:../Sources/drivers/sai/sai.c **** 
 342:../Sources/drivers/sai/sai.c **** /*
 343:../Sources/drivers/sai/sai.c **** *	Input parameter:
 344:../Sources/drivers/sai/sai.c **** *	port:		SAI port used
 345:../Sources/drivers/sai/sai.c **** *	tx:		transmit or receive
 346:../Sources/drivers/sai/sai.c **** *	mode:		synchronous mode
 347:../Sources/drivers/sai/sai.c **** *	bcs:		bit clock swap
 348:../Sources/drivers/sai/sai.c **** *	bci:		bit clock input
 349:../Sources/drivers/sai/sai.c **** */
 350:../Sources/drivers/sai/sai.c **** 
 351:../Sources/drivers/sai/sai.c **** void sai_mode_config
 352:../Sources/drivers/sai/sai.c **** (
 353:../Sources/drivers/sai/sai.c ****     unsigned char   port,
 354:../Sources/drivers/sai/sai.c ****     unsigned char   tx,
 355:../Sources/drivers/sai/sai.c ****     unsigned char   mode,
 356:../Sources/drivers/sai/sai.c ****     unsigned char   bcs,
 357:../Sources/drivers/sai/sai.c ****     unsigned char   bci
 358:../Sources/drivers/sai/sai.c **** )
 359:../Sources/drivers/sai/sai.c **** {
 868              		.loc 1 359 0
 869              		.cfi_startproc
 870              		@ args = 4, pretend = 0, frame = 8
 871              		@ frame_needed = 1, uses_anonymous_args = 0
 872              		@ link register save eliminated.
 873 0000 80B4     		push	{r7}
 874              	.LCFI33:
 875              		.cfi_def_cfa_offset 4
 876              		.cfi_offset 7, -4
 877 0002 83B0     		sub	sp, sp, #12
 878              	.LCFI34:
 879              		.cfi_def_cfa_offset 16
 880 0004 00AF     		add	r7, sp, #0
 881              	.LCFI35:
 882              		.cfi_def_cfa_register 7
 883 0006 F871     		strb	r0, [r7, #7]
 884 0008 B971     		strb	r1, [r7, #6]
 885 000a 7A71     		strb	r2, [r7, #5]
 886 000c 3B71     		strb	r3, [r7, #4]
 360:../Sources/drivers/sai/sai.c ****     if(port == 0)
 887              		.loc 1 360 0
 888 000e FB79     		ldrb	r3, [r7, #7]	@ zero_extendqisi2
 889 0010 002B     		cmp	r3, #0
 890 0012 40F09A80 		bne	.L40
 361:../Sources/drivers/sai/sai.c ****         {
 362:../Sources/drivers/sai/sai.c ****             if(tx)
 891              		.loc 1 362 0
 892 0016 BB79     		ldrb	r3, [r7, #6]	@ zero_extendqisi2
 893 0018 002B     		cmp	r3, #0
 894 001a 46D0     		beq	.L42
 363:../Sources/drivers/sai/sai.c ****                 {
 364:../Sources/drivers/sai/sai.c ****                     I2S_TCR2_REG(I2S0_BASE_PTR) |= I2S_TCR2_SYNC(mode);         //configure SAI syn
 895              		.loc 1 364 0
 896 001c 4FF47043 		mov	r3, #61440
 897 0020 C4F20203 		movt	r3, 16386
 898 0024 4FF47042 		mov	r2, #61440
 899 0028 C4F20202 		movt	r2, 16386
 900 002c 9168     		ldr	r1, [r2, #8]
 901 002e 7A79     		ldrb	r2, [r7, #5]	@ zero_extendqisi2
 902 0030 4FEA8272 		lsl	r2, r2, #30
 903 0034 0A43     		orrs	r2, r2, r1
 904 0036 9A60     		str	r2, [r3, #8]
 365:../Sources/drivers/sai/sai.c **** 
 366:../Sources/drivers/sai/sai.c ****                     if(bcs) I2S_TCR2_REG(I2S0_BASE_PTR) |= I2S_TCR2_BCS_MASK;   //bit clock swap
 905              		.loc 1 366 0
 906 0038 3B79     		ldrb	r3, [r7, #4]	@ zero_extendqisi2
 907 003a 002B     		cmp	r3, #0
 908 003c 0CD0     		beq	.L43
 909              		.loc 1 366 0 is_stmt 0
 910 003e 4FF47043 		mov	r3, #61440
 911 0042 C4F20203 		movt	r3, 16386
 912 0046 4FF47042 		mov	r2, #61440
 913 004a C4F20202 		movt	r2, 16386
 914 004e 9268     		ldr	r2, [r2, #8]
 915 0050 42F00052 		orr	r2, r2, #536870912
 916 0054 9A60     		str	r2, [r3, #8]
 917 0056 0BE0     		b	.L44
 918              	.L43:
 367:../Sources/drivers/sai/sai.c ****                     else
 368:../Sources/drivers/sai/sai.c ****                         I2S_TCR2_REG(I2S0_BASE_PTR) &= ~I2S_TCR2_BCS_MASK;
 919              		.loc 1 368 0 is_stmt 1
 920 0058 4FF47043 		mov	r3, #61440
 921 005c C4F20203 		movt	r3, 16386
 922 0060 4FF47042 		mov	r2, #61440
 923 0064 C4F20202 		movt	r2, 16386
 924 0068 9268     		ldr	r2, [r2, #8]
 925 006a 22F00052 		bic	r2, r2, #536870912
 926 006e 9A60     		str	r2, [r3, #8]
 927              	.L44:
 369:../Sources/drivers/sai/sai.c **** 
 370:../Sources/drivers/sai/sai.c ****                     if(bci) I2S_TCR2_REG(I2S0_BASE_PTR) |= I2S_TCR2_BCI_MASK;   //internal logic cl
 928              		.loc 1 370 0
 929 0070 3B7C     		ldrb	r3, [r7, #16]	@ zero_extendqisi2
 930 0072 002B     		cmp	r3, #0
 931 0074 0CD0     		beq	.L45
 932              		.loc 1 370 0 is_stmt 0
 933 0076 4FF47043 		mov	r3, #61440
 934 007a C4F20203 		movt	r3, 16386
 935 007e 4FF47042 		mov	r2, #61440
 936 0082 C4F20202 		movt	r2, 16386
 937 0086 9268     		ldr	r2, [r2, #8]
 938 0088 42F08052 		orr	r2, r2, #268435456
 939 008c 9A60     		str	r2, [r3, #8]
 940 008e 5CE0     		b	.L40
 941              	.L45:
 371:../Sources/drivers/sai/sai.c ****                     else
 372:../Sources/drivers/sai/sai.c ****                         I2S_TCR2_REG(I2S0_BASE_PTR) &= ~I2S_TCR2_BCI_MASK;
 942              		.loc 1 372 0 is_stmt 1
 943 0090 4FF47043 		mov	r3, #61440
 944 0094 C4F20203 		movt	r3, 16386
 945 0098 4FF47042 		mov	r2, #61440
 946 009c C4F20202 		movt	r2, 16386
 947 00a0 9268     		ldr	r2, [r2, #8]
 948 00a2 22F08052 		bic	r2, r2, #268435456
 949 00a6 9A60     		str	r2, [r3, #8]
 950 00a8 4FE0     		b	.L40
 951              	.L42:
 373:../Sources/drivers/sai/sai.c ****                 }
 374:../Sources/drivers/sai/sai.c ****             else
 375:../Sources/drivers/sai/sai.c ****                 {
 376:../Sources/drivers/sai/sai.c ****                     I2S_RCR2_REG(I2S0_BASE_PTR) |= I2S_RCR2_SYNC(mode);         //configure SAI syn
 952              		.loc 1 376 0
 953 00aa 4FF47043 		mov	r3, #61440
 954 00ae C4F20203 		movt	r3, 16386
 955 00b2 4FF47042 		mov	r2, #61440
 956 00b6 C4F20202 		movt	r2, 16386
 957 00ba D2F88810 		ldr	r1, [r2, #136]
 958 00be 7A79     		ldrb	r2, [r7, #5]	@ zero_extendqisi2
 959 00c0 4FEA8272 		lsl	r2, r2, #30
 960 00c4 0A43     		orrs	r2, r2, r1
 961 00c6 C3F88820 		str	r2, [r3, #136]
 377:../Sources/drivers/sai/sai.c **** 
 378:../Sources/drivers/sai/sai.c ****                     if(bcs) I2S_RCR2_REG(I2S0_BASE_PTR) |= I2S_RCR2_BCS_MASK;   //bit clock swap
 962              		.loc 1 378 0
 963 00ca 3B79     		ldrb	r3, [r7, #4]	@ zero_extendqisi2
 964 00cc 002B     		cmp	r3, #0
 965 00ce 0ED0     		beq	.L46
 966              		.loc 1 378 0 is_stmt 0
 967 00d0 4FF47043 		mov	r3, #61440
 968 00d4 C4F20203 		movt	r3, 16386
 969 00d8 4FF47042 		mov	r2, #61440
 970 00dc C4F20202 		movt	r2, 16386
 971 00e0 D2F88820 		ldr	r2, [r2, #136]
 972 00e4 42F00052 		orr	r2, r2, #536870912
 973 00e8 C3F88820 		str	r2, [r3, #136]
 974 00ec 0DE0     		b	.L47
 975              	.L46:
 379:../Sources/drivers/sai/sai.c ****                     else
 380:../Sources/drivers/sai/sai.c ****                         I2S_RCR2_REG(I2S0_BASE_PTR) &= ~I2S_RCR2_BCS_MASK;
 976              		.loc 1 380 0 is_stmt 1
 977 00ee 4FF47043 		mov	r3, #61440
 978 00f2 C4F20203 		movt	r3, 16386
 979 00f6 4FF47042 		mov	r2, #61440
 980 00fa C4F20202 		movt	r2, 16386
 981 00fe D2F88820 		ldr	r2, [r2, #136]
 982 0102 22F00052 		bic	r2, r2, #536870912
 983 0106 C3F88820 		str	r2, [r3, #136]
 984              	.L47:
 381:../Sources/drivers/sai/sai.c **** 
 382:../Sources/drivers/sai/sai.c ****                     if(bci) I2S_RCR2_REG(I2S0_BASE_PTR) |= I2S_RCR2_BCI_MASK;   //internal logic cl
 985              		.loc 1 382 0
 986 010a 3B7C     		ldrb	r3, [r7, #16]	@ zero_extendqisi2
 987 010c 002B     		cmp	r3, #0
 988 010e 0ED0     		beq	.L48
 989              		.loc 1 382 0 is_stmt 0
 990 0110 4FF47043 		mov	r3, #61440
 991 0114 C4F20203 		movt	r3, 16386
 992 0118 4FF47042 		mov	r2, #61440
 993 011c C4F20202 		movt	r2, 16386
 994 0120 D2F88820 		ldr	r2, [r2, #136]
 995 0124 42F08052 		orr	r2, r2, #268435456
 996 0128 C3F88820 		str	r2, [r3, #136]
 997 012c 0DE0     		b	.L40
 998              	.L48:
 383:../Sources/drivers/sai/sai.c ****                     else
 384:../Sources/drivers/sai/sai.c ****                         I2S_RCR2_REG(I2S0_BASE_PTR) &= ~I2S_RCR2_BCI_MASK;
 999              		.loc 1 384 0 is_stmt 1
 1000 012e 4FF47043 		mov	r3, #61440
 1001 0132 C4F20203 		movt	r3, 16386
 1002 0136 4FF47042 		mov	r2, #61440
 1003 013a C4F20202 		movt	r2, 16386
 1004 013e D2F88820 		ldr	r2, [r2, #136]
 1005 0142 22F08052 		bic	r2, r2, #268435456
 1006 0146 C3F88820 		str	r2, [r3, #136]
 1007              	.L40:
 385:../Sources/drivers/sai/sai.c ****                 }
 386:../Sources/drivers/sai/sai.c ****         }
 387:../Sources/drivers/sai/sai.c ****     else if(port == 1)
 388:../Sources/drivers/sai/sai.c ****         {
 389:../Sources/drivers/sai/sai.c ****         }
 390:../Sources/drivers/sai/sai.c **** }
 1008              		.loc 1 390 0
 1009 014a 07F10C07 		add	r7, r7, #12
 1010 014e BD46     		mov	sp, r7
 1011 0150 80BC     		pop	{r7}
 1012 0152 7047     		bx	lr
 1013              		.cfi_endproc
 1014              	.LFE139:
 1016              		.section	.text.sai_bclk_config,"ax",%progbits
 1017              		.align	2
 1018              		.global	sai_bclk_config
 1019              		.thumb
 1020              		.thumb_func
 1022              	sai_bclk_config:
 1023              	.LFB140:
 391:../Sources/drivers/sai/sai.c **** 
 392:../Sources/drivers/sai/sai.c **** /*
 393:../Sources/drivers/sai/sai.c **** *	Input parameter:
 394:../Sources/drivers/sai/sai.c **** *	port:		SAI module used
 395:../Sources/drivers/sai/sai.c **** *	tx:		transmit or receive
 396:../Sources/drivers/sai/sai.c **** *	mclksel:	select master clock to generate internal bit clock, ignored when configured for external
 397:../Sources/drivers/sai/sai.c **** *	bclkpol:	bit clock polarity
 398:../Sources/drivers/sai/sai.c **** *	bclkdir:	bit clock direction
 399:../Sources/drivers/sai/sai.c **** *	bclkdiv:	bit clock divide, division value is (DIV+1)*2
 400:../Sources/drivers/sai/sai.c **** */
 401:../Sources/drivers/sai/sai.c **** 
 402:../Sources/drivers/sai/sai.c **** void sai_bclk_config
 403:../Sources/drivers/sai/sai.c **** (
 404:../Sources/drivers/sai/sai.c ****     unsigned char   port,
 405:../Sources/drivers/sai/sai.c ****     unsigned char   tx,
 406:../Sources/drivers/sai/sai.c ****     unsigned char   mclksel,
 407:../Sources/drivers/sai/sai.c ****     unsigned char   bclkpol,
 408:../Sources/drivers/sai/sai.c ****     unsigned char   bclkdir,
 409:../Sources/drivers/sai/sai.c ****     unsigned char   bclkdiv
 410:../Sources/drivers/sai/sai.c **** )
 411:../Sources/drivers/sai/sai.c **** {
 1024              		.loc 1 411 0
 1025              		.cfi_startproc
 1026              		@ args = 8, pretend = 0, frame = 8
 1027              		@ frame_needed = 1, uses_anonymous_args = 0
 1028              		@ link register save eliminated.
 1029 0000 80B4     		push	{r7}
 1030              	.LCFI36:
 1031              		.cfi_def_cfa_offset 4
 1032              		.cfi_offset 7, -4
 1033 0002 83B0     		sub	sp, sp, #12
 1034              	.LCFI37:
 1035              		.cfi_def_cfa_offset 16
 1036 0004 00AF     		add	r7, sp, #0
 1037              	.LCFI38:
 1038              		.cfi_def_cfa_register 7
 1039 0006 F871     		strb	r0, [r7, #7]
 1040 0008 B971     		strb	r1, [r7, #6]
 1041 000a 7A71     		strb	r2, [r7, #5]
 1042 000c 3B71     		strb	r3, [r7, #4]
 412:../Sources/drivers/sai/sai.c ****     if(port == 0)
 1043              		.loc 1 412 0
 1044 000e FB79     		ldrb	r3, [r7, #7]	@ zero_extendqisi2
 1045 0010 002B     		cmp	r3, #0
 1046 0012 40F0D680 		bne	.L49
 413:../Sources/drivers/sai/sai.c ****         {
 414:../Sources/drivers/sai/sai.c ****             /* SAI0 init */
 415:../Sources/drivers/sai/sai.c ****             if(tx)
 1047              		.loc 1 415 0
 1048 0016 BB79     		ldrb	r3, [r7, #6]	@ zero_extendqisi2
 1049 0018 002B     		cmp	r3, #0
 1050 001a 62D0     		beq	.L51
 416:../Sources/drivers/sai/sai.c ****                 {
 417:../Sources/drivers/sai/sai.c ****                     I2S_TCR2_REG(I2S0_BASE_PTR) &= ~I2S_TCR2_MSEL_MASK;     //clear master clock se
 1051              		.loc 1 417 0
 1052 001c 4FF47043 		mov	r3, #61440
 1053 0020 C4F20203 		movt	r3, 16386
 1054 0024 4FF47042 		mov	r2, #61440
 1055 0028 C4F20202 		movt	r2, 16386
 1056 002c 9268     		ldr	r2, [r2, #8]
 1057 002e 22F04062 		bic	r2, r2, #201326592
 1058 0032 9A60     		str	r2, [r3, #8]
 418:../Sources/drivers/sai/sai.c ****                     I2S_TCR2_REG(I2S0_BASE_PTR) &= ~I2S_TCR2_DIV_MASK;      //divide down master cl
 1059              		.loc 1 418 0
 1060 0034 4FF47043 		mov	r3, #61440
 1061 0038 C4F20203 		movt	r3, 16386
 1062 003c 4FF47042 		mov	r2, #61440
 1063 0040 C4F20202 		movt	r2, 16386
 1064 0044 9268     		ldr	r2, [r2, #8]
 1065 0046 22F0FF02 		bic	r2, r2, #255
 1066 004a 9A60     		str	r2, [r3, #8]
 419:../Sources/drivers/sai/sai.c ****                     I2S_TCR2_REG(I2S0_BASE_PTR) |= I2S_TCR2_MSEL(mclksel)   //master clock select
 1067              		.loc 1 419 0
 1068 004c 4FF47043 		mov	r3, #61440
 1069 0050 C4F20203 		movt	r3, 16386
 1070 0054 4FF47042 		mov	r2, #61440
 1071 0058 C4F20202 		movt	r2, 16386
 1072 005c 9168     		ldr	r1, [r2, #8]
 1073 005e 7A79     		ldrb	r2, [r7, #5]	@ zero_extendqisi2
 1074 0060 4FEA8262 		lsl	r2, r2, #26
 1075 0064 02F04060 		and	r0, r2, #201326592
 420:../Sources/drivers/sai/sai.c ****                                                    | I2S_TCR2_DIV(bclkdiv) //divide down master clo
 1076              		.loc 1 420 0
 1077 0068 3A7D     		ldrb	r2, [r7, #20]	@ zero_extendqisi2
 1078 006a 0243     		orrs	r2, r2, r0
 419:../Sources/drivers/sai/sai.c ****                     I2S_TCR2_REG(I2S0_BASE_PTR) |= I2S_TCR2_MSEL(mclksel)   //master clock select
 1079              		.loc 1 419 0
 1080 006c 0A43     		orrs	r2, r2, r1
 1081 006e 9A60     		str	r2, [r3, #8]
 421:../Sources/drivers/sai/sai.c ****                                                    ;
 422:../Sources/drivers/sai/sai.c **** 
 423:../Sources/drivers/sai/sai.c ****                     if(bclkpol) I2S_TCR2_REG(I2S0_BASE_PTR) |= I2S_TCR2_BCP_MASK;   //bit clock is 
 1082              		.loc 1 423 0
 1083 0070 3B79     		ldrb	r3, [r7, #4]	@ zero_extendqisi2
 1084 0072 002B     		cmp	r3, #0
 1085 0074 0CD0     		beq	.L52
 1086              		.loc 1 423 0 is_stmt 0
 1087 0076 4FF47043 		mov	r3, #61440
 1088 007a C4F20203 		movt	r3, 16386
 1089 007e 4FF47042 		mov	r2, #61440
 1090 0082 C4F20202 		movt	r2, 16386
 1091 0086 9268     		ldr	r2, [r2, #8]
 1092 0088 42F00072 		orr	r2, r2, #33554432
 1093 008c 9A60     		str	r2, [r3, #8]
 1094 008e 0BE0     		b	.L53
 1095              	.L52:
 424:../Sources/drivers/sai/sai.c ****                     else
 425:../Sources/drivers/sai/sai.c ****                         I2S_TCR2_REG(I2S0_BASE_PTR) &= ~I2S_TCR2_BCP_MASK;          //bit clock is 
 1096              		.loc 1 425 0 is_stmt 1
 1097 0090 4FF47043 		mov	r3, #61440
 1098 0094 C4F20203 		movt	r3, 16386
 1099 0098 4FF47042 		mov	r2, #61440
 1100 009c C4F20202 		movt	r2, 16386
 1101 00a0 9268     		ldr	r2, [r2, #8]
 1102 00a2 22F00072 		bic	r2, r2, #33554432
 1103 00a6 9A60     		str	r2, [r3, #8]
 1104              	.L53:
 426:../Sources/drivers/sai/sai.c **** 
 427:../Sources/drivers/sai/sai.c ****                     if(bclkdir) I2S_TCR2_REG(I2S0_BASE_PTR) |= I2S_TCR2_BCD_MASK;   //bit clock gen
 1105              		.loc 1 427 0
 1106 00a8 3B7C     		ldrb	r3, [r7, #16]	@ zero_extendqisi2
 1107 00aa 002B     		cmp	r3, #0
 1108 00ac 0CD0     		beq	.L54
 1109              		.loc 1 427 0 is_stmt 0
 1110 00ae 4FF47043 		mov	r3, #61440
 1111 00b2 C4F20203 		movt	r3, 16386
 1112 00b6 4FF47042 		mov	r2, #61440
 1113 00ba C4F20202 		movt	r2, 16386
 1114 00be 9268     		ldr	r2, [r2, #8]
 1115 00c0 42F08072 		orr	r2, r2, #16777216
 1116 00c4 9A60     		str	r2, [r3, #8]
 1117 00c6 7CE0     		b	.L49
 1118              	.L54:
 428:../Sources/drivers/sai/sai.c ****                     else
 429:../Sources/drivers/sai/sai.c ****                         I2S_TCR2_REG(I2S0_BASE_PTR) &= ~I2S_TCR2_BCD_MASK;          //bit clock gen
 1119              		.loc 1 429 0 is_stmt 1
 1120 00c8 4FF47043 		mov	r3, #61440
 1121 00cc C4F20203 		movt	r3, 16386
 1122 00d0 4FF47042 		mov	r2, #61440
 1123 00d4 C4F20202 		movt	r2, 16386
 1124 00d8 9268     		ldr	r2, [r2, #8]
 1125 00da 22F08072 		bic	r2, r2, #16777216
 1126 00de 9A60     		str	r2, [r3, #8]
 1127 00e0 6FE0     		b	.L49
 1128              	.L51:
 430:../Sources/drivers/sai/sai.c ****                 }
 431:../Sources/drivers/sai/sai.c ****             else
 432:../Sources/drivers/sai/sai.c ****                 {
 433:../Sources/drivers/sai/sai.c ****                     I2S_RCR2_REG(I2S0_BASE_PTR) &= ~I2S_RCR2_MSEL_MASK;             //clear master 
 1129              		.loc 1 433 0
 1130 00e2 4FF47043 		mov	r3, #61440
 1131 00e6 C4F20203 		movt	r3, 16386
 1132 00ea 4FF47042 		mov	r2, #61440
 1133 00ee C4F20202 		movt	r2, 16386
 1134 00f2 D2F88820 		ldr	r2, [r2, #136]
 1135 00f6 22F04062 		bic	r2, r2, #201326592
 1136 00fa C3F88820 		str	r2, [r3, #136]
 434:../Sources/drivers/sai/sai.c ****                     I2S_RCR2_REG(I2S0_BASE_PTR) &= ~I2S_RCR2_DIV_MASK;              //divide down m
 1137              		.loc 1 434 0
 1138 00fe 4FF47043 		mov	r3, #61440
 1139 0102 C4F20203 		movt	r3, 16386
 1140 0106 4FF47042 		mov	r2, #61440
 1141 010a C4F20202 		movt	r2, 16386
 1142 010e D2F88820 		ldr	r2, [r2, #136]
 1143 0112 22F0FF02 		bic	r2, r2, #255
 1144 0116 C3F88820 		str	r2, [r3, #136]
 435:../Sources/drivers/sai/sai.c ****                     I2S_RCR2_REG(I2S0_BASE_PTR) |= I2S_RCR2_MSEL(mclksel)           //master clock 
 1145              		.loc 1 435 0
 1146 011a 4FF47043 		mov	r3, #61440
 1147 011e C4F20203 		movt	r3, 16386
 1148 0122 4FF47042 		mov	r2, #61440
 1149 0126 C4F20202 		movt	r2, 16386
 1150 012a D2F88810 		ldr	r1, [r2, #136]
 1151 012e 7A79     		ldrb	r2, [r7, #5]	@ zero_extendqisi2
 1152 0130 4FEA8262 		lsl	r2, r2, #26
 1153 0134 02F04060 		and	r0, r2, #201326592
 436:../Sources/drivers/sai/sai.c ****                                                    | I2S_RCR2_DIV(bclkdiv) //divide down master clo
 1154              		.loc 1 436 0
 1155 0138 3A7D     		ldrb	r2, [r7, #20]	@ zero_extendqisi2
 1156 013a 0243     		orrs	r2, r2, r0
 435:../Sources/drivers/sai/sai.c ****                     I2S_RCR2_REG(I2S0_BASE_PTR) |= I2S_RCR2_MSEL(mclksel)           //master clock 
 1157              		.loc 1 435 0
 1158 013c 0A43     		orrs	r2, r2, r1
 1159 013e C3F88820 		str	r2, [r3, #136]
 437:../Sources/drivers/sai/sai.c ****                                                    ;
 438:../Sources/drivers/sai/sai.c **** 
 439:../Sources/drivers/sai/sai.c ****                     if(bclkpol) I2S_RCR2_REG(I2S0_BASE_PTR) |= I2S_RCR2_BCP_MASK;   //bit clock is 
 1160              		.loc 1 439 0
 1161 0142 3B79     		ldrb	r3, [r7, #4]	@ zero_extendqisi2
 1162 0144 002B     		cmp	r3, #0
 1163 0146 0ED0     		beq	.L55
 1164              		.loc 1 439 0 is_stmt 0
 1165 0148 4FF47043 		mov	r3, #61440
 1166 014c C4F20203 		movt	r3, 16386
 1167 0150 4FF47042 		mov	r2, #61440
 1168 0154 C4F20202 		movt	r2, 16386
 1169 0158 D2F88820 		ldr	r2, [r2, #136]
 1170 015c 42F00072 		orr	r2, r2, #33554432
 1171 0160 C3F88820 		str	r2, [r3, #136]
 1172 0164 0DE0     		b	.L56
 1173              	.L55:
 440:../Sources/drivers/sai/sai.c ****                     else
 441:../Sources/drivers/sai/sai.c ****                         I2S_RCR2_REG(I2S0_BASE_PTR) &= ~I2S_RCR2_BCP_MASK;          //bit clock is 
 1174              		.loc 1 441 0 is_stmt 1
 1175 0166 4FF47043 		mov	r3, #61440
 1176 016a C4F20203 		movt	r3, 16386
 1177 016e 4FF47042 		mov	r2, #61440
 1178 0172 C4F20202 		movt	r2, 16386
 1179 0176 D2F88820 		ldr	r2, [r2, #136]
 1180 017a 22F00072 		bic	r2, r2, #33554432
 1181 017e C3F88820 		str	r2, [r3, #136]
 1182              	.L56:
 442:../Sources/drivers/sai/sai.c **** 
 443:../Sources/drivers/sai/sai.c ****                     if(bclkdir) I2S_RCR2_REG(I2S0_BASE_PTR) |= I2S_RCR2_BCD_MASK;   //bit clock gen
 1183              		.loc 1 443 0
 1184 0182 3B7C     		ldrb	r3, [r7, #16]	@ zero_extendqisi2
 1185 0184 002B     		cmp	r3, #0
 1186 0186 0ED0     		beq	.L57
 1187              		.loc 1 443 0 is_stmt 0
 1188 0188 4FF47043 		mov	r3, #61440
 1189 018c C4F20203 		movt	r3, 16386
 1190 0190 4FF47042 		mov	r2, #61440
 1191 0194 C4F20202 		movt	r2, 16386
 1192 0198 D2F88820 		ldr	r2, [r2, #136]
 1193 019c 42F08072 		orr	r2, r2, #16777216
 1194 01a0 C3F88820 		str	r2, [r3, #136]
 1195 01a4 0DE0     		b	.L49
 1196              	.L57:
 444:../Sources/drivers/sai/sai.c ****                     else
 445:../Sources/drivers/sai/sai.c ****                         I2S_RCR2_REG(I2S0_BASE_PTR) &= ~I2S_RCR2_BCD_MASK;          //bit clock gen
 1197              		.loc 1 445 0 is_stmt 1
 1198 01a6 4FF47043 		mov	r3, #61440
 1199 01aa C4F20203 		movt	r3, 16386
 1200 01ae 4FF47042 		mov	r2, #61440
 1201 01b2 C4F20202 		movt	r2, 16386
 1202 01b6 D2F88820 		ldr	r2, [r2, #136]
 1203 01ba 22F08072 		bic	r2, r2, #16777216
 1204 01be C3F88820 		str	r2, [r3, #136]
 1205              	.L49:
 446:../Sources/drivers/sai/sai.c ****                 }
 447:../Sources/drivers/sai/sai.c ****         }
 448:../Sources/drivers/sai/sai.c ****     else if(port == 1)
 449:../Sources/drivers/sai/sai.c ****         {
 450:../Sources/drivers/sai/sai.c ****             /* SAI1 init */
 451:../Sources/drivers/sai/sai.c ****             //("Error: Port %d is not available yet.",port);
 452:../Sources/drivers/sai/sai.c ****         }
 453:../Sources/drivers/sai/sai.c **** }
 1206              		.loc 1 453 0
 1207 01c2 07F10C07 		add	r7, r7, #12
 1208 01c6 BD46     		mov	sp, r7
 1209 01c8 80BC     		pop	{r7}
 1210 01ca 7047     		bx	lr
 1211              		.cfi_endproc
 1212              	.LFE140:
 1214              		.section	.text.sai_bclk_en,"ax",%progbits
 1215              		.align	2
 1216              		.global	sai_bclk_en
 1217              		.thumb
 1218              		.thumb_func
 1220              	sai_bclk_en:
 1221              	.LFB141:
 454:../Sources/drivers/sai/sai.c **** 
 455:../Sources/drivers/sai/sai.c **** /* */
 456:../Sources/drivers/sai/sai.c **** 
 457:../Sources/drivers/sai/sai.c **** void sai_bclk_en
 458:../Sources/drivers/sai/sai.c **** (
 459:../Sources/drivers/sai/sai.c ****     unsigned char   port,
 460:../Sources/drivers/sai/sai.c ****     unsigned        tx
 461:../Sources/drivers/sai/sai.c **** )
 462:../Sources/drivers/sai/sai.c **** {
 1222              		.loc 1 462 0
 1223              		.cfi_startproc
 1224              		@ args = 0, pretend = 0, frame = 8
 1225              		@ frame_needed = 1, uses_anonymous_args = 0
 1226              		@ link register save eliminated.
 1227 0000 80B4     		push	{r7}
 1228              	.LCFI39:
 1229              		.cfi_def_cfa_offset 4
 1230              		.cfi_offset 7, -4
 1231 0002 83B0     		sub	sp, sp, #12
 1232              	.LCFI40:
 1233              		.cfi_def_cfa_offset 16
 1234 0004 00AF     		add	r7, sp, #0
 1235              	.LCFI41:
 1236              		.cfi_def_cfa_register 7
 1237 0006 0346     		mov	r3, r0
 1238 0008 3960     		str	r1, [r7, #0]
 1239 000a FB71     		strb	r3, [r7, #7]
 463:../Sources/drivers/sai/sai.c ****     if(port == 0)
 1240              		.loc 1 463 0
 1241 000c FB79     		ldrb	r3, [r7, #7]	@ zero_extendqisi2
 1242 000e 002B     		cmp	r3, #0
 1243 0010 1DD1     		bne	.L58
 464:../Sources/drivers/sai/sai.c ****         {
 465:../Sources/drivers/sai/sai.c ****             if(tx) I2S_TCSR_REG(I2S0_BASE_PTR) |= I2S_TCSR_BCE_MASK;    //transmit enable
 1244              		.loc 1 465 0
 1245 0012 3B68     		ldr	r3, [r7, #0]
 1246 0014 002B     		cmp	r3, #0
 1247 0016 0CD0     		beq	.L60
 1248              		.loc 1 465 0 is_stmt 0
 1249 0018 4FF47043 		mov	r3, #61440
 1250 001c C4F20203 		movt	r3, 16386
 1251 0020 4FF47042 		mov	r2, #61440
 1252 0024 C4F20202 		movt	r2, 16386
 1253 0028 1268     		ldr	r2, [r2, #0]
 1254 002a 42F08052 		orr	r2, r2, #268435456
 1255 002e 1A60     		str	r2, [r3, #0]
 1256 0030 0DE0     		b	.L58
 1257              	.L60:
 466:../Sources/drivers/sai/sai.c ****             else
 467:../Sources/drivers/sai/sai.c ****                 I2S_RCSR_REG(I2S0_BASE_PTR) |= I2S_RCSR_BCE_MASK;       //receive enable
 1258              		.loc 1 467 0 is_stmt 1
 1259 0032 4FF47043 		mov	r3, #61440
 1260 0036 C4F20203 		movt	r3, 16386
 1261 003a 4FF47042 		mov	r2, #61440
 1262 003e C4F20202 		movt	r2, 16386
 1263 0042 D2F88020 		ldr	r2, [r2, #128]
 1264 0046 42F08052 		orr	r2, r2, #268435456
 1265 004a C3F88020 		str	r2, [r3, #128]
 1266              	.L58:
 468:../Sources/drivers/sai/sai.c ****         }
 469:../Sources/drivers/sai/sai.c ****     else if(port == 1)
 470:../Sources/drivers/sai/sai.c ****         {
 471:../Sources/drivers/sai/sai.c ****             //("Error: Port %d is not available yet.",port);
 472:../Sources/drivers/sai/sai.c ****         }
 473:../Sources/drivers/sai/sai.c **** }
 1267              		.loc 1 473 0
 1268 004e 07F10C07 		add	r7, r7, #12
 1269 0052 BD46     		mov	sp, r7
 1270 0054 80BC     		pop	{r7}
 1271 0056 7047     		bx	lr
 1272              		.cfi_endproc
 1273              	.LFE141:
 1275              		.section	.text.sai_bclk_dis,"ax",%progbits
 1276              		.align	2
 1277              		.global	sai_bclk_dis
 1278              		.thumb
 1279              		.thumb_func
 1281              	sai_bclk_dis:
 1282              	.LFB142:
 474:../Sources/drivers/sai/sai.c **** 
 475:../Sources/drivers/sai/sai.c **** /* */
 476:../Sources/drivers/sai/sai.c **** 
 477:../Sources/drivers/sai/sai.c **** void sai_bclk_dis
 478:../Sources/drivers/sai/sai.c **** (
 479:../Sources/drivers/sai/sai.c ****     unsigned char   port,
 480:../Sources/drivers/sai/sai.c ****     unsigned        tx
 481:../Sources/drivers/sai/sai.c **** )
 482:../Sources/drivers/sai/sai.c **** {
 1283              		.loc 1 482 0
 1284              		.cfi_startproc
 1285              		@ args = 0, pretend = 0, frame = 8
 1286              		@ frame_needed = 1, uses_anonymous_args = 0
 1287              		@ link register save eliminated.
 1288 0000 80B4     		push	{r7}
 1289              	.LCFI42:
 1290              		.cfi_def_cfa_offset 4
 1291              		.cfi_offset 7, -4
 1292 0002 83B0     		sub	sp, sp, #12
 1293              	.LCFI43:
 1294              		.cfi_def_cfa_offset 16
 1295 0004 00AF     		add	r7, sp, #0
 1296              	.LCFI44:
 1297              		.cfi_def_cfa_register 7
 1298 0006 0346     		mov	r3, r0
 1299 0008 3960     		str	r1, [r7, #0]
 1300 000a FB71     		strb	r3, [r7, #7]
 483:../Sources/drivers/sai/sai.c ****     if(port == 0)
 1301              		.loc 1 483 0
 1302 000c FB79     		ldrb	r3, [r7, #7]	@ zero_extendqisi2
 1303 000e 002B     		cmp	r3, #0
 1304 0010 1DD1     		bne	.L61
 484:../Sources/drivers/sai/sai.c ****         {
 485:../Sources/drivers/sai/sai.c ****             if(tx) I2S_TCSR_REG(I2S0_BASE_PTR) &= ~I2S_TCSR_BCE_MASK;   //transmit enable
 1305              		.loc 1 485 0
 1306 0012 3B68     		ldr	r3, [r7, #0]
 1307 0014 002B     		cmp	r3, #0
 1308 0016 0CD0     		beq	.L63
 1309              		.loc 1 485 0 is_stmt 0
 1310 0018 4FF47043 		mov	r3, #61440
 1311 001c C4F20203 		movt	r3, 16386
 1312 0020 4FF47042 		mov	r2, #61440
 1313 0024 C4F20202 		movt	r2, 16386
 1314 0028 1268     		ldr	r2, [r2, #0]
 1315 002a 22F08052 		bic	r2, r2, #268435456
 1316 002e 1A60     		str	r2, [r3, #0]
 1317 0030 0DE0     		b	.L61
 1318              	.L63:
 486:../Sources/drivers/sai/sai.c ****             else
 487:../Sources/drivers/sai/sai.c ****                 I2S_RCSR_REG(I2S0_BASE_PTR) &= ~I2S_RCSR_BCE_MASK;      //receive enable
 1319              		.loc 1 487 0 is_stmt 1
 1320 0032 4FF47043 		mov	r3, #61440
 1321 0036 C4F20203 		movt	r3, 16386
 1322 003a 4FF47042 		mov	r2, #61440
 1323 003e C4F20202 		movt	r2, 16386
 1324 0042 D2F88020 		ldr	r2, [r2, #128]
 1325 0046 22F08052 		bic	r2, r2, #268435456
 1326 004a C3F88020 		str	r2, [r3, #128]
 1327              	.L61:
 488:../Sources/drivers/sai/sai.c ****         }
 489:../Sources/drivers/sai/sai.c ****     else if(port == 1)
 490:../Sources/drivers/sai/sai.c ****         {
 491:../Sources/drivers/sai/sai.c ****             //("Error: Port %d is not available yet.",port);
 492:../Sources/drivers/sai/sai.c ****         }
 493:../Sources/drivers/sai/sai.c **** }
 1328              		.loc 1 493 0
 1329 004e 07F10C07 		add	r7, r7, #12
 1330 0052 BD46     		mov	sp, r7
 1331 0054 80BC     		pop	{r7}
 1332 0056 7047     		bx	lr
 1333              		.cfi_endproc
 1334              	.LFE142:
 1336              		.section	.text.sai_channel_enable,"ax",%progbits
 1337              		.align	2
 1338              		.global	sai_channel_enable
 1339              		.thumb
 1340              		.thumb_func
 1342              	sai_channel_enable:
 1343              	.LFB143:
 494:../Sources/drivers/sai/sai.c **** 
 495:../Sources/drivers/sai/sai.c **** /*
 496:../Sources/drivers/sai/sai.c **** *	Input parameter:
 497:../Sources/drivers/sai/sai.c **** *	port:		SAI module used
 498:../Sources/drivers/sai/sai.c **** *	tx:		transmit or receive
 499:../Sources/drivers/sai/sai.c **** *	chen:		channel enable, 0x01 enable channel one, 0x02 enable channel two, 0x03 enable both channel
 500:../Sources/drivers/sai/sai.c **** */
 501:../Sources/drivers/sai/sai.c **** 
 502:../Sources/drivers/sai/sai.c **** void sai_channel_enable
 503:../Sources/drivers/sai/sai.c **** (
 504:../Sources/drivers/sai/sai.c ****     unsigned char   port,
 505:../Sources/drivers/sai/sai.c ****     unsigned char   tx,
 506:../Sources/drivers/sai/sai.c ****     unsigned char   chen
 507:../Sources/drivers/sai/sai.c **** )
 508:../Sources/drivers/sai/sai.c **** {
 1344              		.loc 1 508 0
 1345              		.cfi_startproc
 1346              		@ args = 0, pretend = 0, frame = 8
 1347              		@ frame_needed = 1, uses_anonymous_args = 0
 1348              		@ link register save eliminated.
 1349 0000 80B4     		push	{r7}
 1350              	.LCFI45:
 1351              		.cfi_def_cfa_offset 4
 1352              		.cfi_offset 7, -4
 1353 0002 83B0     		sub	sp, sp, #12
 1354              	.LCFI46:
 1355              		.cfi_def_cfa_offset 16
 1356 0004 00AF     		add	r7, sp, #0
 1357              	.LCFI47:
 1358              		.cfi_def_cfa_register 7
 1359 0006 1346     		mov	r3, r2
 1360 0008 0246     		mov	r2, r0
 1361 000a FA71     		strb	r2, [r7, #7]
 1362 000c 0A46     		mov	r2, r1
 1363 000e BA71     		strb	r2, [r7, #6]
 1364 0010 7B71     		strb	r3, [r7, #5]
 509:../Sources/drivers/sai/sai.c ****     if(port == 0)
 1365              		.loc 1 509 0
 1366 0012 FB79     		ldrb	r3, [r7, #7]	@ zero_extendqisi2
 1367 0014 002B     		cmp	r3, #0
 1368 0016 25D1     		bne	.L64
 510:../Sources/drivers/sai/sai.c ****         {
 511:../Sources/drivers/sai/sai.c ****             if(tx) I2S_TCR3_REG(I2S0_BASE_PTR) |= I2S_TCR3_TCE(chen);   //tx channel enable
 1369              		.loc 1 511 0
 1370 0018 BB79     		ldrb	r3, [r7, #6]	@ zero_extendqisi2
 1371 001a 002B     		cmp	r3, #0
 1372 001c 10D0     		beq	.L66
 1373              		.loc 1 511 0 is_stmt 0
 1374 001e 4FF47043 		mov	r3, #61440
 1375 0022 C4F20203 		movt	r3, 16386
 1376 0026 4FF47042 		mov	r2, #61440
 1377 002a C4F20202 		movt	r2, 16386
 1378 002e D168     		ldr	r1, [r2, #12]
 1379 0030 7A79     		ldrb	r2, [r7, #5]	@ zero_extendqisi2
 1380 0032 4FEA0242 		lsl	r2, r2, #16
 1381 0036 02F44032 		and	r2, r2, #196608
 1382 003a 0A43     		orrs	r2, r2, r1
 1383 003c DA60     		str	r2, [r3, #12]
 1384 003e 11E0     		b	.L64
 1385              	.L66:
 512:../Sources/drivers/sai/sai.c ****             else
 513:../Sources/drivers/sai/sai.c ****                 I2S_RCR3_REG(I2S0_BASE_PTR) |= I2S_RCR3_RCE(chen);      //rx channel enable
 1386              		.loc 1 513 0 is_stmt 1
 1387 0040 4FF47043 		mov	r3, #61440
 1388 0044 C4F20203 		movt	r3, 16386
 1389 0048 4FF47042 		mov	r2, #61440
 1390 004c C4F20202 		movt	r2, 16386
 1391 0050 D2F88C10 		ldr	r1, [r2, #140]
 1392 0054 7A79     		ldrb	r2, [r7, #5]	@ zero_extendqisi2
 1393 0056 4FEA0242 		lsl	r2, r2, #16
 1394 005a 02F44032 		and	r2, r2, #196608
 1395 005e 0A43     		orrs	r2, r2, r1
 1396 0060 C3F88C20 		str	r2, [r3, #140]
 1397              	.L64:
 514:../Sources/drivers/sai/sai.c ****         }
 515:../Sources/drivers/sai/sai.c ****     else if(port == 1)
 516:../Sources/drivers/sai/sai.c ****         {
 517:../Sources/drivers/sai/sai.c ****             //	("Error: Port %d is not available yet.",port);
 518:../Sources/drivers/sai/sai.c ****         }
 519:../Sources/drivers/sai/sai.c **** }
 1398              		.loc 1 519 0
 1399 0064 07F10C07 		add	r7, r7, #12
 1400 0068 BD46     		mov	sp, r7
 1401 006a 80BC     		pop	{r7}
 1402 006c 7047     		bx	lr
 1403              		.cfi_endproc
 1404              	.LFE143:
 1406 006e 00BF     		.section	.text.sai_channel_disable,"ax",%progbits
 1407              		.align	2
 1408              		.global	sai_channel_disable
 1409              		.thumb
 1410              		.thumb_func
 1412              	sai_channel_disable:
 1413              	.LFB144:
 520:../Sources/drivers/sai/sai.c **** 
 521:../Sources/drivers/sai/sai.c **** /*
 522:../Sources/drivers/sai/sai.c **** *	Input parameter:
 523:../Sources/drivers/sai/sai.c **** *	port:		SAI module used
 524:../Sources/drivers/sai/sai.c **** *	tx:		transmit or receive
 525:../Sources/drivers/sai/sai.c **** *	chen:		channel disable, 0x01 disable channel one, 0x02 disable channel two, 0x03 disable both cha
 526:../Sources/drivers/sai/sai.c **** */
 527:../Sources/drivers/sai/sai.c **** 
 528:../Sources/drivers/sai/sai.c **** void sai_channel_disable
 529:../Sources/drivers/sai/sai.c **** (
 530:../Sources/drivers/sai/sai.c ****     unsigned char   port,
 531:../Sources/drivers/sai/sai.c ****     unsigned char   tx,
 532:../Sources/drivers/sai/sai.c ****     unsigned char   chen
 533:../Sources/drivers/sai/sai.c **** )
 534:../Sources/drivers/sai/sai.c **** {
 1414              		.loc 1 534 0
 1415              		.cfi_startproc
 1416              		@ args = 0, pretend = 0, frame = 8
 1417              		@ frame_needed = 1, uses_anonymous_args = 0
 1418              		@ link register save eliminated.
 1419 0000 80B4     		push	{r7}
 1420              	.LCFI48:
 1421              		.cfi_def_cfa_offset 4
 1422              		.cfi_offset 7, -4
 1423 0002 83B0     		sub	sp, sp, #12
 1424              	.LCFI49:
 1425              		.cfi_def_cfa_offset 16
 1426 0004 00AF     		add	r7, sp, #0
 1427              	.LCFI50:
 1428              		.cfi_def_cfa_register 7
 1429 0006 1346     		mov	r3, r2
 1430 0008 0246     		mov	r2, r0
 1431 000a FA71     		strb	r2, [r7, #7]
 1432 000c 0A46     		mov	r2, r1
 1433 000e BA71     		strb	r2, [r7, #6]
 1434 0010 7B71     		strb	r3, [r7, #5]
 535:../Sources/drivers/sai/sai.c ****     if(port == 0)
 1435              		.loc 1 535 0
 1436 0012 FB79     		ldrb	r3, [r7, #7]	@ zero_extendqisi2
 1437 0014 002B     		cmp	r3, #0
 1438 0016 29D1     		bne	.L67
 536:../Sources/drivers/sai/sai.c ****         {
 537:../Sources/drivers/sai/sai.c ****             if(tx) I2S_TCR3_REG(I2S0_BASE_PTR) &= ~I2S_TCR3_TCE(chen);  //tx channel enable
 1439              		.loc 1 537 0
 1440 0018 BB79     		ldrb	r3, [r7, #6]	@ zero_extendqisi2
 1441 001a 002B     		cmp	r3, #0
 1442 001c 12D0     		beq	.L69
 1443              		.loc 1 537 0 is_stmt 0
 1444 001e 4FF47043 		mov	r3, #61440
 1445 0022 C4F20203 		movt	r3, 16386
 1446 0026 4FF47042 		mov	r2, #61440
 1447 002a C4F20202 		movt	r2, 16386
 1448 002e D168     		ldr	r1, [r2, #12]
 1449 0030 7A79     		ldrb	r2, [r7, #5]	@ zero_extendqisi2
 1450 0032 4FEA0242 		lsl	r2, r2, #16
 1451 0036 02F44032 		and	r2, r2, #196608
 1452 003a 6FEA0202 		mvn	r2, r2
 1453 003e 0A40     		ands	r2, r2, r1
 1454 0040 DA60     		str	r2, [r3, #12]
 1455 0042 13E0     		b	.L67
 1456              	.L69:
 538:../Sources/drivers/sai/sai.c ****             else
 539:../Sources/drivers/sai/sai.c ****                 I2S_RCR3_REG(I2S0_BASE_PTR) &= ~I2S_RCR3_RCE(chen);     //rx channel enable
 1457              		.loc 1 539 0 is_stmt 1
 1458 0044 4FF47043 		mov	r3, #61440
 1459 0048 C4F20203 		movt	r3, 16386
 1460 004c 4FF47042 		mov	r2, #61440
 1461 0050 C4F20202 		movt	r2, 16386
 1462 0054 D2F88C10 		ldr	r1, [r2, #140]
 1463 0058 7A79     		ldrb	r2, [r7, #5]	@ zero_extendqisi2
 1464 005a 4FEA0242 		lsl	r2, r2, #16
 1465 005e 02F44032 		and	r2, r2, #196608
 1466 0062 6FEA0202 		mvn	r2, r2
 1467 0066 0A40     		ands	r2, r2, r1
 1468 0068 C3F88C20 		str	r2, [r3, #140]
 1469              	.L67:
 540:../Sources/drivers/sai/sai.c ****         }
 541:../Sources/drivers/sai/sai.c ****     else if(port == 1)
 542:../Sources/drivers/sai/sai.c ****         {
 543:../Sources/drivers/sai/sai.c ****         }
 544:../Sources/drivers/sai/sai.c **** }
 1470              		.loc 1 544 0
 1471 006c 07F10C07 		add	r7, r7, #12
 1472 0070 BD46     		mov	sp, r7
 1473 0072 80BC     		pop	{r7}
 1474 0074 7047     		bx	lr
 1475              		.cfi_endproc
 1476              	.LFE144:
 1478 0076 00BF     		.section	.text.sai_word_flg_config,"ax",%progbits
 1479              		.align	2
 1480              		.global	sai_word_flg_config
 1481              		.thumb
 1482              		.thumb_func
 1484              	sai_word_flg_config:
 1485              	.LFB145:
 545:../Sources/drivers/sai/sai.c **** 
 546:../Sources/drivers/sai/sai.c **** /*
 547:../Sources/drivers/sai/sai.c **** *	Input parameter
 548:../Sources/drivers/sai/sai.c **** *	port:		SAI module used
 549:../Sources/drivers/sai/sai.c **** *	tx:		transmit or receive
 550:../Sources/drivers/sai/sai.c **** *	wdfl:		configure which word the start of flag is set, should be configured less than frame size
 551:../Sources/drivers/sai/sai.c **** */
 552:../Sources/drivers/sai/sai.c **** 
 553:../Sources/drivers/sai/sai.c **** void sai_word_flg_config
 554:../Sources/drivers/sai/sai.c **** (
 555:../Sources/drivers/sai/sai.c ****     unsigned char   port,
 556:../Sources/drivers/sai/sai.c ****     unsigned char   tx,
 557:../Sources/drivers/sai/sai.c ****     unsigned char   wdfl
 558:../Sources/drivers/sai/sai.c **** )
 559:../Sources/drivers/sai/sai.c **** {
 1486              		.loc 1 559 0
 1487              		.cfi_startproc
 1488              		@ args = 0, pretend = 0, frame = 8
 1489              		@ frame_needed = 1, uses_anonymous_args = 0
 1490              		@ link register save eliminated.
 1491 0000 80B4     		push	{r7}
 1492              	.LCFI51:
 1493              		.cfi_def_cfa_offset 4
 1494              		.cfi_offset 7, -4
 1495 0002 83B0     		sub	sp, sp, #12
 1496              	.LCFI52:
 1497              		.cfi_def_cfa_offset 16
 1498 0004 00AF     		add	r7, sp, #0
 1499              	.LCFI53:
 1500              		.cfi_def_cfa_register 7
 1501 0006 1346     		mov	r3, r2
 1502 0008 0246     		mov	r2, r0
 1503 000a FA71     		strb	r2, [r7, #7]
 1504 000c 0A46     		mov	r2, r1
 1505 000e BA71     		strb	r2, [r7, #6]
 1506 0010 7B71     		strb	r3, [r7, #5]
 560:../Sources/drivers/sai/sai.c ****     if(port == 0)
 1507              		.loc 1 560 0
 1508 0012 FB79     		ldrb	r3, [r7, #7]	@ zero_extendqisi2
 1509 0014 002B     		cmp	r3, #0
 1510 0016 21D1     		bne	.L70
 561:../Sources/drivers/sai/sai.c ****         {
 562:../Sources/drivers/sai/sai.c ****             if(tx) I2S_TCR3_REG(I2S0_BASE_PTR) |= I2S_TCR3_WDFL(wdfl);  //word flag config
 1511              		.loc 1 562 0
 1512 0018 BB79     		ldrb	r3, [r7, #6]	@ zero_extendqisi2
 1513 001a 002B     		cmp	r3, #0
 1514 001c 0ED0     		beq	.L72
 1515              		.loc 1 562 0 is_stmt 0
 1516 001e 4FF47043 		mov	r3, #61440
 1517 0022 C4F20203 		movt	r3, 16386
 1518 0026 4FF47042 		mov	r2, #61440
 1519 002a C4F20202 		movt	r2, 16386
 1520 002e D168     		ldr	r1, [r2, #12]
 1521 0030 7A79     		ldrb	r2, [r7, #5]	@ zero_extendqisi2
 1522 0032 02F01F02 		and	r2, r2, #31
 1523 0036 0A43     		orrs	r2, r2, r1
 1524 0038 DA60     		str	r2, [r3, #12]
 1525 003a 0FE0     		b	.L70
 1526              	.L72:
 563:../Sources/drivers/sai/sai.c ****             else
 564:../Sources/drivers/sai/sai.c ****                 I2S_RCR3_REG(I2S0_BASE_PTR) |= I2S_RCR3_WDFL(wdfl);     //word flag config
 1527              		.loc 1 564 0 is_stmt 1
 1528 003c 4FF47043 		mov	r3, #61440
 1529 0040 C4F20203 		movt	r3, 16386
 1530 0044 4FF47042 		mov	r2, #61440
 1531 0048 C4F20202 		movt	r2, 16386
 1532 004c D2F88C10 		ldr	r1, [r2, #140]
 1533 0050 7A79     		ldrb	r2, [r7, #5]	@ zero_extendqisi2
 1534 0052 02F01F02 		and	r2, r2, #31
 1535 0056 0A43     		orrs	r2, r2, r1
 1536 0058 C3F88C20 		str	r2, [r3, #140]
 1537              	.L70:
 565:../Sources/drivers/sai/sai.c ****         }
 566:../Sources/drivers/sai/sai.c ****     else if(port == 1)
 567:../Sources/drivers/sai/sai.c ****         {
 568:../Sources/drivers/sai/sai.c ****         }
 569:../Sources/drivers/sai/sai.c **** }
 1538              		.loc 1 569 0
 1539 005c 07F10C07 		add	r7, r7, #12
 1540 0060 BD46     		mov	sp, r7
 1541 0062 80BC     		pop	{r7}
 1542 0064 7047     		bx	lr
 1543              		.cfi_endproc
 1544              	.LFE145:
 1546 0066 00BF     		.section	.text.sai_frame_config,"ax",%progbits
 1547              		.align	2
 1548              		.global	sai_frame_config
 1549              		.thumb
 1550              		.thumb_func
 1552              	sai_frame_config:
 1553              	.LFB146:
 570:../Sources/drivers/sai/sai.c **** 
 571:../Sources/drivers/sai/sai.c **** /*
 572:../Sources/drivers/sai/sai.c **** *	Input parameter:
 573:../Sources/drivers/sai/sai.c **** *	port:			SAI module used
 574:../Sources/drivers/sai/sai.c **** *	tx:			transmit or receive
 575:../Sources/drivers/sai/sai.c **** *	framesize:	 	configure number of words in each frame, maximum supported frame size is 32
 576:../Sources/drivers/sai/sai.c **** *	sywd:			configure length of the frame sync in number of bit clocks
 577:../Sources/drivers/sai/sai.c **** *	mf:			specify LSB or MSB first
 578:../Sources/drivers/sai/sai.c **** */
 579:../Sources/drivers/sai/sai.c **** 
 580:../Sources/drivers/sai/sai.c **** void sai_frame_config
 581:../Sources/drivers/sai/sai.c **** (
 582:../Sources/drivers/sai/sai.c ****     unsigned char   port,
 583:../Sources/drivers/sai/sai.c ****     unsigned char   tx,
 584:../Sources/drivers/sai/sai.c ****     unsigned char   framesize,
 585:../Sources/drivers/sai/sai.c ****     unsigned char   sywd,
 586:../Sources/drivers/sai/sai.c ****     unsigned char   mf
 587:../Sources/drivers/sai/sai.c **** )
 588:../Sources/drivers/sai/sai.c **** {
 1554              		.loc 1 588 0
 1555              		.cfi_startproc
 1556              		@ args = 4, pretend = 0, frame = 8
 1557              		@ frame_needed = 1, uses_anonymous_args = 0
 1558              		@ link register save eliminated.
 1559 0000 80B4     		push	{r7}
 1560              	.LCFI54:
 1561              		.cfi_def_cfa_offset 4
 1562              		.cfi_offset 7, -4
 1563 0002 83B0     		sub	sp, sp, #12
 1564              	.LCFI55:
 1565              		.cfi_def_cfa_offset 16
 1566 0004 00AF     		add	r7, sp, #0
 1567              	.LCFI56:
 1568              		.cfi_def_cfa_register 7
 1569 0006 F871     		strb	r0, [r7, #7]
 1570 0008 B971     		strb	r1, [r7, #6]
 1571 000a 7A71     		strb	r2, [r7, #5]
 1572 000c 3B71     		strb	r3, [r7, #4]
 589:../Sources/drivers/sai/sai.c ****     if(port == 0)
 1573              		.loc 1 589 0
 1574 000e FB79     		ldrb	r3, [r7, #7]	@ zero_extendqisi2
 1575 0010 002B     		cmp	r3, #0
 1576 0012 40F0A280 		bne	.L73
 590:../Sources/drivers/sai/sai.c ****         {
 591:../Sources/drivers/sai/sai.c ****             if(tx)
 1577              		.loc 1 591 0
 1578 0016 BB79     		ldrb	r3, [r7, #6]	@ zero_extendqisi2
 1579 0018 002B     		cmp	r3, #0
 1580 001a 4AD0     		beq	.L75
 592:../Sources/drivers/sai/sai.c ****                 {
 593:../Sources/drivers/sai/sai.c ****                     I2S_TCR4_REG(I2S0_BASE_PTR) &= ~I2S_TCR4_FRSZ_MASK;
 1581              		.loc 1 593 0
 1582 001c 4FF47043 		mov	r3, #61440
 1583 0020 C4F20203 		movt	r3, 16386
 1584 0024 4FF47042 		mov	r2, #61440
 1585 0028 C4F20202 		movt	r2, 16386
 1586 002c 1269     		ldr	r2, [r2, #16]
 1587 002e 22F4F812 		bic	r2, r2, #2031616
 1588 0032 1A61     		str	r2, [r3, #16]
 594:../Sources/drivers/sai/sai.c ****                     I2S_TCR4_REG(I2S0_BASE_PTR) &= ~I2S_TCR4_SYWD_MASK;
 1589              		.loc 1 594 0
 1590 0034 4FF47043 		mov	r3, #61440
 1591 0038 C4F20203 		movt	r3, 16386
 1592 003c 4FF47042 		mov	r2, #61440
 1593 0040 C4F20202 		movt	r2, 16386
 1594 0044 1269     		ldr	r2, [r2, #16]
 1595 0046 22F4F852 		bic	r2, r2, #7936
 1596 004a 1A61     		str	r2, [r3, #16]
 595:../Sources/drivers/sai/sai.c ****                     I2S_TCR4_REG(I2S0_BASE_PTR) |= I2S_TCR4_FRSZ(framesize) //configure number of w
 1597              		.loc 1 595 0
 1598 004c 4FF47043 		mov	r3, #61440
 1599 0050 C4F20203 		movt	r3, 16386
 1600 0054 4FF47042 		mov	r2, #61440
 1601 0058 C4F20202 		movt	r2, 16386
 1602 005c 1169     		ldr	r1, [r2, #16]
 1603 005e 7A79     		ldrb	r2, [r7, #5]	@ zero_extendqisi2
 1604 0060 4FEA0242 		lsl	r2, r2, #16
 1605 0064 02F4F810 		and	r0, r2, #2031616
 596:../Sources/drivers/sai/sai.c ****                                                    | I2S_TCR4_SYWD(sywd)   //configure length of th
 1606              		.loc 1 596 0
 1607 0068 3A79     		ldrb	r2, [r7, #4]	@ zero_extendqisi2
 1608 006a 4FEA0222 		lsl	r2, r2, #8
 1609 006e 02F4F852 		and	r2, r2, #7936
 1610 0072 0243     		orrs	r2, r2, r0
 595:../Sources/drivers/sai/sai.c ****                     I2S_TCR4_REG(I2S0_BASE_PTR) |= I2S_TCR4_FRSZ(framesize) //configure number of w
 1611              		.loc 1 595 0
 1612 0074 0A43     		orrs	r2, r2, r1
 1613 0076 1A61     		str	r2, [r3, #16]
 597:../Sources/drivers/sai/sai.c ****                                                    ;
 598:../Sources/drivers/sai/sai.c **** 
 599:../Sources/drivers/sai/sai.c ****                     if(mf) I2S_TCR4_REG(I2S0_BASE_PTR) |= I2S_TCR4_MF_MASK; //MSB transmit first
 1614              		.loc 1 599 0
 1615 0078 3B7C     		ldrb	r3, [r7, #16]	@ zero_extendqisi2
 1616 007a 002B     		cmp	r3, #0
 1617 007c 0CD0     		beq	.L76
 1618              		.loc 1 599 0 is_stmt 0
 1619 007e 4FF47043 		mov	r3, #61440
 1620 0082 C4F20203 		movt	r3, 16386
 1621 0086 4FF47042 		mov	r2, #61440
 1622 008a C4F20202 		movt	r2, 16386
 1623 008e 1269     		ldr	r2, [r2, #16]
 1624 0090 42F01002 		orr	r2, r2, #16
 1625 0094 1A61     		str	r2, [r3, #16]
 1626 0096 60E0     		b	.L73
 1627              	.L76:
 600:../Sources/drivers/sai/sai.c ****                     else
 601:../Sources/drivers/sai/sai.c ****                         I2S_TCR4_REG(I2S0_BASE_PTR) &= ~I2S_TCR4_MF_MASK;   //LSB transmit first
 1628              		.loc 1 601 0 is_stmt 1
 1629 0098 4FF47043 		mov	r3, #61440
 1630 009c C4F20203 		movt	r3, 16386
 1631 00a0 4FF47042 		mov	r2, #61440
 1632 00a4 C4F20202 		movt	r2, 16386
 1633 00a8 1269     		ldr	r2, [r2, #16]
 1634 00aa 22F01002 		bic	r2, r2, #16
 1635 00ae 1A61     		str	r2, [r3, #16]
 1636 00b0 53E0     		b	.L73
 1637              	.L75:
 602:../Sources/drivers/sai/sai.c ****                 }
 603:../Sources/drivers/sai/sai.c ****             else
 604:../Sources/drivers/sai/sai.c ****                 {
 605:../Sources/drivers/sai/sai.c ****                     I2S_RCR4_REG(I2S0_BASE_PTR) &= ~I2S_RCR4_FRSZ_MASK;
 1638              		.loc 1 605 0
 1639 00b2 4FF47043 		mov	r3, #61440
 1640 00b6 C4F20203 		movt	r3, 16386
 1641 00ba 4FF47042 		mov	r2, #61440
 1642 00be C4F20202 		movt	r2, 16386
 1643 00c2 D2F89020 		ldr	r2, [r2, #144]
 1644 00c6 22F4F812 		bic	r2, r2, #2031616
 1645 00ca C3F89020 		str	r2, [r3, #144]
 606:../Sources/drivers/sai/sai.c ****                     I2S_RCR4_REG(I2S0_BASE_PTR) &= ~I2S_RCR4_SYWD_MASK;
 1646              		.loc 1 606 0
 1647 00ce 4FF47043 		mov	r3, #61440
 1648 00d2 C4F20203 		movt	r3, 16386
 1649 00d6 4FF47042 		mov	r2, #61440
 1650 00da C4F20202 		movt	r2, 16386
 1651 00de D2F89020 		ldr	r2, [r2, #144]
 1652 00e2 22F4F852 		bic	r2, r2, #7936
 1653 00e6 C3F89020 		str	r2, [r3, #144]
 607:../Sources/drivers/sai/sai.c ****                     I2S_RCR4_REG(I2S0_BASE_PTR) |= I2S_RCR4_FRSZ(framesize) //configure number of w
 1654              		.loc 1 607 0
 1655 00ea 4FF47043 		mov	r3, #61440
 1656 00ee C4F20203 		movt	r3, 16386
 1657 00f2 4FF47042 		mov	r2, #61440
 1658 00f6 C4F20202 		movt	r2, 16386
 1659 00fa D2F89010 		ldr	r1, [r2, #144]
 1660 00fe 7A79     		ldrb	r2, [r7, #5]	@ zero_extendqisi2
 1661 0100 4FEA0242 		lsl	r2, r2, #16
 1662 0104 02F4F810 		and	r0, r2, #2031616
 608:../Sources/drivers/sai/sai.c ****                                                    | I2S_RCR4_SYWD(sywd)   //configure length of th
 1663              		.loc 1 608 0
 1664 0108 3A79     		ldrb	r2, [r7, #4]	@ zero_extendqisi2
 1665 010a 4FEA0222 		lsl	r2, r2, #8
 1666 010e 02F4F852 		and	r2, r2, #7936
 1667 0112 0243     		orrs	r2, r2, r0
 607:../Sources/drivers/sai/sai.c ****                     I2S_RCR4_REG(I2S0_BASE_PTR) |= I2S_RCR4_FRSZ(framesize) //configure number of w
 1668              		.loc 1 607 0
 1669 0114 0A43     		orrs	r2, r2, r1
 1670 0116 C3F89020 		str	r2, [r3, #144]
 609:../Sources/drivers/sai/sai.c ****                                                    ;
 610:../Sources/drivers/sai/sai.c **** 
 611:../Sources/drivers/sai/sai.c ****                     if(mf) I2S_RCR4_REG(I2S0_BASE_PTR) |= I2S_RCR4_MF_MASK; //MSB transmit first
 1671              		.loc 1 611 0
 1672 011a 3B7C     		ldrb	r3, [r7, #16]	@ zero_extendqisi2
 1673 011c 002B     		cmp	r3, #0
 1674 011e 0ED0     		beq	.L77
 1675              		.loc 1 611 0 is_stmt 0
 1676 0120 4FF47043 		mov	r3, #61440
 1677 0124 C4F20203 		movt	r3, 16386
 1678 0128 4FF47042 		mov	r2, #61440
 1679 012c C4F20202 		movt	r2, 16386
 1680 0130 D2F89020 		ldr	r2, [r2, #144]
 1681 0134 42F01002 		orr	r2, r2, #16
 1682 0138 C3F89020 		str	r2, [r3, #144]
 1683 013c 0DE0     		b	.L73
 1684              	.L77:
 612:../Sources/drivers/sai/sai.c ****                     else
 613:../Sources/drivers/sai/sai.c ****                         I2S_RCR4_REG(I2S0_BASE_PTR) &= ~I2S_RCR4_MF_MASK;   //LSB transmit first
 1685              		.loc 1 613 0 is_stmt 1
 1686 013e 4FF47043 		mov	r3, #61440
 1687 0142 C4F20203 		movt	r3, 16386
 1688 0146 4FF47042 		mov	r2, #61440
 1689 014a C4F20202 		movt	r2, 16386
 1690 014e D2F89020 		ldr	r2, [r2, #144]
 1691 0152 22F01002 		bic	r2, r2, #16
 1692 0156 C3F89020 		str	r2, [r3, #144]
 1693              	.L73:
 614:../Sources/drivers/sai/sai.c ****                 }
 615:../Sources/drivers/sai/sai.c ****         }
 616:../Sources/drivers/sai/sai.c ****     else if(port == 1)
 617:../Sources/drivers/sai/sai.c ****         {
 618:../Sources/drivers/sai/sai.c ****         }
 619:../Sources/drivers/sai/sai.c **** }
 1694              		.loc 1 619 0
 1695 015a 07F10C07 		add	r7, r7, #12
 1696 015e BD46     		mov	sp, r7
 1697 0160 80BC     		pop	{r7}
 1698 0162 7047     		bx	lr
 1699              		.cfi_endproc
 1700              	.LFE146:
 1702              		.section	.text.sai_frameclk_config,"ax",%progbits
 1703              		.align	2
 1704              		.global	sai_frameclk_config
 1705              		.thumb
 1706              		.thumb_func
 1708              	sai_frameclk_config:
 1709              	.LFB147:
 620:../Sources/drivers/sai/sai.c **** 
 621:../Sources/drivers/sai/sai.c **** /*
 622:../Sources/drivers/sai/sai.c **** *	Input parameter
 623:../Sources/drivers/sai/sai.c **** *	port:		SAI module used
 624:../Sources/drivers/sai/sai.c **** *	tx:		transmit or receive
 625:../Sources/drivers/sai/sai.c **** *	fse:		frame sync early
 626:../Sources/drivers/sai/sai.c **** *	fsp:		frame sync polarity
 627:../Sources/drivers/sai/sai.c **** *	fsd:		frame sync direction
 628:../Sources/drivers/sai/sai.c **** */
 629:../Sources/drivers/sai/sai.c **** 
 630:../Sources/drivers/sai/sai.c **** void sai_frameclk_config
 631:../Sources/drivers/sai/sai.c **** (
 632:../Sources/drivers/sai/sai.c ****     unsigned char   port,
 633:../Sources/drivers/sai/sai.c ****     unsigned char   tx,
 634:../Sources/drivers/sai/sai.c ****     unsigned char   fse,
 635:../Sources/drivers/sai/sai.c ****     unsigned char   fsp,
 636:../Sources/drivers/sai/sai.c ****     unsigned char   fsd
 637:../Sources/drivers/sai/sai.c **** )
 638:../Sources/drivers/sai/sai.c **** {
 1710              		.loc 1 638 0
 1711              		.cfi_startproc
 1712              		@ args = 4, pretend = 0, frame = 8
 1713              		@ frame_needed = 1, uses_anonymous_args = 0
 1714              		@ link register save eliminated.
 1715 0000 80B4     		push	{r7}
 1716              	.LCFI57:
 1717              		.cfi_def_cfa_offset 4
 1718              		.cfi_offset 7, -4
 1719 0002 83B0     		sub	sp, sp, #12
 1720              	.LCFI58:
 1721              		.cfi_def_cfa_offset 16
 1722 0004 00AF     		add	r7, sp, #0
 1723              	.LCFI59:
 1724              		.cfi_def_cfa_register 7
 1725 0006 F871     		strb	r0, [r7, #7]
 1726 0008 B971     		strb	r1, [r7, #6]
 1727 000a 7A71     		strb	r2, [r7, #5]
 1728 000c 3B71     		strb	r3, [r7, #4]
 639:../Sources/drivers/sai/sai.c ****     if(port == 0)
 1729              		.loc 1 639 0
 1730 000e FB79     		ldrb	r3, [r7, #7]	@ zero_extendqisi2
 1731 0010 002B     		cmp	r3, #0
 1732 0012 40F0B880 		bne	.L78
 640:../Sources/drivers/sai/sai.c ****         {
 641:../Sources/drivers/sai/sai.c ****             if(tx)
 1733              		.loc 1 641 0
 1734 0016 BB79     		ldrb	r3, [r7, #6]	@ zero_extendqisi2
 1735 0018 002B     		cmp	r3, #0
 1736 001a 54D0     		beq	.L80
 642:../Sources/drivers/sai/sai.c ****                 {
 643:../Sources/drivers/sai/sai.c ****                     if(fse) I2S_TCR4_REG(I2S0_BASE_PTR) |= I2S_TCR4_FSE_MASK;   //frame sync early
 1737              		.loc 1 643 0
 1738 001c 7B79     		ldrb	r3, [r7, #5]	@ zero_extendqisi2
 1739 001e 002B     		cmp	r3, #0
 1740 0020 0CD0     		beq	.L81
 1741              		.loc 1 643 0 is_stmt 0
 1742 0022 4FF47043 		mov	r3, #61440
 1743 0026 C4F20203 		movt	r3, 16386
 1744 002a 4FF47042 		mov	r2, #61440
 1745 002e C4F20202 		movt	r2, 16386
 1746 0032 1269     		ldr	r2, [r2, #16]
 1747 0034 42F00802 		orr	r2, r2, #8
 1748 0038 1A61     		str	r2, [r3, #16]
 1749 003a 0BE0     		b	.L82
 1750              	.L81:
 644:../Sources/drivers/sai/sai.c ****                     else
 645:../Sources/drivers/sai/sai.c ****                         I2S_TCR4_REG(I2S0_BASE_PTR) &= ~I2S_TCR4_FSE_MASK;
 1751              		.loc 1 645 0 is_stmt 1
 1752 003c 4FF47043 		mov	r3, #61440
 1753 0040 C4F20203 		movt	r3, 16386
 1754 0044 4FF47042 		mov	r2, #61440
 1755 0048 C4F20202 		movt	r2, 16386
 1756 004c 1269     		ldr	r2, [r2, #16]
 1757 004e 22F00802 		bic	r2, r2, #8
 1758 0052 1A61     		str	r2, [r3, #16]
 1759              	.L82:
 646:../Sources/drivers/sai/sai.c **** 
 647:../Sources/drivers/sai/sai.c ****                     if(fsp) I2S_TCR4_REG(I2S0_BASE_PTR) |= I2S_TCR4_FSP_MASK;   //frame sync active
 1760              		.loc 1 647 0
 1761 0054 3B79     		ldrb	r3, [r7, #4]	@ zero_extendqisi2
 1762 0056 002B     		cmp	r3, #0
 1763 0058 0CD0     		beq	.L83
 1764              		.loc 1 647 0 is_stmt 0
 1765 005a 4FF47043 		mov	r3, #61440
 1766 005e C4F20203 		movt	r3, 16386
 1767 0062 4FF47042 		mov	r2, #61440
 1768 0066 C4F20202 		movt	r2, 16386
 1769 006a 1269     		ldr	r2, [r2, #16]
 1770 006c 42F00202 		orr	r2, r2, #2
 1771 0070 1A61     		str	r2, [r3, #16]
 1772 0072 0BE0     		b	.L84
 1773              	.L83:
 648:../Sources/drivers/sai/sai.c ****                     else
 649:../Sources/drivers/sai/sai.c ****                         I2S_TCR4_REG(I2S0_BASE_PTR) &= ~I2S_TCR4_FSP_MASK;      //frame sync active
 1774              		.loc 1 649 0 is_stmt 1
 1775 0074 4FF47043 		mov	r3, #61440
 1776 0078 C4F20203 		movt	r3, 16386
 1777 007c 4FF47042 		mov	r2, #61440
 1778 0080 C4F20202 		movt	r2, 16386
 1779 0084 1269     		ldr	r2, [r2, #16]
 1780 0086 22F00202 		bic	r2, r2, #2
 1781 008a 1A61     		str	r2, [r3, #16]
 1782              	.L84:
 650:../Sources/drivers/sai/sai.c **** 
 651:../Sources/drivers/sai/sai.c ****                     if(fsd) I2S_TCR4_REG(I2S0_BASE_PTR) |= I2S_TCR4_FSD_MASK;   //frame sync genera
 1783              		.loc 1 651 0
 1784 008c 3B7C     		ldrb	r3, [r7, #16]	@ zero_extendqisi2
 1785 008e 002B     		cmp	r3, #0
 1786 0090 0CD0     		beq	.L85
 1787              		.loc 1 651 0 is_stmt 0
 1788 0092 4FF47043 		mov	r3, #61440
 1789 0096 C4F20203 		movt	r3, 16386
 1790 009a 4FF47042 		mov	r2, #61440
 1791 009e C4F20202 		movt	r2, 16386
 1792 00a2 1269     		ldr	r2, [r2, #16]
 1793 00a4 42F00102 		orr	r2, r2, #1
 1794 00a8 1A61     		str	r2, [r3, #16]
 1795 00aa 6CE0     		b	.L78
 1796              	.L85:
 652:../Sources/drivers/sai/sai.c ****                     else
 653:../Sources/drivers/sai/sai.c ****                         I2S_TCR4_REG(I2S0_BASE_PTR) &= ~I2S_TCR4_FSD_MASK;      //frame sync genera
 1797              		.loc 1 653 0 is_stmt 1
 1798 00ac 4FF47043 		mov	r3, #61440
 1799 00b0 C4F20203 		movt	r3, 16386
 1800 00b4 4FF47042 		mov	r2, #61440
 1801 00b8 C4F20202 		movt	r2, 16386
 1802 00bc 1269     		ldr	r2, [r2, #16]
 1803 00be 22F00102 		bic	r2, r2, #1
 1804 00c2 1A61     		str	r2, [r3, #16]
 1805 00c4 5FE0     		b	.L78
 1806              	.L80:
 654:../Sources/drivers/sai/sai.c ****                 }
 655:../Sources/drivers/sai/sai.c ****             else
 656:../Sources/drivers/sai/sai.c ****                 {
 657:../Sources/drivers/sai/sai.c ****                     if(fse) I2S_RCR4_REG(I2S0_BASE_PTR) |= I2S_RCR4_FSE_MASK;   //frame sync early
 1807              		.loc 1 657 0
 1808 00c6 7B79     		ldrb	r3, [r7, #5]	@ zero_extendqisi2
 1809 00c8 002B     		cmp	r3, #0
 1810 00ca 0ED0     		beq	.L86
 1811              		.loc 1 657 0 is_stmt 0
 1812 00cc 4FF47043 		mov	r3, #61440
 1813 00d0 C4F20203 		movt	r3, 16386
 1814 00d4 4FF47042 		mov	r2, #61440
 1815 00d8 C4F20202 		movt	r2, 16386
 1816 00dc D2F89020 		ldr	r2, [r2, #144]
 1817 00e0 42F00802 		orr	r2, r2, #8
 1818 00e4 C3F89020 		str	r2, [r3, #144]
 1819 00e8 0DE0     		b	.L87
 1820              	.L86:
 658:../Sources/drivers/sai/sai.c ****                     else
 659:../Sources/drivers/sai/sai.c ****                         I2S_RCR4_REG(I2S0_BASE_PTR) &= ~I2S_RCR4_FSE_MASK;
 1821              		.loc 1 659 0 is_stmt 1
 1822 00ea 4FF47043 		mov	r3, #61440
 1823 00ee C4F20203 		movt	r3, 16386
 1824 00f2 4FF47042 		mov	r2, #61440
 1825 00f6 C4F20202 		movt	r2, 16386
 1826 00fa D2F89020 		ldr	r2, [r2, #144]
 1827 00fe 22F00802 		bic	r2, r2, #8
 1828 0102 C3F89020 		str	r2, [r3, #144]
 1829              	.L87:
 660:../Sources/drivers/sai/sai.c **** 
 661:../Sources/drivers/sai/sai.c ****                     if(fsp) I2S_RCR4_REG(I2S0_BASE_PTR) |= I2S_RCR4_FSP_MASK;   //frame sync active
 1830              		.loc 1 661 0
 1831 0106 3B79     		ldrb	r3, [r7, #4]	@ zero_extendqisi2
 1832 0108 002B     		cmp	r3, #0
 1833 010a 0ED0     		beq	.L88
 1834              		.loc 1 661 0 is_stmt 0
 1835 010c 4FF47043 		mov	r3, #61440
 1836 0110 C4F20203 		movt	r3, 16386
 1837 0114 4FF47042 		mov	r2, #61440
 1838 0118 C4F20202 		movt	r2, 16386
 1839 011c D2F89020 		ldr	r2, [r2, #144]
 1840 0120 42F00202 		orr	r2, r2, #2
 1841 0124 C3F89020 		str	r2, [r3, #144]
 1842 0128 0DE0     		b	.L89
 1843              	.L88:
 662:../Sources/drivers/sai/sai.c ****                     else
 663:../Sources/drivers/sai/sai.c ****                         I2S_RCR4_REG(I2S0_BASE_PTR) &= ~I2S_RCR4_FSP_MASK;      //frame sync active
 1844              		.loc 1 663 0 is_stmt 1
 1845 012a 4FF47043 		mov	r3, #61440
 1846 012e C4F20203 		movt	r3, 16386
 1847 0132 4FF47042 		mov	r2, #61440
 1848 0136 C4F20202 		movt	r2, 16386
 1849 013a D2F89020 		ldr	r2, [r2, #144]
 1850 013e 22F00202 		bic	r2, r2, #2
 1851 0142 C3F89020 		str	r2, [r3, #144]
 1852              	.L89:
 664:../Sources/drivers/sai/sai.c **** 
 665:../Sources/drivers/sai/sai.c ****                     if(fsd) I2S_RCR4_REG(I2S0_BASE_PTR) |= I2S_RCR4_FSD_MASK;   //frame sync genera
 1853              		.loc 1 665 0
 1854 0146 3B7C     		ldrb	r3, [r7, #16]	@ zero_extendqisi2
 1855 0148 002B     		cmp	r3, #0
 1856 014a 0ED0     		beq	.L90
 1857              		.loc 1 665 0 is_stmt 0
 1858 014c 4FF47043 		mov	r3, #61440
 1859 0150 C4F20203 		movt	r3, 16386
 1860 0154 4FF47042 		mov	r2, #61440
 1861 0158 C4F20202 		movt	r2, 16386
 1862 015c D2F89020 		ldr	r2, [r2, #144]
 1863 0160 42F00102 		orr	r2, r2, #1
 1864 0164 C3F89020 		str	r2, [r3, #144]
 1865 0168 0DE0     		b	.L78
 1866              	.L90:
 666:../Sources/drivers/sai/sai.c ****                     else
 667:../Sources/drivers/sai/sai.c ****                         I2S_RCR4_REG(I2S0_BASE_PTR) &= ~I2S_RCR4_FSD_MASK;      //frame sync genera
 1867              		.loc 1 667 0 is_stmt 1
 1868 016a 4FF47043 		mov	r3, #61440
 1869 016e C4F20203 		movt	r3, 16386
 1870 0172 4FF47042 		mov	r2, #61440
 1871 0176 C4F20202 		movt	r2, 16386
 1872 017a D2F89020 		ldr	r2, [r2, #144]
 1873 017e 22F00102 		bic	r2, r2, #1
 1874 0182 C3F89020 		str	r2, [r3, #144]
 1875              	.L78:
 668:../Sources/drivers/sai/sai.c ****                 }
 669:../Sources/drivers/sai/sai.c ****         }
 670:../Sources/drivers/sai/sai.c ****     else if(port == 1)
 671:../Sources/drivers/sai/sai.c ****         {
 672:../Sources/drivers/sai/sai.c ****         }
 673:../Sources/drivers/sai/sai.c **** }
 1876              		.loc 1 673 0
 1877 0186 07F10C07 		add	r7, r7, #12
 1878 018a BD46     		mov	sp, r7
 1879 018c 80BC     		pop	{r7}
 1880 018e 7047     		bx	lr
 1881              		.cfi_endproc
 1882              	.LFE147:
 1884              		.section	.text.sai_wordlength_config,"ax",%progbits
 1885              		.align	2
 1886              		.global	sai_wordlength_config
 1887              		.thumb
 1888              		.thumb_func
 1890              	sai_wordlength_config:
 1891              	.LFB148:
 674:../Sources/drivers/sai/sai.c **** 
 675:../Sources/drivers/sai/sai.c **** /*
 676:../Sources/drivers/sai/sai.c **** *	Input parameter
 677:../Sources/drivers/sai/sai.c **** *	port:		SAI module used
 678:../Sources/drivers/sai/sai.c **** *	tx:		transmit or receive
 679:../Sources/drivers/sai/sai.c **** *	wnw:		word N width
 680:../Sources/drivers/sai/sai.c **** *	w0w:		word 0 width
 681:../Sources/drivers/sai/sai.c **** *	fbt:		configure the bit index of the first bit transmitted for each word in the frame
 682:../Sources/drivers/sai/sai.c **** */
 683:../Sources/drivers/sai/sai.c **** 
 684:../Sources/drivers/sai/sai.c **** void sai_wordlength_config
 685:../Sources/drivers/sai/sai.c **** (
 686:../Sources/drivers/sai/sai.c ****     unsigned char   port,
 687:../Sources/drivers/sai/sai.c ****     unsigned char   tx,
 688:../Sources/drivers/sai/sai.c ****     unsigned char   wnw,
 689:../Sources/drivers/sai/sai.c ****     unsigned char   w0w,
 690:../Sources/drivers/sai/sai.c ****     unsigned char   fbt
 691:../Sources/drivers/sai/sai.c **** )
 692:../Sources/drivers/sai/sai.c **** {
 1892              		.loc 1 692 0
 1893              		.cfi_startproc
 1894              		@ args = 4, pretend = 0, frame = 8
 1895              		@ frame_needed = 1, uses_anonymous_args = 0
 1896              		@ link register save eliminated.
 1897 0000 80B4     		push	{r7}
 1898              	.LCFI60:
 1899              		.cfi_def_cfa_offset 4
 1900              		.cfi_offset 7, -4
 1901 0002 83B0     		sub	sp, sp, #12
 1902              	.LCFI61:
 1903              		.cfi_def_cfa_offset 16
 1904 0004 00AF     		add	r7, sp, #0
 1905              	.LCFI62:
 1906              		.cfi_def_cfa_register 7
 1907 0006 F871     		strb	r0, [r7, #7]
 1908 0008 B971     		strb	r1, [r7, #6]
 1909 000a 7A71     		strb	r2, [r7, #5]
 1910 000c 3B71     		strb	r3, [r7, #4]
 693:../Sources/drivers/sai/sai.c ****     if(port == 0)
 1911              		.loc 1 693 0
 1912 000e FB79     		ldrb	r3, [r7, #7]	@ zero_extendqisi2
 1913 0010 002B     		cmp	r3, #0
 1914 0012 40F08C80 		bne	.L91
 694:../Sources/drivers/sai/sai.c ****         {
 695:../Sources/drivers/sai/sai.c ****             if(tx)
 1915              		.loc 1 695 0
 1916 0016 BB79     		ldrb	r3, [r7, #6]	@ zero_extendqisi2
 1917 0018 002B     		cmp	r3, #0
 1918 001a 40D0     		beq	.L93
 696:../Sources/drivers/sai/sai.c ****                 {
 697:../Sources/drivers/sai/sai.c ****                     I2S_TCR5_REG(I2S0_BASE_PTR) &= ~I2S_TCR5_WNW_MASK;
 1919              		.loc 1 697 0
 1920 001c 4FF47043 		mov	r3, #61440
 1921 0020 C4F20203 		movt	r3, 16386
 1922 0024 4FF47042 		mov	r2, #61440
 1923 0028 C4F20202 		movt	r2, 16386
 1924 002c 5269     		ldr	r2, [r2, #20]
 1925 002e 22F0F852 		bic	r2, r2, #520093696
 1926 0032 5A61     		str	r2, [r3, #20]
 698:../Sources/drivers/sai/sai.c ****                     I2S_TCR5_REG(I2S0_BASE_PTR) &= ~I2S_TCR5_W0W_MASK;
 1927              		.loc 1 698 0
 1928 0034 4FF47043 		mov	r3, #61440
 1929 0038 C4F20203 		movt	r3, 16386
 1930 003c 4FF47042 		mov	r2, #61440
 1931 0040 C4F20202 		movt	r2, 16386
 1932 0044 5269     		ldr	r2, [r2, #20]
 1933 0046 22F4F812 		bic	r2, r2, #2031616
 1934 004a 5A61     		str	r2, [r3, #20]
 699:../Sources/drivers/sai/sai.c ****                     I2S_TCR5_REG(I2S0_BASE_PTR) &= ~I2S_TCR5_FBT_MASK;
 1935              		.loc 1 699 0
 1936 004c 4FF47043 		mov	r3, #61440
 1937 0050 C4F20203 		movt	r3, 16386
 1938 0054 4FF47042 		mov	r2, #61440
 1939 0058 C4F20202 		movt	r2, 16386
 1940 005c 5269     		ldr	r2, [r2, #20]
 1941 005e 22F4F852 		bic	r2, r2, #7936
 1942 0062 5A61     		str	r2, [r3, #20]
 700:../Sources/drivers/sai/sai.c ****                     I2S_TCR5_REG(I2S0_BASE_PTR) |= I2S_TCR5_WNW(wnw)    //configure number of bits 
 1943              		.loc 1 700 0
 1944 0064 4FF47043 		mov	r3, #61440
 1945 0068 C4F20203 		movt	r3, 16386
 1946 006c 4FF47042 		mov	r2, #61440
 1947 0070 C4F20202 		movt	r2, 16386
 1948 0074 5169     		ldr	r1, [r2, #20]
 1949 0076 7A79     		ldrb	r2, [r7, #5]	@ zero_extendqisi2
 1950 0078 4FEA0262 		lsl	r2, r2, #24
 1951 007c 02F0F850 		and	r0, r2, #520093696
 701:../Sources/drivers/sai/sai.c ****                                                    | I2S_TCR5_W0W(w0w) //configure number of bits f
 1952              		.loc 1 701 0
 1953 0080 3A79     		ldrb	r2, [r7, #4]	@ zero_extendqisi2
 1954 0082 4FEA0242 		lsl	r2, r2, #16
 1955 0086 02F4F812 		and	r2, r2, #2031616
 1956 008a 1043     		orrs	r0, r0, r2
 702:../Sources/drivers/sai/sai.c ****                                                    | I2S_TCR5_FBT(fbt) //configure bit index of fir
 1957              		.loc 1 702 0
 1958 008c 3A7C     		ldrb	r2, [r7, #16]	@ zero_extendqisi2
 1959 008e 4FEA0222 		lsl	r2, r2, #8
 1960 0092 02F4F852 		and	r2, r2, #7936
 1961 0096 0243     		orrs	r2, r2, r0
 700:../Sources/drivers/sai/sai.c ****                     I2S_TCR5_REG(I2S0_BASE_PTR) |= I2S_TCR5_WNW(wnw)    //configure number of bits 
 1962              		.loc 1 700 0
 1963 0098 0A43     		orrs	r2, r2, r1
 1964 009a 5A61     		str	r2, [r3, #20]
 1965 009c 47E0     		b	.L91
 1966              	.L93:
 703:../Sources/drivers/sai/sai.c ****                                                    ;
 704:../Sources/drivers/sai/sai.c ****                 }
 705:../Sources/drivers/sai/sai.c ****             else
 706:../Sources/drivers/sai/sai.c ****                 {
 707:../Sources/drivers/sai/sai.c ****                     I2S_RCR5_REG(I2S0_BASE_PTR) &= ~I2S_RCR5_WNW_MASK;
 1967              		.loc 1 707 0
 1968 009e 4FF47043 		mov	r3, #61440
 1969 00a2 C4F20203 		movt	r3, 16386
 1970 00a6 4FF47042 		mov	r2, #61440
 1971 00aa C4F20202 		movt	r2, 16386
 1972 00ae D2F89420 		ldr	r2, [r2, #148]
 1973 00b2 22F0F852 		bic	r2, r2, #520093696
 1974 00b6 C3F89420 		str	r2, [r3, #148]
 708:../Sources/drivers/sai/sai.c ****                     I2S_RCR5_REG(I2S0_BASE_PTR) &= ~I2S_RCR5_W0W_MASK;
 1975              		.loc 1 708 0
 1976 00ba 4FF47043 		mov	r3, #61440
 1977 00be C4F20203 		movt	r3, 16386
 1978 00c2 4FF47042 		mov	r2, #61440
 1979 00c6 C4F20202 		movt	r2, 16386
 1980 00ca D2F89420 		ldr	r2, [r2, #148]
 1981 00ce 22F4F812 		bic	r2, r2, #2031616
 1982 00d2 C3F89420 		str	r2, [r3, #148]
 709:../Sources/drivers/sai/sai.c ****                     I2S_RCR5_REG(I2S0_BASE_PTR) &= ~I2S_RCR5_FBT_MASK;
 1983              		.loc 1 709 0
 1984 00d6 4FF47043 		mov	r3, #61440
 1985 00da C4F20203 		movt	r3, 16386
 1986 00de 4FF47042 		mov	r2, #61440
 1987 00e2 C4F20202 		movt	r2, 16386
 1988 00e6 D2F89420 		ldr	r2, [r2, #148]
 1989 00ea 22F4F852 		bic	r2, r2, #7936
 1990 00ee C3F89420 		str	r2, [r3, #148]
 710:../Sources/drivers/sai/sai.c ****                     I2S_RCR5_REG(I2S0_BASE_PTR) |= I2S_RCR5_WNW(wnw)    //configure number of bits 
 1991              		.loc 1 710 0
 1992 00f2 4FF47043 		mov	r3, #61440
 1993 00f6 C4F20203 		movt	r3, 16386
 1994 00fa 4FF47042 		mov	r2, #61440
 1995 00fe C4F20202 		movt	r2, 16386
 1996 0102 D2F89410 		ldr	r1, [r2, #148]
 1997 0106 7A79     		ldrb	r2, [r7, #5]	@ zero_extendqisi2
 1998 0108 4FEA0262 		lsl	r2, r2, #24
 1999 010c 02F0F850 		and	r0, r2, #520093696
 711:../Sources/drivers/sai/sai.c ****                                                    | I2S_RCR5_W0W(w0w) //configure number of bits f
 2000              		.loc 1 711 0
 2001 0110 3A79     		ldrb	r2, [r7, #4]	@ zero_extendqisi2
 2002 0112 4FEA0242 		lsl	r2, r2, #16
 2003 0116 02F4F812 		and	r2, r2, #2031616
 2004 011a 1043     		orrs	r0, r0, r2
 712:../Sources/drivers/sai/sai.c ****                                                    | I2S_RCR5_FBT(fbt) //configure bit index of fir
 2005              		.loc 1 712 0
 2006 011c 3A7C     		ldrb	r2, [r7, #16]	@ zero_extendqisi2
 2007 011e 4FEA0222 		lsl	r2, r2, #8
 2008 0122 02F4F852 		and	r2, r2, #7936
 2009 0126 0243     		orrs	r2, r2, r0
 710:../Sources/drivers/sai/sai.c ****                     I2S_RCR5_REG(I2S0_BASE_PTR) |= I2S_RCR5_WNW(wnw)    //configure number of bits 
 2010              		.loc 1 710 0
 2011 0128 0A43     		orrs	r2, r2, r1
 2012 012a C3F89420 		str	r2, [r3, #148]
 2013              	.L91:
 713:../Sources/drivers/sai/sai.c ****                                                    ;
 714:../Sources/drivers/sai/sai.c ****                 }
 715:../Sources/drivers/sai/sai.c ****         }
 716:../Sources/drivers/sai/sai.c ****     else if(port == 1)
 717:../Sources/drivers/sai/sai.c ****         {
 718:../Sources/drivers/sai/sai.c ****         }
 719:../Sources/drivers/sai/sai.c **** }
 2014              		.loc 1 719 0
 2015 012e 07F10C07 		add	r7, r7, #12
 2016 0132 BD46     		mov	sp, r7
 2017 0134 80BC     		pop	{r7}
 2018 0136 7047     		bx	lr
 2019              		.cfi_endproc
 2020              	.LFE148:
 2022              		.section	.text.sai_tx,"ax",%progbits
 2023              		.align	2
 2024              		.global	sai_tx
 2025              		.thumb
 2026              		.thumb_func
 2028              	sai_tx:
 2029              	.LFB149:
 720:../Sources/drivers/sai/sai.c **** 
 721:../Sources/drivers/sai/sai.c **** /* */
 722:../Sources/drivers/sai/sai.c **** 
 723:../Sources/drivers/sai/sai.c **** unsigned char sai_tx
 724:../Sources/drivers/sai/sai.c **** (
 725:../Sources/drivers/sai/sai.c ****     unsigned char   port,
 726:../Sources/drivers/sai/sai.c ****     unsigned char   channel,
 727:../Sources/drivers/sai/sai.c ****     unsigned int    txdata
 728:../Sources/drivers/sai/sai.c **** )
 729:../Sources/drivers/sai/sai.c **** {
 2030              		.loc 1 729 0
 2031              		.cfi_startproc
 2032              		@ args = 0, pretend = 0, frame = 8
 2033              		@ frame_needed = 1, uses_anonymous_args = 0
 2034 0000 80B5     		push	{r7, lr}
 2035              	.LCFI63:
 2036              		.cfi_def_cfa_offset 8
 2037              		.cfi_offset 7, -8
 2038              		.cfi_offset 14, -4
 2039 0002 82B0     		sub	sp, sp, #8
 2040              	.LCFI64:
 2041              		.cfi_def_cfa_offset 16
 2042 0004 00AF     		add	r7, sp, #0
 2043              	.LCFI65:
 2044              		.cfi_def_cfa_register 7
 2045 0006 0B46     		mov	r3, r1
 2046 0008 3A60     		str	r2, [r7, #0]
 2047 000a 0246     		mov	r2, r0
 2048 000c FA71     		strb	r2, [r7, #7]
 2049 000e BB71     		strb	r3, [r7, #6]
 730:../Sources/drivers/sai/sai.c ****     if(sai_tx_fifo_status(port, channel) == FIFO_FULL)
 2050              		.loc 1 730 0
 2051 0010 FA79     		ldrb	r2, [r7, #7]	@ zero_extendqisi2
 2052 0012 BB79     		ldrb	r3, [r7, #6]	@ zero_extendqisi2
 2053 0014 1046     		mov	r0, r2
 2054 0016 1946     		mov	r1, r3
 2055 0018 FFF7FEFF 		bl	sai_tx_fifo_status
 2056 001c 0346     		mov	r3, r0
 2057 001e 012B     		cmp	r3, #1
 2058 0020 02D1     		bne	.L95
 731:../Sources/drivers/sai/sai.c ****         {
 732:../Sources/drivers/sai/sai.c ****             return ERROR;
 2059              		.loc 1 732 0
 2060 0022 4FF0FF03 		mov	r3, #255
 2061 0026 0EE0     		b	.L96
 2062              	.L95:
 733:../Sources/drivers/sai/sai.c ****         }
 734:../Sources/drivers/sai/sai.c **** 
 735:../Sources/drivers/sai/sai.c ****     if(port == 0)
 2063              		.loc 1 735 0
 2064 0028 FB79     		ldrb	r3, [r7, #7]	@ zero_extendqisi2
 2065 002a 002B     		cmp	r3, #0
 2066 002c 09D1     		bne	.L97
 736:../Sources/drivers/sai/sai.c ****         {
 737:../Sources/drivers/sai/sai.c ****             I2S_TDR_REG(I2S0_BASE_PTR, channel) = txdata;
 2067              		.loc 1 737 0
 2068 002e 4FF47043 		mov	r3, #61440
 2069 0032 C4F20203 		movt	r3, 16386
 2070 0036 BA79     		ldrb	r2, [r7, #6]	@ zero_extendqisi2
 2071 0038 02F10802 		add	r2, r2, #8
 2072 003c 3968     		ldr	r1, [r7, #0]
 2073 003e 43F82210 		str	r1, [r3, r2, lsl #2]
 2074              	.L97:
 738:../Sources/drivers/sai/sai.c ****         }
 739:../Sources/drivers/sai/sai.c ****     else if(port == 1)
 740:../Sources/drivers/sai/sai.c ****         {
 741:../Sources/drivers/sai/sai.c ****         }
 742:../Sources/drivers/sai/sai.c **** 
 743:../Sources/drivers/sai/sai.c ****     return OK;
 2075              		.loc 1 743 0
 2076 0042 4FF00003 		mov	r3, #0
 2077              	.L96:
 744:../Sources/drivers/sai/sai.c **** }
 2078              		.loc 1 744 0
 2079 0046 1846     		mov	r0, r3
 2080 0048 07F10807 		add	r7, r7, #8
 2081 004c BD46     		mov	sp, r7
 2082 004e 80BD     		pop	{r7, pc}
 2083              		.cfi_endproc
 2084              	.LFE149:
 2086              		.section	.text.sai_wr_tdr,"ax",%progbits
 2087              		.align	2
 2088              		.global	sai_wr_tdr
 2089              		.thumb
 2090              		.thumb_func
 2092              	sai_wr_tdr:
 2093              	.LFB150:
 745:../Sources/drivers/sai/sai.c **** 
 746:../Sources/drivers/sai/sai.c **** /* Direct write tdr, no checking on whether FIFO is full or not */
 747:../Sources/drivers/sai/sai.c **** 
 748:../Sources/drivers/sai/sai.c **** void sai_wr_tdr
 749:../Sources/drivers/sai/sai.c **** (
 750:../Sources/drivers/sai/sai.c ****     unsigned char   port,
 751:../Sources/drivers/sai/sai.c ****     unsigned char   channel,
 752:../Sources/drivers/sai/sai.c ****     unsigned int    txdata
 753:../Sources/drivers/sai/sai.c **** )
 754:../Sources/drivers/sai/sai.c **** {
 2094              		.loc 1 754 0
 2095              		.cfi_startproc
 2096              		@ args = 0, pretend = 0, frame = 8
 2097              		@ frame_needed = 1, uses_anonymous_args = 0
 2098              		@ link register save eliminated.
 2099 0000 80B4     		push	{r7}
 2100              	.LCFI66:
 2101              		.cfi_def_cfa_offset 4
 2102              		.cfi_offset 7, -4
 2103 0002 83B0     		sub	sp, sp, #12
 2104              	.LCFI67:
 2105              		.cfi_def_cfa_offset 16
 2106 0004 00AF     		add	r7, sp, #0
 2107              	.LCFI68:
 2108              		.cfi_def_cfa_register 7
 2109 0006 0B46     		mov	r3, r1
 2110 0008 3A60     		str	r2, [r7, #0]
 2111 000a 0246     		mov	r2, r0
 2112 000c FA71     		strb	r2, [r7, #7]
 2113 000e BB71     		strb	r3, [r7, #6]
 755:../Sources/drivers/sai/sai.c ****     if(port == 0)
 2114              		.loc 1 755 0
 2115 0010 FB79     		ldrb	r3, [r7, #7]	@ zero_extendqisi2
 2116 0012 002B     		cmp	r3, #0
 2117 0014 09D1     		bne	.L98
 756:../Sources/drivers/sai/sai.c ****         {
 757:../Sources/drivers/sai/sai.c ****             I2S_TDR_REG(I2S0_BASE_PTR, channel) = txdata;
 2118              		.loc 1 757 0
 2119 0016 4FF47043 		mov	r3, #61440
 2120 001a C4F20203 		movt	r3, 16386
 2121 001e BA79     		ldrb	r2, [r7, #6]	@ zero_extendqisi2
 2122 0020 02F10802 		add	r2, r2, #8
 2123 0024 3968     		ldr	r1, [r7, #0]
 2124 0026 43F82210 		str	r1, [r3, r2, lsl #2]
 2125              	.L98:
 758:../Sources/drivers/sai/sai.c ****         }
 759:../Sources/drivers/sai/sai.c ****     else if(port == 1)
 760:../Sources/drivers/sai/sai.c ****         {
 761:../Sources/drivers/sai/sai.c ****         }
 762:../Sources/drivers/sai/sai.c **** }
 2126              		.loc 1 762 0
 2127 002a 07F10C07 		add	r7, r7, #12
 2128 002e BD46     		mov	sp, r7
 2129 0030 80BC     		pop	{r7}
 2130 0032 7047     		bx	lr
 2131              		.cfi_endproc
 2132              	.LFE150:
 2134              		.section	.text.sai_rx,"ax",%progbits
 2135              		.align	2
 2136              		.global	sai_rx
 2137              		.thumb
 2138              		.thumb_func
 2140              	sai_rx:
 2141              	.LFB151:
 763:../Sources/drivers/sai/sai.c **** 
 764:../Sources/drivers/sai/sai.c **** /* */
 765:../Sources/drivers/sai/sai.c **** 
 766:../Sources/drivers/sai/sai.c **** unsigned char sai_rx
 767:../Sources/drivers/sai/sai.c **** (
 768:../Sources/drivers/sai/sai.c ****     unsigned char   port,
 769:../Sources/drivers/sai/sai.c ****     unsigned char   channel,
 770:../Sources/drivers/sai/sai.c ****     unsigned int    *rxdata
 771:../Sources/drivers/sai/sai.c **** )
 772:../Sources/drivers/sai/sai.c **** {
 2142              		.loc 1 772 0
 2143              		.cfi_startproc
 2144              		@ args = 0, pretend = 0, frame = 8
 2145              		@ frame_needed = 1, uses_anonymous_args = 0
 2146 0000 80B5     		push	{r7, lr}
 2147              	.LCFI69:
 2148              		.cfi_def_cfa_offset 8
 2149              		.cfi_offset 7, -8
 2150              		.cfi_offset 14, -4
 2151 0002 82B0     		sub	sp, sp, #8
 2152              	.LCFI70:
 2153              		.cfi_def_cfa_offset 16
 2154 0004 00AF     		add	r7, sp, #0
 2155              	.LCFI71:
 2156              		.cfi_def_cfa_register 7
 2157 0006 0B46     		mov	r3, r1
 2158 0008 3A60     		str	r2, [r7, #0]
 2159 000a 0246     		mov	r2, r0
 2160 000c FA71     		strb	r2, [r7, #7]
 2161 000e BB71     		strb	r3, [r7, #6]
 773:../Sources/drivers/sai/sai.c ****     if(sai_rx_fifo_status(port, channel) == FIFO_EMPTY)
 2162              		.loc 1 773 0
 2163 0010 FA79     		ldrb	r2, [r7, #7]	@ zero_extendqisi2
 2164 0012 BB79     		ldrb	r3, [r7, #6]	@ zero_extendqisi2
 2165 0014 1046     		mov	r0, r2
 2166 0016 1946     		mov	r1, r3
 2167 0018 FFF7FEFF 		bl	sai_rx_fifo_status
 2168 001c 0346     		mov	r3, r0
 2169 001e 002B     		cmp	r3, #0
 2170 0020 02D1     		bne	.L101
 774:../Sources/drivers/sai/sai.c ****         {
 775:../Sources/drivers/sai/sai.c ****             return ERROR;
 2171              		.loc 1 775 0
 2172 0022 4FF0FF03 		mov	r3, #255
 2173 0026 0FE0     		b	.L102
 2174              	.L101:
 776:../Sources/drivers/sai/sai.c ****         }
 777:../Sources/drivers/sai/sai.c **** 
 778:../Sources/drivers/sai/sai.c ****     if(port == 0)
 2175              		.loc 1 778 0
 2176 0028 FB79     		ldrb	r3, [r7, #7]	@ zero_extendqisi2
 2177 002a 002B     		cmp	r3, #0
 2178 002c 0AD1     		bne	.L103
 779:../Sources/drivers/sai/sai.c ****         {
 780:../Sources/drivers/sai/sai.c ****             *rxdata = I2S_RDR_REG(I2S0_BASE_PTR, channel);
 2179              		.loc 1 780 0
 2180 002e 4FF47043 		mov	r3, #61440
 2181 0032 C4F20203 		movt	r3, 16386
 2182 0036 BA79     		ldrb	r2, [r7, #6]	@ zero_extendqisi2
 2183 0038 02F12802 		add	r2, r2, #40
 2184 003c 53F82220 		ldr	r2, [r3, r2, lsl #2]
 2185 0040 3B68     		ldr	r3, [r7, #0]
 2186 0042 1A60     		str	r2, [r3, #0]
 2187              	.L103:
 781:../Sources/drivers/sai/sai.c ****         }
 782:../Sources/drivers/sai/sai.c ****     else if(port == 1)
 783:../Sources/drivers/sai/sai.c ****         {
 784:../Sources/drivers/sai/sai.c ****         }
 785:../Sources/drivers/sai/sai.c **** 
 786:../Sources/drivers/sai/sai.c ****     return OK;
 2188              		.loc 1 786 0
 2189 0044 4FF00003 		mov	r3, #0
 2190              	.L102:
 787:../Sources/drivers/sai/sai.c **** }
 2191              		.loc 1 787 0
 2192 0048 1846     		mov	r0, r3
 2193 004a 07F10807 		add	r7, r7, #8
 2194 004e BD46     		mov	sp, r7
 2195 0050 80BD     		pop	{r7, pc}
 2196              		.cfi_endproc
 2197              	.LFE151:
 2199 0052 00BF     		.section	.text.sai_rd_rdr,"ax",%progbits
 2200              		.align	2
 2201              		.global	sai_rd_rdr
 2202              		.thumb
 2203              		.thumb_func
 2205              	sai_rd_rdr:
 2206              	.LFB152:
 788:../Sources/drivers/sai/sai.c **** 
 789:../Sources/drivers/sai/sai.c **** /* direct read from rdr, no checking on whether FIFO is empty or not */
 790:../Sources/drivers/sai/sai.c **** 
 791:../Sources/drivers/sai/sai.c **** void sai_rd_rdr
 792:../Sources/drivers/sai/sai.c **** (
 793:../Sources/drivers/sai/sai.c ****     unsigned char   port,
 794:../Sources/drivers/sai/sai.c ****     unsigned char   channel,
 795:../Sources/drivers/sai/sai.c ****     unsigned int    *rxdata
 796:../Sources/drivers/sai/sai.c **** )
 797:../Sources/drivers/sai/sai.c **** {
 2207              		.loc 1 797 0
 2208              		.cfi_startproc
 2209              		@ args = 0, pretend = 0, frame = 8
 2210              		@ frame_needed = 1, uses_anonymous_args = 0
 2211              		@ link register save eliminated.
 2212 0000 80B4     		push	{r7}
 2213              	.LCFI72:
 2214              		.cfi_def_cfa_offset 4
 2215              		.cfi_offset 7, -4
 2216 0002 83B0     		sub	sp, sp, #12
 2217              	.LCFI73:
 2218              		.cfi_def_cfa_offset 16
 2219 0004 00AF     		add	r7, sp, #0
 2220              	.LCFI74:
 2221              		.cfi_def_cfa_register 7
 2222 0006 0B46     		mov	r3, r1
 2223 0008 3A60     		str	r2, [r7, #0]
 2224 000a 0246     		mov	r2, r0
 2225 000c FA71     		strb	r2, [r7, #7]
 2226 000e BB71     		strb	r3, [r7, #6]
 798:../Sources/drivers/sai/sai.c ****     if(port == 0)
 2227              		.loc 1 798 0
 2228 0010 FB79     		ldrb	r3, [r7, #7]	@ zero_extendqisi2
 2229 0012 002B     		cmp	r3, #0
 2230 0014 0AD1     		bne	.L104
 799:../Sources/drivers/sai/sai.c ****         {
 800:../Sources/drivers/sai/sai.c ****             *rxdata = I2S_RDR_REG(I2S0_BASE_PTR, channel);
 2231              		.loc 1 800 0
 2232 0016 4FF47043 		mov	r3, #61440
 2233 001a C4F20203 		movt	r3, 16386
 2234 001e BA79     		ldrb	r2, [r7, #6]	@ zero_extendqisi2
 2235 0020 02F12802 		add	r2, r2, #40
 2236 0024 53F82220 		ldr	r2, [r3, r2, lsl #2]
 2237 0028 3B68     		ldr	r3, [r7, #0]
 2238 002a 1A60     		str	r2, [r3, #0]
 2239              	.L104:
 801:../Sources/drivers/sai/sai.c ****         }
 802:../Sources/drivers/sai/sai.c ****     else if(port == 1)
 803:../Sources/drivers/sai/sai.c ****         {
 804:../Sources/drivers/sai/sai.c ****         }
 805:../Sources/drivers/sai/sai.c **** }
 2240              		.loc 1 805 0
 2241 002c 07F10C07 		add	r7, r7, #12
 2242 0030 BD46     		mov	sp, r7
 2243 0032 80BC     		pop	{r7}
 2244 0034 7047     		bx	lr
 2245              		.cfi_endproc
 2246              	.LFE152:
 2248 0036 00BF     		.section	.text.sai_tx_fifo_status,"ax",%progbits
 2249              		.align	2
 2250              		.global	sai_tx_fifo_status
 2251              		.thumb
 2252              		.thumb_func
 2254              	sai_tx_fifo_status:
 2255              	.LFB153:
 806:../Sources/drivers/sai/sai.c **** 
 807:../Sources/drivers/sai/sai.c **** /* */
 808:../Sources/drivers/sai/sai.c **** 
 809:../Sources/drivers/sai/sai.c **** unsigned char sai_tx_fifo_status
 810:../Sources/drivers/sai/sai.c **** (
 811:../Sources/drivers/sai/sai.c ****     unsigned char   port,
 812:../Sources/drivers/sai/sai.c ****     unsigned char   channel
 813:../Sources/drivers/sai/sai.c **** )
 814:../Sources/drivers/sai/sai.c **** {
 2256              		.loc 1 814 0
 2257              		.cfi_startproc
 2258              		@ args = 0, pretend = 0, frame = 16
 2259              		@ frame_needed = 1, uses_anonymous_args = 0
 2260              		@ link register save eliminated.
 2261 0000 80B4     		push	{r7}
 2262              	.LCFI75:
 2263              		.cfi_def_cfa_offset 4
 2264              		.cfi_offset 7, -4
 2265 0002 85B0     		sub	sp, sp, #20
 2266              	.LCFI76:
 2267              		.cfi_def_cfa_offset 24
 2268 0004 00AF     		add	r7, sp, #0
 2269              	.LCFI77:
 2270              		.cfi_def_cfa_register 7
 2271 0006 0246     		mov	r2, r0
 2272 0008 0B46     		mov	r3, r1
 2273 000a FA71     		strb	r2, [r7, #7]
 2274 000c BB71     		strb	r3, [r7, #6]
 815:../Sources/drivers/sai/sai.c ****     /*~~~~~~~~~~~~~~~~~~~~~~~~*/
 816:../Sources/drivers/sai/sai.c ****     /*~~~~~~~~~~~~~~~~~~~~~~~~*/
 817:../Sources/drivers/sai/sai.c ****     /*~~~~~~~~~~~~~~~~~~~~~~~~*/
 818:../Sources/drivers/sai/sai.c ****     /*~~~~~~~~~~~~~~~~~~~~~~~~*/
 819:../Sources/drivers/sai/sai.c ****     /*~~~~~~~~~~~~~~~~~~~~~~~~*/
 820:../Sources/drivers/sai/sai.c ****     /*~~~~~~~~~~~~~~~~~~~~~~~~*/
 821:../Sources/drivers/sai/sai.c ****     unsigned char   wr_fp = 0;  //write FIFO pointer
 2275              		.loc 1 821 0
 2276 000e 4FF00003 		mov	r3, #0
 2277 0012 FB73     		strb	r3, [r7, #15]
 822:../Sources/drivers/sai/sai.c ****     unsigned char   rd_fp = 0;  //read FIFO pointer
 2278              		.loc 1 822 0
 2279 0014 4FF00003 		mov	r3, #0
 2280 0018 BB73     		strb	r3, [r7, #14]
 823:../Sources/drivers/sai/sai.c **** 
 824:../Sources/drivers/sai/sai.c ****     /*~~~~~~~~~~~~~~~~~~~~~~~~*/
 825:../Sources/drivers/sai/sai.c **** 
 826:../Sources/drivers/sai/sai.c ****     /*~~~~~~~~~~~~~~~~~~~~~~~~*/
 827:../Sources/drivers/sai/sai.c **** 
 828:../Sources/drivers/sai/sai.c ****     /*~~~~~~~~~~~~~~~~~~~~~~~~*/
 829:../Sources/drivers/sai/sai.c **** 
 830:../Sources/drivers/sai/sai.c ****     /*~~~~~~~~~~~~~~~~~~~~~~~~*/
 831:../Sources/drivers/sai/sai.c **** 
 832:../Sources/drivers/sai/sai.c ****     /*~~~~~~~~~~~~~~~~~~~~~~~~*/
 833:../Sources/drivers/sai/sai.c **** 
 834:../Sources/drivers/sai/sai.c ****     /*~~~~~~~~~~~~~~~~~~~~~~~~*/
 835:../Sources/drivers/sai/sai.c **** 
 836:../Sources/drivers/sai/sai.c ****     if(port == 0)
 2281              		.loc 1 836 0
 2282 001a FB79     		ldrb	r3, [r7, #7]	@ zero_extendqisi2
 2283 001c 002B     		cmp	r3, #0
 2284 001e 2BD1     		bne	.L107
 837:../Sources/drivers/sai/sai.c ****         {
 838:../Sources/drivers/sai/sai.c ****             wr_fp = (I2S_TFR_REG(I2S0_BASE_PTR, channel) & I2S_TFR_WFP_MASK) >> I2S_TFR_WFP_SHIFT;
 2285              		.loc 1 838 0
 2286 0020 4FF47043 		mov	r3, #61440
 2287 0024 C4F20203 		movt	r3, 16386
 2288 0028 BA79     		ldrb	r2, [r7, #6]	@ zero_extendqisi2
 2289 002a 02F11002 		add	r2, r2, #16
 2290 002e 53F82230 		ldr	r3, [r3, r2, lsl #2]
 2291 0032 03F47023 		and	r3, r3, #983040
 2292 0036 4FEA1343 		lsr	r3, r3, #16
 2293 003a FB73     		strb	r3, [r7, #15]
 839:../Sources/drivers/sai/sai.c ****             rd_fp = (I2S_TFR_REG(I2S0_BASE_PTR, channel) & I2S_TFR_RFP_MASK) >> I2S_TFR_RFP_SHIFT;
 2294              		.loc 1 839 0
 2295 003c 4FF47043 		mov	r3, #61440
 2296 0040 C4F20203 		movt	r3, 16386
 2297 0044 BA79     		ldrb	r2, [r7, #6]	@ zero_extendqisi2
 2298 0046 02F11002 		add	r2, r2, #16
 2299 004a 53F82230 		ldr	r3, [r3, r2, lsl #2]
 2300 004e DBB2     		uxtb	r3, r3
 2301 0050 03F00F03 		and	r3, r3, #15
 2302 0054 BB73     		strb	r3, [r7, #14]
 840:../Sources/drivers/sai/sai.c **** 
 841:../Sources/drivers/sai/sai.c ****             if(wr_fp == rd_fp)
 2303              		.loc 1 841 0
 2304 0056 FA7B     		ldrb	r2, [r7, #15]	@ zero_extendqisi2
 2305 0058 BB7B     		ldrb	r3, [r7, #14]	@ zero_extendqisi2
 2306 005a 9A42     		cmp	r2, r3
 2307 005c 02D1     		bne	.L108
 842:../Sources/drivers/sai/sai.c ****                 return FIFO_EMPTY;
 2308              		.loc 1 842 0
 2309 005e 4FF00003 		mov	r3, #0
 2310 0062 0BE0     		b	.L109
 2311              	.L108:
 843:../Sources/drivers/sai/sai.c ****             else if((wr_fp & 0x08) != (rd_fp & 0x08))
 2312              		.loc 1 843 0
 2313 0064 FA7B     		ldrb	r2, [r7, #15]	@ zero_extendqisi2
 2314 0066 BB7B     		ldrb	r3, [r7, #14]	@ zero_extendqisi2
 2315 0068 5340     		eors	r3, r3, r2
 2316 006a 03F00803 		and	r3, r3, #8
 2317 006e 002B     		cmp	r3, #0
 2318 0070 02D0     		beq	.L107
 844:../Sources/drivers/sai/sai.c ****                 return FIFO_FULL;
 2319              		.loc 1 844 0
 2320 0072 4FF00103 		mov	r3, #1
 2321 0076 01E0     		b	.L109
 2322              	.L107:
 845:../Sources/drivers/sai/sai.c ****         }
 846:../Sources/drivers/sai/sai.c ****     else if(port == 1)
 847:../Sources/drivers/sai/sai.c ****         {
 848:../Sources/drivers/sai/sai.c ****         }
 849:../Sources/drivers/sai/sai.c **** 
 850:../Sources/drivers/sai/sai.c ****     return ERROR;
 2323              		.loc 1 850 0
 2324 0078 4FF0FF03 		mov	r3, #255
 2325              	.L109:
 851:../Sources/drivers/sai/sai.c **** }
 2326              		.loc 1 851 0
 2327 007c 1846     		mov	r0, r3
 2328 007e 07F11407 		add	r7, r7, #20
 2329 0082 BD46     		mov	sp, r7
 2330 0084 80BC     		pop	{r7}
 2331 0086 7047     		bx	lr
 2332              		.cfi_endproc
 2333              	.LFE153:
 2335              		.section	.text.sai_rx_fifo_status,"ax",%progbits
 2336              		.align	2
 2337              		.global	sai_rx_fifo_status
 2338              		.thumb
 2339              		.thumb_func
 2341              	sai_rx_fifo_status:
 2342              	.LFB154:
 852:../Sources/drivers/sai/sai.c **** 
 853:../Sources/drivers/sai/sai.c **** /* */
 854:../Sources/drivers/sai/sai.c **** 
 855:../Sources/drivers/sai/sai.c **** unsigned char sai_rx_fifo_status
 856:../Sources/drivers/sai/sai.c **** (
 857:../Sources/drivers/sai/sai.c ****     unsigned char   port,
 858:../Sources/drivers/sai/sai.c ****     unsigned char   channel
 859:../Sources/drivers/sai/sai.c **** )
 860:../Sources/drivers/sai/sai.c **** {
 2343              		.loc 1 860 0
 2344              		.cfi_startproc
 2345              		@ args = 0, pretend = 0, frame = 16
 2346              		@ frame_needed = 1, uses_anonymous_args = 0
 2347              		@ link register save eliminated.
 2348 0000 80B4     		push	{r7}
 2349              	.LCFI78:
 2350              		.cfi_def_cfa_offset 4
 2351              		.cfi_offset 7, -4
 2352 0002 85B0     		sub	sp, sp, #20
 2353              	.LCFI79:
 2354              		.cfi_def_cfa_offset 24
 2355 0004 00AF     		add	r7, sp, #0
 2356              	.LCFI80:
 2357              		.cfi_def_cfa_register 7
 2358 0006 0246     		mov	r2, r0
 2359 0008 0B46     		mov	r3, r1
 2360 000a FA71     		strb	r2, [r7, #7]
 2361 000c BB71     		strb	r3, [r7, #6]
 861:../Sources/drivers/sai/sai.c ****     /*~~~~~~~~~~~~~~~~~~~~~~~~*/
 862:../Sources/drivers/sai/sai.c ****     /*~~~~~~~~~~~~~~~~~~~~~~~~*/
 863:../Sources/drivers/sai/sai.c ****     /*~~~~~~~~~~~~~~~~~~~~~~~~*/
 864:../Sources/drivers/sai/sai.c ****     /*~~~~~~~~~~~~~~~~~~~~~~~~*/
 865:../Sources/drivers/sai/sai.c ****     /*~~~~~~~~~~~~~~~~~~~~~~~~*/
 866:../Sources/drivers/sai/sai.c ****     /*~~~~~~~~~~~~~~~~~~~~~~~~*/
 867:../Sources/drivers/sai/sai.c ****     unsigned char   wr_fp = 0;  //write FIFO pointer
 2362              		.loc 1 867 0
 2363 000e 4FF00003 		mov	r3, #0
 2364 0012 FB73     		strb	r3, [r7, #15]
 868:../Sources/drivers/sai/sai.c ****     unsigned char   rd_fp = 0;  //read FIFO pointer
 2365              		.loc 1 868 0
 2366 0014 4FF00003 		mov	r3, #0
 2367 0018 BB73     		strb	r3, [r7, #14]
 869:../Sources/drivers/sai/sai.c **** 
 870:../Sources/drivers/sai/sai.c ****     /*~~~~~~~~~~~~~~~~~~~~~~~~*/
 871:../Sources/drivers/sai/sai.c **** 
 872:../Sources/drivers/sai/sai.c ****     /*~~~~~~~~~~~~~~~~~~~~~~~~*/
 873:../Sources/drivers/sai/sai.c **** 
 874:../Sources/drivers/sai/sai.c ****     /*~~~~~~~~~~~~~~~~~~~~~~~~*/
 875:../Sources/drivers/sai/sai.c **** 
 876:../Sources/drivers/sai/sai.c ****     /*~~~~~~~~~~~~~~~~~~~~~~~~*/
 877:../Sources/drivers/sai/sai.c **** 
 878:../Sources/drivers/sai/sai.c ****     /*~~~~~~~~~~~~~~~~~~~~~~~~*/
 879:../Sources/drivers/sai/sai.c **** 
 880:../Sources/drivers/sai/sai.c ****     /*~~~~~~~~~~~~~~~~~~~~~~~~*/
 881:../Sources/drivers/sai/sai.c **** 
 882:../Sources/drivers/sai/sai.c ****     if(port == 0)
 2368              		.loc 1 882 0
 2369 001a FB79     		ldrb	r3, [r7, #7]	@ zero_extendqisi2
 2370 001c 002B     		cmp	r3, #0
 2371 001e 2BD1     		bne	.L111
 883:../Sources/drivers/sai/sai.c ****         {
 884:../Sources/drivers/sai/sai.c ****             wr_fp = (I2S_RFR_REG(I2S0_BASE_PTR, channel) & I2S_RFR_WFP_MASK) >> I2S_RFR_WFP_SHIFT;
 2372              		.loc 1 884 0
 2373 0020 4FF47043 		mov	r3, #61440
 2374 0024 C4F20203 		movt	r3, 16386
 2375 0028 BA79     		ldrb	r2, [r7, #6]	@ zero_extendqisi2
 2376 002a 02F13002 		add	r2, r2, #48
 2377 002e 53F82230 		ldr	r3, [r3, r2, lsl #2]
 2378 0032 03F47023 		and	r3, r3, #983040
 2379 0036 4FEA1343 		lsr	r3, r3, #16
 2380 003a FB73     		strb	r3, [r7, #15]
 885:../Sources/drivers/sai/sai.c ****             rd_fp = (I2S_RFR_REG(I2S0_BASE_PTR, channel) & I2S_RFR_RFP_MASK) >> I2S_RFR_RFP_SHIFT;
 2381              		.loc 1 885 0
 2382 003c 4FF47043 		mov	r3, #61440
 2383 0040 C4F20203 		movt	r3, 16386
 2384 0044 BA79     		ldrb	r2, [r7, #6]	@ zero_extendqisi2
 2385 0046 02F13002 		add	r2, r2, #48
 2386 004a 53F82230 		ldr	r3, [r3, r2, lsl #2]
 2387 004e DBB2     		uxtb	r3, r3
 2388 0050 03F00F03 		and	r3, r3, #15
 2389 0054 BB73     		strb	r3, [r7, #14]
 886:../Sources/drivers/sai/sai.c **** 
 887:../Sources/drivers/sai/sai.c ****             if(wr_fp == rd_fp)
 2390              		.loc 1 887 0
 2391 0056 FA7B     		ldrb	r2, [r7, #15]	@ zero_extendqisi2
 2392 0058 BB7B     		ldrb	r3, [r7, #14]	@ zero_extendqisi2
 2393 005a 9A42     		cmp	r2, r3
 2394 005c 02D1     		bne	.L112
 888:../Sources/drivers/sai/sai.c ****                 return FIFO_EMPTY;
 2395              		.loc 1 888 0
 2396 005e 4FF00003 		mov	r3, #0
 2397 0062 0BE0     		b	.L113
 2398              	.L112:
 889:../Sources/drivers/sai/sai.c ****             else if((wr_fp & 0x08) != (rd_fp & 0x08))
 2399              		.loc 1 889 0
 2400 0064 FA7B     		ldrb	r2, [r7, #15]	@ zero_extendqisi2
 2401 0066 BB7B     		ldrb	r3, [r7, #14]	@ zero_extendqisi2
 2402 0068 5340     		eors	r3, r3, r2
 2403 006a 03F00803 		and	r3, r3, #8
 2404 006e 002B     		cmp	r3, #0
 2405 0070 02D0     		beq	.L111
 890:../Sources/drivers/sai/sai.c ****                 return FIFO_FULL;
 2406              		.loc 1 890 0
 2407 0072 4FF00103 		mov	r3, #1
 2408 0076 01E0     		b	.L113
 2409              	.L111:
 891:../Sources/drivers/sai/sai.c ****         }
 892:../Sources/drivers/sai/sai.c ****     else if(port == 1)
 893:../Sources/drivers/sai/sai.c ****         {
 894:../Sources/drivers/sai/sai.c ****         }
 895:../Sources/drivers/sai/sai.c **** 
 896:../Sources/drivers/sai/sai.c ****     return ERROR;
 2410              		.loc 1 896 0
 2411 0078 4FF0FF03 		mov	r3, #255
 2412              	.L113:
 897:../Sources/drivers/sai/sai.c **** }
 2413              		.loc 1 897 0
 2414 007c 1846     		mov	r0, r3
 2415 007e 07F11407 		add	r7, r7, #20
 2416 0082 BD46     		mov	sp, r7
 2417 0084 80BC     		pop	{r7}
 2418 0086 7047     		bx	lr
 2419              		.cfi_endproc
 2420              	.LFE154:
 2422              		.section	.text.sai_mask_config,"ax",%progbits
 2423              		.align	2
 2424              		.global	sai_mask_config
 2425              		.thumb
 2426              		.thumb_func
 2428              	sai_mask_config:
 2429              	.LFB155:
 898:../Sources/drivers/sai/sai.c **** 
 899:../Sources/drivers/sai/sai.c **** /*
 900:../Sources/drivers/sai/sai.c **** *	Input parameter
 901:../Sources/drivers/sai/sai.c **** *	port:		SAI module used
 902:../Sources/drivers/sai/sai.c **** *	tx:		transmit or receive
 903:../Sources/drivers/sai/sai.c **** *	mask:		mask for each word in frame, if any bit in mask is set, then that word is tristated
 904:../Sources/drivers/sai/sai.c **** */
 905:../Sources/drivers/sai/sai.c **** 
 906:../Sources/drivers/sai/sai.c **** void sai_mask_config
 907:../Sources/drivers/sai/sai.c **** (
 908:../Sources/drivers/sai/sai.c ****     unsigned char   port,
 909:../Sources/drivers/sai/sai.c ****     unsigned char   tx,
 910:../Sources/drivers/sai/sai.c ****     unsigned int    mask
 911:../Sources/drivers/sai/sai.c **** )
 912:../Sources/drivers/sai/sai.c **** {
 2430              		.loc 1 912 0
 2431              		.cfi_startproc
 2432              		@ args = 0, pretend = 0, frame = 8
 2433              		@ frame_needed = 1, uses_anonymous_args = 0
 2434              		@ link register save eliminated.
 2435 0000 80B4     		push	{r7}
 2436              	.LCFI81:
 2437              		.cfi_def_cfa_offset 4
 2438              		.cfi_offset 7, -4
 2439 0002 83B0     		sub	sp, sp, #12
 2440              	.LCFI82:
 2441              		.cfi_def_cfa_offset 16
 2442 0004 00AF     		add	r7, sp, #0
 2443              	.LCFI83:
 2444              		.cfi_def_cfa_register 7
 2445 0006 0B46     		mov	r3, r1
 2446 0008 3A60     		str	r2, [r7, #0]
 2447 000a 0246     		mov	r2, r0
 2448 000c FA71     		strb	r2, [r7, #7]
 2449 000e BB71     		strb	r3, [r7, #6]
 913:../Sources/drivers/sai/sai.c ****     if(port == 0)
 2450              		.loc 1 913 0
 2451 0010 FB79     		ldrb	r3, [r7, #7]	@ zero_extendqisi2
 2452 0012 002B     		cmp	r3, #0
 2453 0014 10D1     		bne	.L114
 914:../Sources/drivers/sai/sai.c ****         {
 915:../Sources/drivers/sai/sai.c ****             if(tx) I2S_TMR_REG(I2S0_BASE_PTR) = mask;   //tx word mask
 2454              		.loc 1 915 0
 2455 0016 BB79     		ldrb	r3, [r7, #6]	@ zero_extendqisi2
 2456 0018 002B     		cmp	r3, #0
 2457 001a 06D0     		beq	.L116
 2458              		.loc 1 915 0 is_stmt 0
 2459 001c 4FF47043 		mov	r3, #61440
 2460 0020 C4F20203 		movt	r3, 16386
 2461 0024 3A68     		ldr	r2, [r7, #0]
 2462 0026 1A66     		str	r2, [r3, #96]
 2463 0028 06E0     		b	.L114
 2464              	.L116:
 916:../Sources/drivers/sai/sai.c ****             else
 917:../Sources/drivers/sai/sai.c ****                 I2S_RMR_REG(I2S0_BASE_PTR) = mask;      //rx word mask
 2465              		.loc 1 917 0 is_stmt 1
 2466 002a 4FF47043 		mov	r3, #61440
 2467 002e C4F20203 		movt	r3, 16386
 2468 0032 3A68     		ldr	r2, [r7, #0]
 2469 0034 C3F8E020 		str	r2, [r3, #224]
 2470              	.L114:
 918:../Sources/drivers/sai/sai.c ****         }
 919:../Sources/drivers/sai/sai.c ****     else if(port == 1)
 920:../Sources/drivers/sai/sai.c ****         {
 921:../Sources/drivers/sai/sai.c ****         }
 922:../Sources/drivers/sai/sai.c **** }
 2471              		.loc 1 922 0
 2472 0038 07F10C07 		add	r7, r7, #12
 2473 003c BD46     		mov	sp, r7
 2474 003e 80BC     		pop	{r7}
 2475 0040 7047     		bx	lr
 2476              		.cfi_endproc
 2477              	.LFE155:
 2479 0042 00BF     		.section	.text.sai_mclk_config,"ax",%progbits
 2480              		.align	2
 2481              		.global	sai_mclk_config
 2482              		.thumb
 2483              		.thumb_func
 2485              	sai_mclk_config:
 2486              	.LFB156:
 923:../Sources/drivers/sai/sai.c **** 
 924:../Sources/drivers/sai/sai.c **** /* */
 925:../Sources/drivers/sai/sai.c **** 
 926:../Sources/drivers/sai/sai.c **** void sai_mclk_config
 927:../Sources/drivers/sai/sai.c **** (
 928:../Sources/drivers/sai/sai.c ****     unsigned char   port,
 929:../Sources/drivers/sai/sai.c ****     unsigned char   mics,
 930:../Sources/drivers/sai/sai.c ****     unsigned char   moe,
 931:../Sources/drivers/sai/sai.c ****     unsigned char   fract,
 932:../Sources/drivers/sai/sai.c ****     uint32_t        divide
 933:../Sources/drivers/sai/sai.c **** )
 934:../Sources/drivers/sai/sai.c **** {
 2487              		.loc 1 934 0
 2488              		.cfi_startproc
 2489              		@ args = 4, pretend = 0, frame = 8
 2490              		@ frame_needed = 1, uses_anonymous_args = 0
 2491              		@ link register save eliminated.
 2492 0000 80B4     		push	{r7}
 2493              	.LCFI84:
 2494              		.cfi_def_cfa_offset 4
 2495              		.cfi_offset 7, -4
 2496 0002 83B0     		sub	sp, sp, #12
 2497              	.LCFI85:
 2498              		.cfi_def_cfa_offset 16
 2499 0004 00AF     		add	r7, sp, #0
 2500              	.LCFI86:
 2501              		.cfi_def_cfa_register 7
 2502 0006 F871     		strb	r0, [r7, #7]
 2503 0008 B971     		strb	r1, [r7, #6]
 2504 000a 7A71     		strb	r2, [r7, #5]
 2505 000c 3B71     		strb	r3, [r7, #4]
 935:../Sources/drivers/sai/sai.c ****     if(port == 0)
 2506              		.loc 1 935 0
 2507 000e FB79     		ldrb	r3, [r7, #7]	@ zero_extendqisi2
 2508 0010 002B     		cmp	r3, #0
 2509 0012 40F0A780 		bne	.L117
 936:../Sources/drivers/sai/sai.c ****         {
 937:../Sources/drivers/sai/sai.c ****             /*
 938:../Sources/drivers/sai/sai.c ****                                                             *	MICS		MCLK divider input clock
 939:../Sources/drivers/sai/sai.c ****                                                             *	00		system clock
 940:../Sources/drivers/sai/sai.c ****                                                             *	01		OSC0ERCLK
 941:../Sources/drivers/sai/sai.c ****                                                             *	10		OSC1ERCLK
 942:../Sources/drivers/sai/sai.c ****                                                             *	11		MCGPLLCLK
 943:../Sources/drivers/sai/sai.c ****                                                                     *	100		MCGFLLCLK
 944:../Sources/drivers/sai/sai.c ****                                                             */
 945:../Sources/drivers/sai/sai.c ****             I2S_MCR_REG(I2S0_BASE_PTR) &= ~I2S_MCR_MICS_MASK;
 2510              		.loc 1 945 0
 2511 0016 4FF47043 		mov	r3, #61440
 2512 001a C4F20203 		movt	r3, 16386
 2513 001e 4FF47042 		mov	r2, #61440
 2514 0022 C4F20202 		movt	r2, 16386
 2515 0026 D2F80021 		ldr	r2, [r2, #256]
 2516 002a 22F04072 		bic	r2, r2, #50331648
 2517 002e C3F80021 		str	r2, [r3, #256]
 946:../Sources/drivers/sai/sai.c **** 
 947:../Sources/drivers/sai/sai.c ****             if(mics == MCGPLLCLK) SIM_SOPT2 |= SIM_SOPT2_PLLFLLSEL_MASK;    //MCGPLLCLK is selected
 2518              		.loc 1 947 0
 2519 0032 BB79     		ldrb	r3, [r7, #6]	@ zero_extendqisi2
 2520 0034 032B     		cmp	r3, #3
 2521 0036 13D1     		bne	.L119
 2522              		.loc 1 947 0 is_stmt 0
 2523 0038 4FF4E043 		mov	r3, #28672
 2524 003c C4F20403 		movt	r3, 16388
 2525 0040 4FF4E042 		mov	r2, #28672
 2526 0044 C4F20402 		movt	r2, 16388
 2527 0048 02F58052 		add	r2, r2, #4096
 2528 004c 02F10402 		add	r2, r2, #4
 2529 0050 1268     		ldr	r2, [r2, #0]
 2530 0052 42F48032 		orr	r2, r2, #65536
 2531 0056 03F58053 		add	r3, r3, #4096
 2532 005a 03F10403 		add	r3, r3, #4
 2533 005e 1A60     		str	r2, [r3, #0]
 2534              	.L119:
 948:../Sources/drivers/sai/sai.c **** 
 949:../Sources/drivers/sai/sai.c ****             if(mics == MCGFLLCLK)
 2535              		.loc 1 949 0 is_stmt 1
 2536 0060 BB79     		ldrb	r3, [r7, #6]	@ zero_extendqisi2
 2537 0062 042B     		cmp	r3, #4
 2538 0064 16D1     		bne	.L120
 950:../Sources/drivers/sai/sai.c ****                 {
 951:../Sources/drivers/sai/sai.c ****                     SIM_SOPT2 &= ~SIM_SOPT2_PLLFLLSEL_MASK;                     //MCGFLLCLK is sele
 2539              		.loc 1 951 0
 2540 0066 4FF4E043 		mov	r3, #28672
 2541 006a C4F20403 		movt	r3, 16388
 2542 006e 4FF4E042 		mov	r2, #28672
 2543 0072 C4F20402 		movt	r2, 16388
 2544 0076 02F58052 		add	r2, r2, #4096
 2545 007a 02F10402 		add	r2, r2, #4
 2546 007e 1268     		ldr	r2, [r2, #0]
 2547 0080 22F48032 		bic	r2, r2, #65536
 2548 0084 03F58053 		add	r3, r3, #4096
 2549 0088 03F10403 		add	r3, r3, #4
 2550 008c 1A60     		str	r2, [r3, #0]
 952:../Sources/drivers/sai/sai.c ****                     mics = MCGPLLCLK;
 2551              		.loc 1 952 0
 2552 008e 4FF00303 		mov	r3, #3
 2553 0092 BB71     		strb	r3, [r7, #6]
 2554              	.L120:
 953:../Sources/drivers/sai/sai.c ****                 }
 954:../Sources/drivers/sai/sai.c **** 
 955:../Sources/drivers/sai/sai.c ****             I2S_MCR_REG(I2S0_BASE_PTR) |= I2S_MCR_MICS(mics);               //MCLK divider input cl
 2555              		.loc 1 955 0
 2556 0094 4FF47043 		mov	r3, #61440
 2557 0098 C4F20203 		movt	r3, 16386
 2558 009c 4FF47042 		mov	r2, #61440
 2559 00a0 C4F20202 		movt	r2, 16386
 2560 00a4 D2F80011 		ldr	r1, [r2, #256]
 2561 00a8 BA79     		ldrb	r2, [r7, #6]	@ zero_extendqisi2
 2562 00aa 4FEA0262 		lsl	r2, r2, #24
 2563 00ae 02F04072 		and	r2, r2, #50331648
 2564 00b2 0A43     		orrs	r2, r2, r1
 2565 00b4 C3F80021 		str	r2, [r3, #256]
 956:../Sources/drivers/sai/sai.c ****             /*
 957:../Sources/drivers/sai/sai.c ****                                                             *	MCLK output = MCLK input * ((FRACT+1)
 958:../Sources/drivers/sai/sai.c ****                                                             */
 959:../Sources/drivers/sai/sai.c ****             I2S_MDR_REG(I2S0_BASE_PTR) &= ~I2S_MDR_FRACT_MASK;
 2566              		.loc 1 959 0
 2567 00b8 4FF47043 		mov	r3, #61440
 2568 00bc C4F20203 		movt	r3, 16386
 2569 00c0 4FF47042 		mov	r2, #61440
 2570 00c4 C4F20202 		movt	r2, 16386
 2571 00c8 D2F80421 		ldr	r2, [r2, #260]
 2572 00cc 22F47F22 		bic	r2, r2, #1044480
 2573 00d0 C3F80421 		str	r2, [r3, #260]
 960:../Sources/drivers/sai/sai.c ****             I2S_MDR_REG(I2S0_BASE_PTR) &= ~I2S_MDR_DIVIDE_MASK;
 2574              		.loc 1 960 0
 2575 00d4 4FF47043 		mov	r3, #61440
 2576 00d8 C4F20203 		movt	r3, 16386
 2577 00dc 4FF47042 		mov	r2, #61440
 2578 00e0 C4F20202 		movt	r2, 16386
 2579 00e4 D2F80421 		ldr	r2, [r2, #260]
 2580 00e8 22F47F62 		bic	r2, r2, #4080
 2581 00ec 22F00F02 		bic	r2, r2, #15
 2582 00f0 C3F80421 		str	r2, [r3, #260]
 961:../Sources/drivers/sai/sai.c ****             I2S_MDR_REG(I2S0_BASE_PTR) |= I2S_MDR_FRACT(fract)              //MCLK fraction
 2583              		.loc 1 961 0
 2584 00f4 4FF47043 		mov	r3, #61440
 2585 00f8 C4F20203 		movt	r3, 16386
 2586 00fc 4FF47042 		mov	r2, #61440
 2587 0100 C4F20202 		movt	r2, 16386
 2588 0104 D2F80411 		ldr	r1, [r2, #260]
 2589 0108 3A79     		ldrb	r2, [r7, #4]	@ zero_extendqisi2
 2590 010a 4FEA0232 		lsl	r2, r2, #12
 2591 010e 02F47F20 		and	r0, r2, #1044480
 962:../Sources/drivers/sai/sai.c ****                                           | I2S_MDR_DIVIDE(divide)    //MCLK divide
 2592              		.loc 1 962 0
 2593 0112 3A69     		ldr	r2, [r7, #16]
 2594 0114 4FEA0252 		lsl	r2, r2, #20
 2595 0118 4FEA1252 		lsr	r2, r2, #20
 2596 011c 0243     		orrs	r2, r2, r0
 961:../Sources/drivers/sai/sai.c ****             I2S_MDR_REG(I2S0_BASE_PTR) |= I2S_MDR_FRACT(fract)              //MCLK fraction
 2597              		.loc 1 961 0
 2598 011e 0A43     		orrs	r2, r2, r1
 2599 0120 C3F80421 		str	r2, [r3, #260]
 963:../Sources/drivers/sai/sai.c ****                                           ;
 964:../Sources/drivers/sai/sai.c **** 
 965:../Sources/drivers/sai/sai.c ****             /*
 966:../Sources/drivers/sai/sai.c ****                                                             *	Please note that MICS field cannot be
 967:../Sources/drivers/sai/sai.c ****                                                             *	so MOE bit needs to be set after sett
 968:../Sources/drivers/sai/sai.c ****                                                             */
 969:../Sources/drivers/sai/sai.c **** 
 970:../Sources/drivers/sai/sai.c ****             if(moe) I2S_MCR_REG(I2S0_BASE_PTR) |= I2S_MCR_MOE_MASK; //SAI_MCLK configure as output 
 2600              		.loc 1 970 0
 2601 0124 7B79     		ldrb	r3, [r7, #5]	@ zero_extendqisi2
 2602 0126 002B     		cmp	r3, #0
 2603 0128 0ED0     		beq	.L121
 2604              		.loc 1 970 0 is_stmt 0
 2605 012a 4FF47043 		mov	r3, #61440
 2606 012e C4F20203 		movt	r3, 16386
 2607 0132 4FF47042 		mov	r2, #61440
 2608 0136 C4F20202 		movt	r2, 16386
 2609 013a D2F80021 		ldr	r2, [r2, #256]
 2610 013e 42F08042 		orr	r2, r2, #1073741824
 2611 0142 C3F80021 		str	r2, [r3, #256]
 2612 0146 0DE0     		b	.L117
 2613              	.L121:
 971:../Sources/drivers/sai/sai.c ****             else
 972:../Sources/drivers/sai/sai.c ****                 I2S_MCR_REG(I2S0_BASE_PTR) &= ~I2S_MCR_MOE_MASK;    //SAI_MCLK configured as input 
 2614              		.loc 1 972 0 is_stmt 1
 2615 0148 4FF47043 		mov	r3, #61440
 2616 014c C4F20203 		movt	r3, 16386
 2617 0150 4FF47042 		mov	r2, #61440
 2618 0154 C4F20202 		movt	r2, 16386
 2619 0158 D2F80021 		ldr	r2, [r2, #256]
 2620 015c 22F08042 		bic	r2, r2, #1073741824
 2621 0160 C3F80021 		str	r2, [r3, #256]
 2622              	.L117:
 973:../Sources/drivers/sai/sai.c ****         }
 974:../Sources/drivers/sai/sai.c ****     else if(port == 1)
 975:../Sources/drivers/sai/sai.c ****         {
 976:../Sources/drivers/sai/sai.c ****         }
 977:../Sources/drivers/sai/sai.c **** }
 2623              		.loc 1 977 0
 2624 0164 07F10C07 		add	r7, r7, #12
 2625 0168 BD46     		mov	sp, r7
 2626 016a 80BC     		pop	{r7}
 2627 016c 7047     		bx	lr
 2628              		.cfi_endproc
 2629              	.LFE156:
 2631 016e 00BF     		.section	.text.sai_clear_reg,"ax",%progbits
 2632              		.align	2
 2633              		.global	sai_clear_reg
 2634              		.thumb
 2635              		.thumb_func
 2637              	sai_clear_reg:
 2638              	.LFB157:
 978:../Sources/drivers/sai/sai.c **** 
 979:../Sources/drivers/sai/sai.c **** /* */
 980:../Sources/drivers/sai/sai.c **** 
 981:../Sources/drivers/sai/sai.c **** void sai_clear_reg
 982:../Sources/drivers/sai/sai.c **** (unsigned char   port)
 983:../Sources/drivers/sai/sai.c **** {
 2639              		.loc 1 983 0
 2640              		.cfi_startproc
 2641              		@ args = 0, pretend = 0, frame = 8
 2642              		@ frame_needed = 1, uses_anonymous_args = 0
 2643 0000 80B5     		push	{r7, lr}
 2644              	.LCFI87:
 2645              		.cfi_def_cfa_offset 8
 2646              		.cfi_offset 7, -8
 2647              		.cfi_offset 14, -4
 2648 0002 82B0     		sub	sp, sp, #8
 2649              	.LCFI88:
 2650              		.cfi_def_cfa_offset 16
 2651 0004 00AF     		add	r7, sp, #0
 2652              	.LCFI89:
 2653              		.cfi_def_cfa_register 7
 2654 0006 0346     		mov	r3, r0
 2655 0008 FB71     		strb	r3, [r7, #7]
 984:../Sources/drivers/sai/sai.c ****     if(port == 0)
 2656              		.loc 1 984 0
 2657 000a FB79     		ldrb	r3, [r7, #7]	@ zero_extendqisi2
 2658 000c 002B     		cmp	r3, #0
 2659 000e 40F0ED80 		bne	.L122
 985:../Sources/drivers/sai/sai.c ****         {
 986:../Sources/drivers/sai/sai.c ****             I2S_TCSR_REG(I2S0_BASE_PTR) = 0x001c0000;   //clear wsf, sef and fef flags
 2660              		.loc 1 986 0
 2661 0012 4FF47043 		mov	r3, #61440
 2662 0016 C4F20203 		movt	r3, 16386
 2663 001a 4FF4E012 		mov	r2, #1835008
 2664 001e 1A60     		str	r2, [r3, #0]
 987:../Sources/drivers/sai/sai.c ****             I2S_TCR1_REG(I2S0_BASE_PTR) = 0x0;
 2665              		.loc 1 987 0
 2666 0020 4FF47043 		mov	r3, #61440
 2667 0024 C4F20203 		movt	r3, 16386
 2668 0028 4FF00002 		mov	r2, #0
 2669 002c 5A60     		str	r2, [r3, #4]
 988:../Sources/drivers/sai/sai.c ****             I2S_TCR2_REG(I2S0_BASE_PTR) = 0x0;
 2670              		.loc 1 988 0
 2671 002e 4FF47043 		mov	r3, #61440
 2672 0032 C4F20203 		movt	r3, 16386
 2673 0036 4FF00002 		mov	r2, #0
 2674 003a 9A60     		str	r2, [r3, #8]
 989:../Sources/drivers/sai/sai.c ****             I2S_TCR3_REG(I2S0_BASE_PTR) = 0x0;
 2675              		.loc 1 989 0
 2676 003c 4FF47043 		mov	r3, #61440
 2677 0040 C4F20203 		movt	r3, 16386
 2678 0044 4FF00002 		mov	r2, #0
 2679 0048 DA60     		str	r2, [r3, #12]
 990:../Sources/drivers/sai/sai.c ****             I2S_TCR4_REG(I2S0_BASE_PTR) = 0x0;
 2680              		.loc 1 990 0
 2681 004a 4FF47043 		mov	r3, #61440
 2682 004e C4F20203 		movt	r3, 16386
 2683 0052 4FF00002 		mov	r2, #0
 2684 0056 1A61     		str	r2, [r3, #16]
 991:../Sources/drivers/sai/sai.c ****             I2S_TCR5_REG(I2S0_BASE_PTR) = 0x0;
 2685              		.loc 1 991 0
 2686 0058 4FF47043 		mov	r3, #61440
 2687 005c C4F20203 		movt	r3, 16386
 2688 0060 4FF00002 		mov	r2, #0
 2689 0064 5A61     		str	r2, [r3, #20]
 992:../Sources/drivers/sai/sai.c ****             //soft reset, reset internal tranmit logic and FIFO pointers, this operation will clear
 993:../Sources/drivers/sai/sai.c ****             sai_soft_reset(port, TX);
 2690              		.loc 1 993 0
 2691 0066 FB79     		ldrb	r3, [r7, #7]	@ zero_extendqisi2
 2692 0068 1846     		mov	r0, r3
 2693 006a 4FF00101 		mov	r1, #1
 2694 006e FFF7FEFF 		bl	sai_soft_reset
 994:../Sources/drivers/sai/sai.c ****             I2S_TMR_REG(I2S0_BASE_PTR) = 0x0;
 2695              		.loc 1 994 0
 2696 0072 4FF47043 		mov	r3, #61440
 2697 0076 C4F20203 		movt	r3, 16386
 2698 007a 4FF00002 		mov	r2, #0
 2699 007e 1A66     		str	r2, [r3, #96]
 995:../Sources/drivers/sai/sai.c **** 
 996:../Sources/drivers/sai/sai.c ****             /* Loop till TE bit is cleared */
 997:../Sources/drivers/sai/sai.c **** 
 998:../Sources/drivers/sai/sai.c ****             while(I2S_TCSR_REG(I2S0_BASE_PTR) & I2S_TCSR_TE_MASK) I2S_TCSR_REG(I2S0_BASE_PTR) &= ~I
 2700              		.loc 1 998 0
 2701 0080 0BE0     		b	.L124
 2702              	.L125:
 2703              		.loc 1 998 0 is_stmt 0
 2704 0082 4FF47043 		mov	r3, #61440
 2705 0086 C4F20203 		movt	r3, 16386
 2706 008a 4FF47042 		mov	r2, #61440
 2707 008e C4F20202 		movt	r2, 16386
 2708 0092 1268     		ldr	r2, [r2, #0]
 2709 0094 22F00042 		bic	r2, r2, #-2147483648
 2710 0098 1A60     		str	r2, [r3, #0]
 2711              	.L124:
 2712              		.loc 1 998 0
 2713 009a 4FF47043 		mov	r3, #61440
 2714 009e C4F20203 		movt	r3, 16386
 2715 00a2 1B68     		ldr	r3, [r3, #0]
 2716 00a4 002B     		cmp	r3, #0
 2717 00a6 ECDB     		blt	.L125
 999:../Sources/drivers/sai/sai.c **** 
1000:../Sources/drivers/sai/sai.c ****             /* Loop till BCE bit cleared */
1001:../Sources/drivers/sai/sai.c **** 
1002:../Sources/drivers/sai/sai.c ****             while(I2S_TCSR_REG(I2S0_BASE_PTR) & I2S_TCSR_BCE_MASK) I2S_TCSR_REG(I2S0_BASE_PTR) &= ~
 2718              		.loc 1 1002 0 is_stmt 1
 2719 00a8 0BE0     		b	.L126
 2720              	.L127:
 2721              		.loc 1 1002 0 is_stmt 0
 2722 00aa 4FF47043 		mov	r3, #61440
 2723 00ae C4F20203 		movt	r3, 16386
 2724 00b2 4FF47042 		mov	r2, #61440
 2725 00b6 C4F20202 		movt	r2, 16386
 2726 00ba 1268     		ldr	r2, [r2, #0]
 2727 00bc 22F08052 		bic	r2, r2, #268435456
 2728 00c0 1A60     		str	r2, [r3, #0]
 2729              	.L126:
 2730              		.loc 1 1002 0
 2731 00c2 4FF47043 		mov	r3, #61440
 2732 00c6 C4F20203 		movt	r3, 16386
 2733 00ca 1B68     		ldr	r3, [r3, #0]
 2734 00cc 03F08053 		and	r3, r3, #268435456
 2735 00d0 002B     		cmp	r3, #0
 2736 00d2 EAD1     		bne	.L127
1003:../Sources/drivers/sai/sai.c **** 
1004:../Sources/drivers/sai/sai.c ****             I2S_RCSR_REG(I2S0_BASE_PTR) = 0x001c0000;   //clear wsf, sef and fef flags
 2737              		.loc 1 1004 0 is_stmt 1
 2738 00d4 4FF47043 		mov	r3, #61440
 2739 00d8 C4F20203 		movt	r3, 16386
 2740 00dc 4FF4E012 		mov	r2, #1835008
 2741 00e0 C3F88020 		str	r2, [r3, #128]
1005:../Sources/drivers/sai/sai.c ****             I2S_RCR1_REG(I2S0_BASE_PTR) = 0x0;
 2742              		.loc 1 1005 0
 2743 00e4 4FF47043 		mov	r3, #61440
 2744 00e8 C4F20203 		movt	r3, 16386
 2745 00ec 4FF00002 		mov	r2, #0
 2746 00f0 C3F88420 		str	r2, [r3, #132]
1006:../Sources/drivers/sai/sai.c ****             I2S_RCR2_REG(I2S0_BASE_PTR) = 0x0;
 2747              		.loc 1 1006 0
 2748 00f4 4FF47043 		mov	r3, #61440
 2749 00f8 C4F20203 		movt	r3, 16386
 2750 00fc 4FF00002 		mov	r2, #0
 2751 0100 C3F88820 		str	r2, [r3, #136]
1007:../Sources/drivers/sai/sai.c ****             I2S_RCR3_REG(I2S0_BASE_PTR) = 0x0;
 2752              		.loc 1 1007 0
 2753 0104 4FF47043 		mov	r3, #61440
 2754 0108 C4F20203 		movt	r3, 16386
 2755 010c 4FF00002 		mov	r2, #0
 2756 0110 C3F88C20 		str	r2, [r3, #140]
1008:../Sources/drivers/sai/sai.c ****             I2S_RCR4_REG(I2S0_BASE_PTR) = 0x0;
 2757              		.loc 1 1008 0
 2758 0114 4FF47043 		mov	r3, #61440
 2759 0118 C4F20203 		movt	r3, 16386
 2760 011c 4FF00002 		mov	r2, #0
 2761 0120 C3F89020 		str	r2, [r3, #144]
1009:../Sources/drivers/sai/sai.c ****             I2S_RCR5_REG(I2S0_BASE_PTR) = 0x0;
 2762              		.loc 1 1009 0
 2763 0124 4FF47043 		mov	r3, #61440
 2764 0128 C4F20203 		movt	r3, 16386
 2765 012c 4FF00002 		mov	r2, #0
 2766 0130 C3F89420 		str	r2, [r3, #148]
1010:../Sources/drivers/sai/sai.c ****             //soft reset, reset internal receive logic and FIFO pointers, this operation will clear
1011:../Sources/drivers/sai/sai.c ****             sai_soft_reset(port, RX);
 2767              		.loc 1 1011 0
 2768 0134 FB79     		ldrb	r3, [r7, #7]	@ zero_extendqisi2
 2769 0136 1846     		mov	r0, r3
 2770 0138 4FF00001 		mov	r1, #0
 2771 013c FFF7FEFF 		bl	sai_soft_reset
1012:../Sources/drivers/sai/sai.c ****             I2S_RMR_REG(I2S0_BASE_PTR) = 0x0;
 2772              		.loc 1 1012 0
 2773 0140 4FF47043 		mov	r3, #61440
 2774 0144 C4F20203 		movt	r3, 16386
 2775 0148 4FF00002 		mov	r2, #0
 2776 014c C3F8E020 		str	r2, [r3, #224]
1013:../Sources/drivers/sai/sai.c **** 
1014:../Sources/drivers/sai/sai.c ****             /* Loop till RE bit clear */
1015:../Sources/drivers/sai/sai.c **** 
1016:../Sources/drivers/sai/sai.c ****             while(I2S_RCSR_REG(I2S0_BASE_PTR) & I2S_RCSR_RE_MASK) I2S_RCSR_REG(I2S0_BASE_PTR) &= ~I
 2777              		.loc 1 1016 0
 2778 0150 0DE0     		b	.L128
 2779              	.L129:
 2780              		.loc 1 1016 0 is_stmt 0
 2781 0152 4FF47043 		mov	r3, #61440
 2782 0156 C4F20203 		movt	r3, 16386
 2783 015a 4FF47042 		mov	r2, #61440
 2784 015e C4F20202 		movt	r2, 16386
 2785 0162 D2F88020 		ldr	r2, [r2, #128]
 2786 0166 22F00042 		bic	r2, r2, #-2147483648
 2787 016a C3F88020 		str	r2, [r3, #128]
 2788              	.L128:
 2789              		.loc 1 1016 0
 2790 016e 4FF47043 		mov	r3, #61440
 2791 0172 C4F20203 		movt	r3, 16386
 2792 0176 D3F88030 		ldr	r3, [r3, #128]
 2793 017a 002B     		cmp	r3, #0
 2794 017c E9DB     		blt	.L129
1017:../Sources/drivers/sai/sai.c **** 
1018:../Sources/drivers/sai/sai.c ****             /* Loop till BCE bit clear */
1019:../Sources/drivers/sai/sai.c **** 
1020:../Sources/drivers/sai/sai.c ****             while(I2S_RCSR_REG(I2S0_BASE_PTR) & I2S_RCSR_BCE_MASK) I2S_RCSR_REG(I2S0_BASE_PTR) &= ~
 2795              		.loc 1 1020 0 is_stmt 1
 2796 017e 0DE0     		b	.L130
 2797              	.L131:
 2798              		.loc 1 1020 0 is_stmt 0
 2799 0180 4FF47043 		mov	r3, #61440
 2800 0184 C4F20203 		movt	r3, 16386
 2801 0188 4FF47042 		mov	r2, #61440
 2802 018c C4F20202 		movt	r2, 16386
 2803 0190 D2F88020 		ldr	r2, [r2, #128]
 2804 0194 22F08052 		bic	r2, r2, #268435456
 2805 0198 C3F88020 		str	r2, [r3, #128]
 2806              	.L130:
 2807              		.loc 1 1020 0
 2808 019c 4FF47043 		mov	r3, #61440
 2809 01a0 C4F20203 		movt	r3, 16386
 2810 01a4 D3F88030 		ldr	r3, [r3, #128]
 2811 01a8 03F08053 		and	r3, r3, #268435456
 2812 01ac 002B     		cmp	r3, #0
 2813 01ae E7D1     		bne	.L131
1021:../Sources/drivers/sai/sai.c **** 
1022:../Sources/drivers/sai/sai.c ****             //Clearing MCR register is a bit tricky, first disable MOE bit, then clear MDR, then ch
1023:../Sources/drivers/sai/sai.c ****             I2S_MCR_REG(I2S0_BASE_PTR) &= ~I2S_MCR_MOE_MASK;
 2814              		.loc 1 1023 0 is_stmt 1
 2815 01b0 4FF47043 		mov	r3, #61440
 2816 01b4 C4F20203 		movt	r3, 16386
 2817 01b8 4FF47042 		mov	r2, #61440
 2818 01bc C4F20202 		movt	r2, 16386
 2819 01c0 D2F80021 		ldr	r2, [r2, #256]
 2820 01c4 22F08042 		bic	r2, r2, #1073741824
 2821 01c8 C3F80021 		str	r2, [r3, #256]
1024:../Sources/drivers/sai/sai.c ****             I2S_MDR_REG(I2S0_BASE_PTR) = 0x0;
 2822              		.loc 1 1024 0
 2823 01cc 4FF47043 		mov	r3, #61440
 2824 01d0 C4F20203 		movt	r3, 16386
 2825 01d4 4FF00002 		mov	r2, #0
 2826 01d8 C3F80421 		str	r2, [r3, #260]
1025:../Sources/drivers/sai/sai.c ****             I2S_MCR_REG(I2S0_BASE_PTR) = I2S_MCR_MICS(0x0);
 2827              		.loc 1 1025 0
 2828 01dc 4FF47043 		mov	r3, #61440
 2829 01e0 C4F20203 		movt	r3, 16386
 2830 01e4 4FF00002 		mov	r2, #0
 2831 01e8 C3F80021 		str	r2, [r3, #256]
 2832              	.L122:
1026:../Sources/drivers/sai/sai.c ****         }
1027:../Sources/drivers/sai/sai.c ****     else if(port == 1)
1028:../Sources/drivers/sai/sai.c ****         {
1029:../Sources/drivers/sai/sai.c ****         }
1030:../Sources/drivers/sai/sai.c **** }
 2833              		.loc 1 1030 0
 2834 01ec 07F10807 		add	r7, r7, #8
 2835 01f0 BD46     		mov	sp, r7
 2836 01f2 80BD     		pop	{r7, pc}
 2837              		.cfi_endproc
 2838              	.LFE157:
 2840              		.section	.text.sai_monitor_fifo_status,"ax",%progbits
 2841              		.align	2
 2842              		.global	sai_monitor_fifo_status
 2843              		.thumb
 2844              		.thumb_func
 2846              	sai_monitor_fifo_status:
 2847              	.LFB158:
1031:../Sources/drivers/sai/sai.c **** 
1032:../Sources/drivers/sai/sai.c **** /* */
1033:../Sources/drivers/sai/sai.c **** 
1034:../Sources/drivers/sai/sai.c **** void sai_monitor_fifo_status
1035:../Sources/drivers/sai/sai.c **** (
1036:../Sources/drivers/sai/sai.c ****     unsigned char   port,
1037:../Sources/drivers/sai/sai.c ****     unsigned char   channel
1038:../Sources/drivers/sai/sai.c **** )
1039:../Sources/drivers/sai/sai.c **** {
 2848              		.loc 1 1039 0
 2849              		.cfi_startproc
 2850              		@ args = 0, pretend = 0, frame = 8
 2851              		@ frame_needed = 1, uses_anonymous_args = 0
 2852              		@ link register save eliminated.
 2853 0000 80B4     		push	{r7}
 2854              	.LCFI90:
 2855              		.cfi_def_cfa_offset 4
 2856              		.cfi_offset 7, -4
 2857 0002 83B0     		sub	sp, sp, #12
 2858              	.LCFI91:
 2859              		.cfi_def_cfa_offset 16
 2860 0004 00AF     		add	r7, sp, #0
 2861              	.LCFI92:
 2862              		.cfi_def_cfa_register 7
 2863 0006 0246     		mov	r2, r0
 2864 0008 0B46     		mov	r3, r1
 2865 000a FA71     		strb	r2, [r7, #7]
 2866 000c BB71     		strb	r3, [r7, #6]
1040:../Sources/drivers/sai/sai.c ****     if(port == 0)
1041:../Sources/drivers/sai/sai.c ****         {
1042:../Sources/drivers/sai/sai.c ****         }
1043:../Sources/drivers/sai/sai.c ****     else if(port == 1)
1044:../Sources/drivers/sai/sai.c ****         {
1045:../Sources/drivers/sai/sai.c ****         }
1046:../Sources/drivers/sai/sai.c **** }
 2867              		.loc 1 1046 0
 2868 000e 07F10C07 		add	r7, r7, #12
 2869 0012 BD46     		mov	sp, r7
 2870 0014 80BC     		pop	{r7}
 2871 0016 7047     		bx	lr
 2872              		.cfi_endproc
 2873              	.LFE158:
 2875              		.section	.text.sai_inteprete_flag,"ax",%progbits
 2876              		.align	2
 2877              		.global	sai_inteprete_flag
 2878              		.thumb
 2879              		.thumb_func
 2881              	sai_inteprete_flag:
 2882              	.LFB159:
1047:../Sources/drivers/sai/sai.c **** 
1048:../Sources/drivers/sai/sai.c **** /* */
1049:../Sources/drivers/sai/sai.c **** 
1050:../Sources/drivers/sai/sai.c **** void sai_inteprete_flag
1051:../Sources/drivers/sai/sai.c **** (
1052:../Sources/drivers/sai/sai.c ****     unsigned char   port,
1053:../Sources/drivers/sai/sai.c ****     unsigned char   tx
1054:../Sources/drivers/sai/sai.c **** )
1055:../Sources/drivers/sai/sai.c **** {
 2883              		.loc 1 1055 0
 2884              		.cfi_startproc
 2885              		@ args = 0, pretend = 0, frame = 8
 2886              		@ frame_needed = 1, uses_anonymous_args = 0
 2887              		@ link register save eliminated.
 2888 0000 80B4     		push	{r7}
 2889              	.LCFI93:
 2890              		.cfi_def_cfa_offset 4
 2891              		.cfi_offset 7, -4
 2892 0002 83B0     		sub	sp, sp, #12
 2893              	.LCFI94:
 2894              		.cfi_def_cfa_offset 16
 2895 0004 00AF     		add	r7, sp, #0
 2896              	.LCFI95:
 2897              		.cfi_def_cfa_register 7
 2898 0006 0246     		mov	r2, r0
 2899 0008 0B46     		mov	r3, r1
 2900 000a FA71     		strb	r2, [r7, #7]
 2901 000c BB71     		strb	r3, [r7, #6]
1056:../Sources/drivers/sai/sai.c ****     if(port == 0)
 2902              		.loc 1 1056 0
 2903 000e FB79     		ldrb	r3, [r7, #7]	@ zero_extendqisi2
 2904 0010 002B     		cmp	r3, #0
 2905 0012 40F0EE80 		bne	.L133
1057:../Sources/drivers/sai/sai.c ****         {
1058:../Sources/drivers/sai/sai.c ****             if(tx)
 2906              		.loc 1 1058 0
 2907 0016 BB79     		ldrb	r3, [r7, #6]	@ zero_extendqisi2
 2908 0018 002B     		cmp	r3, #0
 2909 001a 6ED0     		beq	.L135
1059:../Sources/drivers/sai/sai.c ****                 {
1060:../Sources/drivers/sai/sai.c ****                     if(I2S_TCSR_REG(I2S0_BASE_PTR) & I2S_TCSR_WSF_MASK)
 2910              		.loc 1 1060 0
 2911 001c 4FF47043 		mov	r3, #61440
 2912 0020 C4F20203 		movt	r3, 16386
 2913 0024 1B68     		ldr	r3, [r3, #0]
 2914 0026 03F48013 		and	r3, r3, #1048576
 2915 002a 002B     		cmp	r3, #0
 2916 002c 0CD0     		beq	.L136
1061:../Sources/drivers/sai/sai.c ****                         {
1062:../Sources/drivers/sai/sai.c ****                             //indicate start of configured word has been detected
1063:../Sources/drivers/sai/sai.c ****                             I2S_TCSR_REG(I2S0_BASE_PTR) |= I2S_TCSR_WSF_MASK;   //clear flag
 2917              		.loc 1 1063 0
 2918 002e 4FF47043 		mov	r3, #61440
 2919 0032 C4F20203 		movt	r3, 16386
 2920 0036 4FF47042 		mov	r2, #61440
 2921 003a C4F20202 		movt	r2, 16386
 2922 003e 1268     		ldr	r2, [r2, #0]
 2923 0040 42F48012 		orr	r2, r2, #1048576
 2924 0044 1A60     		str	r2, [r3, #0]
 2925 0046 D4E0     		b	.L133
 2926              	.L136:
1064:../Sources/drivers/sai/sai.c ****                             //("word start flag set\n");
1065:../Sources/drivers/sai/sai.c ****                         }
1066:../Sources/drivers/sai/sai.c ****                     else if(I2S_TCSR_REG(I2S0_BASE_PTR) & I2S_TCSR_SEF_MASK)
 2927              		.loc 1 1066 0
 2928 0048 4FF47043 		mov	r3, #61440
 2929 004c C4F20203 		movt	r3, 16386
 2930 0050 1B68     		ldr	r3, [r3, #0]
 2931 0052 03F40023 		and	r3, r3, #524288
 2932 0056 002B     		cmp	r3, #0
 2933 0058 0CD0     		beq	.L137
1067:../Sources/drivers/sai/sai.c ****                         {
1068:../Sources/drivers/sai/sai.c ****                             //indicate error in the externally generated frame sync has been detect
1069:../Sources/drivers/sai/sai.c ****                             I2S_TCSR_REG(I2S0_BASE_PTR) |= I2S_TCSR_SEF_MASK;
 2934              		.loc 1 1069 0
 2935 005a 4FF47043 		mov	r3, #61440
 2936 005e C4F20203 		movt	r3, 16386
 2937 0062 4FF47042 		mov	r2, #61440
 2938 0066 C4F20202 		movt	r2, 16386
 2939 006a 1268     		ldr	r2, [r2, #0]
 2940 006c 42F40022 		orr	r2, r2, #524288
 2941 0070 1A60     		str	r2, [r3, #0]
 2942 0072 BEE0     		b	.L133
 2943              	.L137:
1070:../Sources/drivers/sai/sai.c ****                         }
1071:../Sources/drivers/sai/sai.c ****                     else if(I2S_TCSR_REG(I2S0_BASE_PTR) & I2S_TCSR_FEF_MASK)
 2944              		.loc 1 1071 0
 2945 0074 4FF47043 		mov	r3, #61440
 2946 0078 C4F20203 		movt	r3, 16386
 2947 007c 1B68     		ldr	r3, [r3, #0]
 2948 007e 03F48023 		and	r3, r3, #262144
 2949 0082 002B     		cmp	r3, #0
 2950 0084 0CD0     		beq	.L138
1072:../Sources/drivers/sai/sai.c ****                         {
1073:../Sources/drivers/sai/sai.c ****                             //indicate an enabled transmit FIFO has underrun
1074:../Sources/drivers/sai/sai.c ****                             I2S_TCSR_REG(I2S0_BASE_PTR) |= I2S_TCSR_FEF_MASK;   //clear flag
 2951              		.loc 1 1074 0
 2952 0086 4FF47043 		mov	r3, #61440
 2953 008a C4F20203 		movt	r3, 16386
 2954 008e 4FF47042 		mov	r2, #61440
 2955 0092 C4F20202 		movt	r2, 16386
 2956 0096 1268     		ldr	r2, [r2, #0]
 2957 0098 42F48022 		orr	r2, r2, #262144
 2958 009c 1A60     		str	r2, [r3, #0]
 2959 009e A8E0     		b	.L133
 2960              	.L138:
1075:../Sources/drivers/sai/sai.c ****                         }
1076:../Sources/drivers/sai/sai.c ****                     else if(I2S_TCSR_REG(I2S0_BASE_PTR) & I2S_TCSR_FWF_MASK)
 2961              		.loc 1 1076 0
 2962 00a0 4FF47043 		mov	r3, #61440
 2963 00a4 C4F20203 		movt	r3, 16386
 2964 00a8 1B68     		ldr	r3, [r3, #0]
 2965 00aa 03F40033 		and	r3, r3, #131072
 2966 00ae 002B     		cmp	r3, #0
 2967 00b0 0CD0     		beq	.L139
1077:../Sources/drivers/sai/sai.c ****                         {
1078:../Sources/drivers/sai/sai.c ****                             //indicate an enabled transmit FIFO is empty
1079:../Sources/drivers/sai/sai.c ****                             I2S_TCSR_REG(I2S0_BASE_PTR) |= I2S_TCSR_FWF_MASK;   //clear flag
 2968              		.loc 1 1079 0
 2969 00b2 4FF47043 		mov	r3, #61440
 2970 00b6 C4F20203 		movt	r3, 16386
 2971 00ba 4FF47042 		mov	r2, #61440
 2972 00be C4F20202 		movt	r2, 16386
 2973 00c2 1268     		ldr	r2, [r2, #0]
 2974 00c4 42F40032 		orr	r2, r2, #131072
 2975 00c8 1A60     		str	r2, [r3, #0]
 2976 00ca 92E0     		b	.L133
 2977              	.L139:
1080:../Sources/drivers/sai/sai.c ****                         }
1081:../Sources/drivers/sai/sai.c ****                     else if(I2S_TCSR_REG(I2S0_BASE_PTR) & I2S_TCSR_FRF_MASK)
 2978              		.loc 1 1081 0
 2979 00cc 4FF47043 		mov	r3, #61440
 2980 00d0 C4F20203 		movt	r3, 16386
 2981 00d4 1B68     		ldr	r3, [r3, #0]
 2982 00d6 03F48033 		and	r3, r3, #65536
 2983 00da 002B     		cmp	r3, #0
 2984 00dc 00F08980 		beq	.L133
1082:../Sources/drivers/sai/sai.c ****                         {
1083:../Sources/drivers/sai/sai.c ****                             //indicates number of words in an enabled transmit FIFO is less than or
1084:../Sources/drivers/sai/sai.c ****                             I2S_TCSR_REG(I2S0_BASE_PTR) |= I2S_TCSR_FRF_MASK;   //clear flag
 2985              		.loc 1 1084 0
 2986 00e0 4FF47043 		mov	r3, #61440
 2987 00e4 C4F20203 		movt	r3, 16386
 2988 00e8 4FF47042 		mov	r2, #61440
 2989 00ec C4F20202 		movt	r2, 16386
 2990 00f0 1268     		ldr	r2, [r2, #0]
 2991 00f2 42F48032 		orr	r2, r2, #65536
 2992 00f6 1A60     		str	r2, [r3, #0]
 2993 00f8 7BE0     		b	.L133
 2994              	.L135:
1085:../Sources/drivers/sai/sai.c ****                         }
1086:../Sources/drivers/sai/sai.c ****                 }
1087:../Sources/drivers/sai/sai.c ****             else
1088:../Sources/drivers/sai/sai.c ****                 {
1089:../Sources/drivers/sai/sai.c ****                     if(I2S_RCSR_REG(I2S0_BASE_PTR) & I2S_RCSR_WSF_MASK)
 2995              		.loc 1 1089 0
 2996 00fa 4FF47043 		mov	r3, #61440
 2997 00fe C4F20203 		movt	r3, 16386
 2998 0102 D3F88030 		ldr	r3, [r3, #128]
 2999 0106 03F48013 		and	r3, r3, #1048576
 3000 010a 002B     		cmp	r3, #0
 3001 010c 0ED0     		beq	.L140
1090:../Sources/drivers/sai/sai.c ****                         {
1091:../Sources/drivers/sai/sai.c ****                             //indicate start of configured word has been detected
1092:../Sources/drivers/sai/sai.c ****                             I2S_RCSR_REG(I2S0_BASE_PTR) |= I2S_RCSR_WSF_MASK;   //clear flag
 3002              		.loc 1 1092 0
 3003 010e 4FF47043 		mov	r3, #61440
 3004 0112 C4F20203 		movt	r3, 16386
 3005 0116 4FF47042 		mov	r2, #61440
 3006 011a C4F20202 		movt	r2, 16386
 3007 011e D2F88020 		ldr	r2, [r2, #128]
 3008 0122 42F48012 		orr	r2, r2, #1048576
 3009 0126 C3F88020 		str	r2, [r3, #128]
 3010 012a 62E0     		b	.L133
 3011              	.L140:
1093:../Sources/drivers/sai/sai.c ****                         }
1094:../Sources/drivers/sai/sai.c ****                     else if(I2S_RCSR_REG(I2S0_BASE_PTR) & I2S_RCSR_SEF_MASK)
 3012              		.loc 1 1094 0
 3013 012c 4FF47043 		mov	r3, #61440
 3014 0130 C4F20203 		movt	r3, 16386
 3015 0134 D3F88030 		ldr	r3, [r3, #128]
 3016 0138 03F40023 		and	r3, r3, #524288
 3017 013c 002B     		cmp	r3, #0
 3018 013e 0ED0     		beq	.L141
1095:../Sources/drivers/sai/sai.c ****                         {
1096:../Sources/drivers/sai/sai.c ****                             //indicate error in the externally generated frame sync has been detect
1097:../Sources/drivers/sai/sai.c ****                             I2S_RCSR_REG(I2S0_BASE_PTR) |= I2S_RCSR_SEF_MASK;
 3019              		.loc 1 1097 0
 3020 0140 4FF47043 		mov	r3, #61440
 3021 0144 C4F20203 		movt	r3, 16386
 3022 0148 4FF47042 		mov	r2, #61440
 3023 014c C4F20202 		movt	r2, 16386
 3024 0150 D2F88020 		ldr	r2, [r2, #128]
 3025 0154 42F40022 		orr	r2, r2, #524288
 3026 0158 C3F88020 		str	r2, [r3, #128]
 3027 015c 49E0     		b	.L133
 3028              	.L141:
1098:../Sources/drivers/sai/sai.c ****                         }
1099:../Sources/drivers/sai/sai.c ****                     else if(I2S_RCSR_REG(I2S0_BASE_PTR) & I2S_RCSR_FEF_MASK)
 3029              		.loc 1 1099 0
 3030 015e 4FF47043 		mov	r3, #61440
 3031 0162 C4F20203 		movt	r3, 16386
 3032 0166 D3F88030 		ldr	r3, [r3, #128]
 3033 016a 03F48023 		and	r3, r3, #262144
 3034 016e 002B     		cmp	r3, #0
 3035 0170 0ED0     		beq	.L142
1100:../Sources/drivers/sai/sai.c ****                         {
1101:../Sources/drivers/sai/sai.c ****                             //indicate an enabled receive FIFO has overflowed
1102:../Sources/drivers/sai/sai.c ****                             I2S_RCSR_REG(I2S0_BASE_PTR) |= I2S_RCSR_FEF_MASK;   //clear flag
 3036              		.loc 1 1102 0
 3037 0172 4FF47043 		mov	r3, #61440
 3038 0176 C4F20203 		movt	r3, 16386
 3039 017a 4FF47042 		mov	r2, #61440
 3040 017e C4F20202 		movt	r2, 16386
 3041 0182 D2F88020 		ldr	r2, [r2, #128]
 3042 0186 42F48022 		orr	r2, r2, #262144
 3043 018a C3F88020 		str	r2, [r3, #128]
 3044 018e 30E0     		b	.L133
 3045              	.L142:
1103:../Sources/drivers/sai/sai.c ****                         }
1104:../Sources/drivers/sai/sai.c ****                     else if(I2S_RCSR_REG(I2S0_BASE_PTR) & I2S_RCSR_FWF_MASK)
 3046              		.loc 1 1104 0
 3047 0190 4FF47043 		mov	r3, #61440
 3048 0194 C4F20203 		movt	r3, 16386
 3049 0198 D3F88030 		ldr	r3, [r3, #128]
 3050 019c 03F40033 		and	r3, r3, #131072
 3051 01a0 002B     		cmp	r3, #0
 3052 01a2 0ED0     		beq	.L143
1105:../Sources/drivers/sai/sai.c ****                         {
1106:../Sources/drivers/sai/sai.c ****                             //indicate an enabled receive FIFO is full
1107:../Sources/drivers/sai/sai.c ****                             I2S_RCSR_REG(I2S0_BASE_PTR) |= I2S_RCSR_FWF_MASK;   //clear flag
 3053              		.loc 1 1107 0
 3054 01a4 4FF47043 		mov	r3, #61440
 3055 01a8 C4F20203 		movt	r3, 16386
 3056 01ac 4FF47042 		mov	r2, #61440
 3057 01b0 C4F20202 		movt	r2, 16386
 3058 01b4 D2F88020 		ldr	r2, [r2, #128]
 3059 01b8 42F40032 		orr	r2, r2, #131072
 3060 01bc C3F88020 		str	r2, [r3, #128]
 3061 01c0 17E0     		b	.L133
 3062              	.L143:
1108:../Sources/drivers/sai/sai.c ****                         }
1109:../Sources/drivers/sai/sai.c ****                     else if(I2S_RCSR_REG(I2S0_BASE_PTR) & I2S_RCSR_FRF_MASK)
 3063              		.loc 1 1109 0
 3064 01c2 4FF47043 		mov	r3, #61440
 3065 01c6 C4F20203 		movt	r3, 16386
 3066 01ca D3F88030 		ldr	r3, [r3, #128]
 3067 01ce 03F48033 		and	r3, r3, #65536
 3068 01d2 002B     		cmp	r3, #0
 3069 01d4 0DD0     		beq	.L133
1110:../Sources/drivers/sai/sai.c ****                         {
1111:../Sources/drivers/sai/sai.c ****                             //indicates number of words in an enabled receive FIFO is greater than 
1112:../Sources/drivers/sai/sai.c ****                             I2S_RCSR_REG(I2S0_BASE_PTR) |= I2S_RCSR_FRF_MASK;   //clear flag
 3070              		.loc 1 1112 0
 3071 01d6 4FF47043 		mov	r3, #61440
 3072 01da C4F20203 		movt	r3, 16386
 3073 01de 4FF47042 		mov	r2, #61440
 3074 01e2 C4F20202 		movt	r2, 16386
 3075 01e6 D2F88020 		ldr	r2, [r2, #128]
 3076 01ea 42F48032 		orr	r2, r2, #65536
 3077 01ee C3F88020 		str	r2, [r3, #128]
 3078              	.L133:
1113:../Sources/drivers/sai/sai.c ****                         }
1114:../Sources/drivers/sai/sai.c ****                 }
1115:../Sources/drivers/sai/sai.c ****         }
1116:../Sources/drivers/sai/sai.c ****     else if(port == 1)
1117:../Sources/drivers/sai/sai.c ****         {
1118:../Sources/drivers/sai/sai.c ****         }
1119:../Sources/drivers/sai/sai.c **** }
 3079              		.loc 1 1119 0
 3080 01f2 07F10C07 		add	r7, r7, #12
 3081 01f6 BD46     		mov	sp, r7
 3082 01f8 80BC     		pop	{r7}
 3083 01fa 7047     		bx	lr
 3084              		.cfi_endproc
 3085              	.LFE159:
 3087              		.section	.text.sai0_rx_isr,"ax",%progbits
 3088              		.align	2
 3089              		.global	sai0_rx_isr
 3090              		.thumb
 3091              		.thumb_func
 3093              	sai0_rx_isr:
 3094              	.LFB160:
1120:../Sources/drivers/sai/sai.c **** 
1121:../Sources/drivers/sai/sai.c **** 
1122:../Sources/drivers/sai/sai.c **** 
1123:../Sources/drivers/sai/sai.c **** 
1124:../Sources/drivers/sai/sai.c **** void sai0_rx_isr(void)
1125:../Sources/drivers/sai/sai.c **** {
 3095              		.loc 1 1125 0
 3096              		.cfi_startproc
 3097              		@ args = 0, pretend = 0, frame = 0
 3098              		@ frame_needed = 1, uses_anonymous_args = 0
 3099              		@ link register save eliminated.
 3100 0000 80B4     		push	{r7}
 3101              	.LCFI96:
 3102              		.cfi_def_cfa_offset 4
 3103              		.cfi_offset 7, -4
 3104 0002 00AF     		add	r7, sp, #0
 3105              	.LCFI97:
 3106              		.cfi_def_cfa_register 7
1126:../Sources/drivers/sai/sai.c ****     //Clear the IRQ Flag
1127:../Sources/drivers/sai/sai.c ****     I2S_RCSR_REG(I2S0_BASE_PTR) &= ~(I2S_RCSR_FRF_MASK);
 3107              		.loc 1 1127 0
 3108 0004 4FF47043 		mov	r3, #61440
 3109 0008 C4F20203 		movt	r3, 16386
 3110 000c 4FF47042 		mov	r2, #61440
 3111 0010 C4F20202 		movt	r2, 16386
 3112 0014 D2F88020 		ldr	r2, [r2, #128]
 3113 0018 22F48032 		bic	r2, r2, #65536
 3114 001c C3F88020 		str	r2, [r3, #128]
1128:../Sources/drivers/sai/sai.c ****     GPIOD_PSOR = 1<<3;
 3115              		.loc 1 1128 0
 3116 0020 4FF2C003 		movw	r3, #61632
 3117 0024 C4F20F03 		movt	r3, 16399
 3118 0028 4FF00802 		mov	r2, #8
 3119 002c 5A60     		str	r2, [r3, #4]
1129:../Sources/drivers/sai/sai.c ****     GPIOD_PCOR = 1<<3;
 3120              		.loc 1 1129 0
 3121 002e 4FF2C003 		movw	r3, #61632
 3122 0032 C4F20F03 		movt	r3, 16399
 3123 0036 4FF00802 		mov	r2, #8
 3124 003a 9A60     		str	r2, [r3, #8]
1130:../Sources/drivers/sai/sai.c ****     LeftIn = I2S0_RDR0;
 3125              		.loc 1 1130 0
 3126 003c 4FF47043 		mov	r3, #61440
 3127 0040 C4F20203 		movt	r3, 16386
 3128 0044 D3F8A030 		ldr	r3, [r3, #160]
 3129 0048 1A46     		mov	r2, r3
 3130 004a 40F20003 		movw	r3, #:lower16:LeftIn
 3131 004e C0F20003 		movt	r3, #:upper16:LeftIn
 3132 0052 1A60     		str	r2, [r3, #0]
1131:../Sources/drivers/sai/sai.c ****     RightIn = I2S0_RDR0;
 3133              		.loc 1 1131 0
 3134 0054 4FF47043 		mov	r3, #61440
 3135 0058 C4F20203 		movt	r3, 16386
 3136 005c D3F8A030 		ldr	r3, [r3, #160]
 3137 0060 1A46     		mov	r2, r3
 3138 0062 40F20003 		movw	r3, #:lower16:RightIn
 3139 0066 C0F20003 		movt	r3, #:upper16:RightIn
 3140 006a 1A60     		str	r2, [r3, #0]
1132:../Sources/drivers/sai/sai.c **** 
1133:../Sources/drivers/sai/sai.c ****     //Sign extend the 24-bit data to q31_t;
1134:../Sources/drivers/sai/sai.c **** 
1135:../Sources/drivers/sai/sai.c ****     if(LeftIn & (1<<23))
 3141              		.loc 1 1135 0
 3142 006c 40F20003 		movw	r3, #:lower16:LeftIn
 3143 0070 C0F20003 		movt	r3, #:upper16:LeftIn
 3144 0074 1B68     		ldr	r3, [r3, #0]
 3145 0076 03F40003 		and	r3, r3, #8388608
 3146 007a 002B     		cmp	r3, #0
 3147 007c 0DD0     		beq	.L145
1136:../Sources/drivers/sai/sai.c ****         LeftIn |= 0xFF000000;
 3148              		.loc 1 1136 0
 3149 007e 40F20003 		movw	r3, #:lower16:LeftIn
 3150 0082 C0F20003 		movt	r3, #:upper16:LeftIn
 3151 0086 1B68     		ldr	r3, [r3, #0]
 3152 0088 43F07F43 		orr	r3, r3, #-16777216
 3153 008c 1A46     		mov	r2, r3
 3154 008e 40F20003 		movw	r3, #:lower16:LeftIn
 3155 0092 C0F20003 		movt	r3, #:upper16:LeftIn
 3156 0096 1A60     		str	r2, [r3, #0]
 3157 0098 0BE0     		b	.L146
 3158              	.L145:
1137:../Sources/drivers/sai/sai.c ****     else
1138:../Sources/drivers/sai/sai.c ****         LeftIn &=~0xFF000000;;
 3159              		.loc 1 1138 0
 3160 009a 40F20003 		movw	r3, #:lower16:LeftIn
 3161 009e C0F20003 		movt	r3, #:upper16:LeftIn
 3162 00a2 1B68     		ldr	r3, [r3, #0]
 3163 00a4 23F07F42 		bic	r2, r3, #-16777216
 3164 00a8 40F20003 		movw	r3, #:lower16:LeftIn
 3165 00ac C0F20003 		movt	r3, #:upper16:LeftIn
 3166 00b0 1A60     		str	r2, [r3, #0]
 3167              	.L146:
1139:../Sources/drivers/sai/sai.c **** 
1140:../Sources/drivers/sai/sai.c ****     if(RightIn & (1<<23))
 3168              		.loc 1 1140 0
 3169 00b2 40F20003 		movw	r3, #:lower16:RightIn
 3170 00b6 C0F20003 		movt	r3, #:upper16:RightIn
 3171 00ba 1B68     		ldr	r3, [r3, #0]
 3172 00bc 03F40003 		and	r3, r3, #8388608
 3173 00c0 002B     		cmp	r3, #0
 3174 00c2 0DD0     		beq	.L147
1141:../Sources/drivers/sai/sai.c ****         RightIn |= 0xFF000000;
 3175              		.loc 1 1141 0
 3176 00c4 40F20003 		movw	r3, #:lower16:RightIn
 3177 00c8 C0F20003 		movt	r3, #:upper16:RightIn
 3178 00cc 1B68     		ldr	r3, [r3, #0]
 3179 00ce 43F07F43 		orr	r3, r3, #-16777216
 3180 00d2 1A46     		mov	r2, r3
 3181 00d4 40F20003 		movw	r3, #:lower16:RightIn
 3182 00d8 C0F20003 		movt	r3, #:upper16:RightIn
 3183 00dc 1A60     		str	r2, [r3, #0]
 3184 00de 0BE0     		b	.L144
 3185              	.L147:
1142:../Sources/drivers/sai/sai.c ****     else
1143:../Sources/drivers/sai/sai.c ****         RightIn &=~0xFF000000;;
 3186              		.loc 1 1143 0
 3187 00e0 40F20003 		movw	r3, #:lower16:RightIn
 3188 00e4 C0F20003 		movt	r3, #:upper16:RightIn
 3189 00e8 1B68     		ldr	r3, [r3, #0]
 3190 00ea 23F07F42 		bic	r2, r3, #-16777216
 3191 00ee 40F20003 		movw	r3, #:lower16:RightIn
 3192 00f2 C0F20003 		movt	r3, #:upper16:RightIn
 3193 00f6 1A60     		str	r2, [r3, #0]
 3194              	.L144:
1144:../Sources/drivers/sai/sai.c **** }
 3195              		.loc 1 1144 0
 3196 00f8 BD46     		mov	sp, r7
 3197 00fa 80BC     		pop	{r7}
 3198 00fc 7047     		bx	lr
 3199              		.cfi_endproc
 3200              	.LFE160:
 3202 00fe 00BF     		.section	.text.sai0_tx_isr,"ax",%progbits
 3203              		.align	2
 3204              		.global	sai0_tx_isr
 3205              		.thumb
 3206              		.thumb_func
 3208              	sai0_tx_isr:
 3209              	.LFB161:
1145:../Sources/drivers/sai/sai.c **** 
1146:../Sources/drivers/sai/sai.c **** 
1147:../Sources/drivers/sai/sai.c **** 
1148:../Sources/drivers/sai/sai.c **** void sai0_tx_isr(void)
1149:../Sources/drivers/sai/sai.c **** {
 3210              		.loc 1 1149 0
 3211              		.cfi_startproc
 3212              		@ args = 0, pretend = 0, frame = 0
 3213              		@ frame_needed = 1, uses_anonymous_args = 0
 3214 0000 80B5     		push	{r7, lr}
 3215              	.LCFI98:
 3216              		.cfi_def_cfa_offset 8
 3217              		.cfi_offset 7, -8
 3218              		.cfi_offset 14, -4
 3219 0002 00AF     		add	r7, sp, #0
 3220              	.LCFI99:
 3221              		.cfi_def_cfa_register 7
1150:../Sources/drivers/sai/sai.c ****     I2S_TCSR_REG(I2S0_BASE_PTR) &= ~(I2S_TCSR_FRF_MASK);
 3222              		.loc 1 1150 0
 3223 0004 4FF47043 		mov	r3, #61440
 3224 0008 C4F20203 		movt	r3, 16386
 3225 000c 4FF47042 		mov	r2, #61440
 3226 0010 C4F20202 		movt	r2, 16386
 3227 0014 1268     		ldr	r2, [r2, #0]
 3228 0016 22F48032 		bic	r2, r2, #65536
 3229 001a 1A60     		str	r2, [r3, #0]
1151:../Sources/drivers/sai/sai.c ****     //Send out the last Queued up values
1152:../Sources/drivers/sai/sai.c ****     I2S0_TDR0 = LeftOut;
 3230              		.loc 1 1152 0
 3231 001c 4FF47043 		mov	r3, #61440
 3232 0020 C4F20203 		movt	r3, 16386
 3233 0024 40F20002 		movw	r2, #:lower16:LeftOut
 3234 0028 C0F20002 		movt	r2, #:upper16:LeftOut
 3235 002c 1268     		ldr	r2, [r2, #0]
 3236 002e 1A62     		str	r2, [r3, #32]
1153:../Sources/drivers/sai/sai.c ****     I2S0_TDR0 = RightOut;
 3237              		.loc 1 1153 0
 3238 0030 4FF47043 		mov	r3, #61440
 3239 0034 C4F20203 		movt	r3, 16386
 3240 0038 40F20002 		movw	r2, #:lower16:RightOut
 3241 003c C0F20002 		movt	r2, #:upper16:RightOut
 3242 0040 1268     		ldr	r2, [r2, #0]
 3243 0042 1A62     		str	r2, [r3, #32]
1154:../Sources/drivers/sai/sai.c ****     //Process the next set of samples
1155:../Sources/drivers/sai/sai.c ****     AudioProcess();
 3244              		.loc 1 1155 0
 3245 0044 FFF7FEFF 		bl	AudioProcess
1156:../Sources/drivers/sai/sai.c **** }
 3246              		.loc 1 1156 0
 3247 0048 80BD     		pop	{r7, pc}
 3248              		.cfi_endproc
 3249              	.LFE161:
 3251 004a 00BF     		.section	.text.sai1_rx_isr,"ax",%progbits
 3252              		.align	2
 3253              		.global	sai1_rx_isr
 3254              		.thumb
 3255              		.thumb_func
 3257              	sai1_rx_isr:
 3258              	.LFB162:
1157:../Sources/drivers/sai/sai.c **** 
1158:../Sources/drivers/sai/sai.c **** void sai1_rx_isr(void)
1159:../Sources/drivers/sai/sai.c **** {
 3259              		.loc 1 1159 0
 3260              		.cfi_startproc
 3261              		@ args = 0, pretend = 0, frame = 0
 3262              		@ frame_needed = 1, uses_anonymous_args = 0
 3263              		@ link register save eliminated.
 3264 0000 80B4     		push	{r7}
 3265              	.LCFI100:
 3266              		.cfi_def_cfa_offset 4
 3267              		.cfi_offset 7, -4
 3268 0002 00AF     		add	r7, sp, #0
 3269              	.LCFI101:
 3270              		.cfi_def_cfa_register 7
1160:../Sources/drivers/sai/sai.c **** }
 3271              		.loc 1 1160 0
 3272 0004 BD46     		mov	sp, r7
 3273 0006 80BC     		pop	{r7}
 3274 0008 7047     		bx	lr
 3275              		.cfi_endproc
 3276              	.LFE162:
 3278 000a 00BF     		.text
 3279              	.Letext0:
 3280              		.file 2 "C:/Freescale/CW MCU v10.6/MCU/ARM_GCC_Support/ewl/EWL_C/include/cstdint"
 3281              		.file 3 "C:/Users/ehughes/Documents/GitHub/MonkeyJam/MonkeyJam/Project_Headers/MK20D5.h"
 3282              		.file 4 "C:/Users/ehughes/Documents/GitHub/MonkeyJam/CMSIS_DSP_3.2/Sources/Include/arm_math.h"
 3283              		.file 5 "../Sources/drivers/sai/../../DSP/AudioProcess.h"
 3284              		.file 6 "../Sources/drivers/sai/sai.h"
DEFINED SYMBOLS
                            *ABS*:00000000 sai.c
C:\Users\ehughes\AppData\Local\Temp\ccqNw2KB.s:19     .text.sai_pinmux_init:00000000 $t
C:\Users\ehughes\AppData\Local\Temp\ccqNw2KB.s:24     .text.sai_pinmux_init:00000000 sai_pinmux_init
C:\Users\ehughes\AppData\Local\Temp\ccqNw2KB.s:155    .text.sai_stop_dbg_enable:00000000 $t
C:\Users\ehughes\AppData\Local\Temp\ccqNw2KB.s:160    .text.sai_stop_dbg_enable:00000000 sai_stop_dbg_enable
C:\Users\ehughes\AppData\Local\Temp\ccqNw2KB.s:291    .text.sai_fifo_reset:00000000 $t
C:\Users\ehughes\AppData\Local\Temp\ccqNw2KB.s:296    .text.sai_fifo_reset:00000000 sai_fifo_reset
C:\Users\ehughes\AppData\Local\Temp\ccqNw2KB.s:353    .text.sai_soft_reset:00000000 $t
C:\Users\ehughes\AppData\Local\Temp\ccqNw2KB.s:358    .text.sai_soft_reset:00000000 sai_soft_reset
C:\Users\ehughes\AppData\Local\Temp\ccqNw2KB.s:431    .text.sai_interrupt_enable:00000000 $t
C:\Users\ehughes\AppData\Local\Temp\ccqNw2KB.s:436    .text.sai_interrupt_enable:00000000 sai_interrupt_enable
C:\Users\ehughes\AppData\Local\Temp\ccqNw2KB.s:493    .text.sai_clear_flags:00000000 $t
C:\Users\ehughes\AppData\Local\Temp\ccqNw2KB.s:498    .text.sai_clear_flags:00000000 sai_clear_flags
C:\Users\ehughes\AppData\Local\Temp\ccqNw2KB.s:555    .text.sai_fifo_request_dma_enable:00000000 $t
C:\Users\ehughes\AppData\Local\Temp\ccqNw2KB.s:560    .text.sai_fifo_request_dma_enable:00000000 sai_fifo_request_dma_enable
C:\Users\ehughes\AppData\Local\Temp\ccqNw2KB.s:617    .text.sai_fifo_warning_dma_enable:00000000 $t
C:\Users\ehughes\AppData\Local\Temp\ccqNw2KB.s:622    .text.sai_fifo_warning_dma_enable:00000000 sai_fifo_warning_dma_enable
C:\Users\ehughes\AppData\Local\Temp\ccqNw2KB.s:679    .text.sai_enable:00000000 $t
C:\Users\ehughes\AppData\Local\Temp\ccqNw2KB.s:684    .text.sai_enable:00000000 sai_enable
C:\Users\ehughes\AppData\Local\Temp\ccqNw2KB.s:741    .text.sai_disable:00000000 $t
C:\Users\ehughes\AppData\Local\Temp\ccqNw2KB.s:746    .text.sai_disable:00000000 sai_disable
C:\Users\ehughes\AppData\Local\Temp\ccqNw2KB.s:803    .text.sai_watermark_config:00000000 $t
C:\Users\ehughes\AppData\Local\Temp\ccqNw2KB.s:808    .text.sai_watermark_config:00000000 sai_watermark_config
C:\Users\ehughes\AppData\Local\Temp\ccqNw2KB.s:861    .text.sai_mode_config:00000000 $t
C:\Users\ehughes\AppData\Local\Temp\ccqNw2KB.s:866    .text.sai_mode_config:00000000 sai_mode_config
C:\Users\ehughes\AppData\Local\Temp\ccqNw2KB.s:1017   .text.sai_bclk_config:00000000 $t
C:\Users\ehughes\AppData\Local\Temp\ccqNw2KB.s:1022   .text.sai_bclk_config:00000000 sai_bclk_config
C:\Users\ehughes\AppData\Local\Temp\ccqNw2KB.s:1215   .text.sai_bclk_en:00000000 $t
C:\Users\ehughes\AppData\Local\Temp\ccqNw2KB.s:1220   .text.sai_bclk_en:00000000 sai_bclk_en
C:\Users\ehughes\AppData\Local\Temp\ccqNw2KB.s:1276   .text.sai_bclk_dis:00000000 $t
C:\Users\ehughes\AppData\Local\Temp\ccqNw2KB.s:1281   .text.sai_bclk_dis:00000000 sai_bclk_dis
C:\Users\ehughes\AppData\Local\Temp\ccqNw2KB.s:1337   .text.sai_channel_enable:00000000 $t
C:\Users\ehughes\AppData\Local\Temp\ccqNw2KB.s:1342   .text.sai_channel_enable:00000000 sai_channel_enable
C:\Users\ehughes\AppData\Local\Temp\ccqNw2KB.s:1407   .text.sai_channel_disable:00000000 $t
C:\Users\ehughes\AppData\Local\Temp\ccqNw2KB.s:1412   .text.sai_channel_disable:00000000 sai_channel_disable
C:\Users\ehughes\AppData\Local\Temp\ccqNw2KB.s:1479   .text.sai_word_flg_config:00000000 $t
C:\Users\ehughes\AppData\Local\Temp\ccqNw2KB.s:1484   .text.sai_word_flg_config:00000000 sai_word_flg_config
C:\Users\ehughes\AppData\Local\Temp\ccqNw2KB.s:1547   .text.sai_frame_config:00000000 $t
C:\Users\ehughes\AppData\Local\Temp\ccqNw2KB.s:1552   .text.sai_frame_config:00000000 sai_frame_config
C:\Users\ehughes\AppData\Local\Temp\ccqNw2KB.s:1703   .text.sai_frameclk_config:00000000 $t
C:\Users\ehughes\AppData\Local\Temp\ccqNw2KB.s:1708   .text.sai_frameclk_config:00000000 sai_frameclk_config
C:\Users\ehughes\AppData\Local\Temp\ccqNw2KB.s:1885   .text.sai_wordlength_config:00000000 $t
C:\Users\ehughes\AppData\Local\Temp\ccqNw2KB.s:1890   .text.sai_wordlength_config:00000000 sai_wordlength_config
C:\Users\ehughes\AppData\Local\Temp\ccqNw2KB.s:2023   .text.sai_tx:00000000 $t
C:\Users\ehughes\AppData\Local\Temp\ccqNw2KB.s:2028   .text.sai_tx:00000000 sai_tx
C:\Users\ehughes\AppData\Local\Temp\ccqNw2KB.s:2254   .text.sai_tx_fifo_status:00000000 sai_tx_fifo_status
C:\Users\ehughes\AppData\Local\Temp\ccqNw2KB.s:2087   .text.sai_wr_tdr:00000000 $t
C:\Users\ehughes\AppData\Local\Temp\ccqNw2KB.s:2092   .text.sai_wr_tdr:00000000 sai_wr_tdr
C:\Users\ehughes\AppData\Local\Temp\ccqNw2KB.s:2135   .text.sai_rx:00000000 $t
C:\Users\ehughes\AppData\Local\Temp\ccqNw2KB.s:2140   .text.sai_rx:00000000 sai_rx
C:\Users\ehughes\AppData\Local\Temp\ccqNw2KB.s:2341   .text.sai_rx_fifo_status:00000000 sai_rx_fifo_status
C:\Users\ehughes\AppData\Local\Temp\ccqNw2KB.s:2200   .text.sai_rd_rdr:00000000 $t
C:\Users\ehughes\AppData\Local\Temp\ccqNw2KB.s:2205   .text.sai_rd_rdr:00000000 sai_rd_rdr
C:\Users\ehughes\AppData\Local\Temp\ccqNw2KB.s:2249   .text.sai_tx_fifo_status:00000000 $t
C:\Users\ehughes\AppData\Local\Temp\ccqNw2KB.s:2336   .text.sai_rx_fifo_status:00000000 $t
C:\Users\ehughes\AppData\Local\Temp\ccqNw2KB.s:2423   .text.sai_mask_config:00000000 $t
C:\Users\ehughes\AppData\Local\Temp\ccqNw2KB.s:2428   .text.sai_mask_config:00000000 sai_mask_config
C:\Users\ehughes\AppData\Local\Temp\ccqNw2KB.s:2480   .text.sai_mclk_config:00000000 $t
C:\Users\ehughes\AppData\Local\Temp\ccqNw2KB.s:2485   .text.sai_mclk_config:00000000 sai_mclk_config
C:\Users\ehughes\AppData\Local\Temp\ccqNw2KB.s:2632   .text.sai_clear_reg:00000000 $t
C:\Users\ehughes\AppData\Local\Temp\ccqNw2KB.s:2637   .text.sai_clear_reg:00000000 sai_clear_reg
C:\Users\ehughes\AppData\Local\Temp\ccqNw2KB.s:2841   .text.sai_monitor_fifo_status:00000000 $t
C:\Users\ehughes\AppData\Local\Temp\ccqNw2KB.s:2846   .text.sai_monitor_fifo_status:00000000 sai_monitor_fifo_status
C:\Users\ehughes\AppData\Local\Temp\ccqNw2KB.s:2876   .text.sai_inteprete_flag:00000000 $t
C:\Users\ehughes\AppData\Local\Temp\ccqNw2KB.s:2881   .text.sai_inteprete_flag:00000000 sai_inteprete_flag
C:\Users\ehughes\AppData\Local\Temp\ccqNw2KB.s:3088   .text.sai0_rx_isr:00000000 $t
C:\Users\ehughes\AppData\Local\Temp\ccqNw2KB.s:3093   .text.sai0_rx_isr:00000000 sai0_rx_isr
C:\Users\ehughes\AppData\Local\Temp\ccqNw2KB.s:3203   .text.sai0_tx_isr:00000000 $t
C:\Users\ehughes\AppData\Local\Temp\ccqNw2KB.s:3208   .text.sai0_tx_isr:00000000 sai0_tx_isr
C:\Users\ehughes\AppData\Local\Temp\ccqNw2KB.s:3252   .text.sai1_rx_isr:00000000 $t
C:\Users\ehughes\AppData\Local\Temp\ccqNw2KB.s:3257   .text.sai1_rx_isr:00000000 sai1_rx_isr
                     .debug_frame:00000010 $d

UNDEFINED SYMBOLS
LeftIn
RightIn
LeftOut
RightOut
AudioProcess
