   1              		.syntax unified
   2              		.cpu cortex-m4
   3              		.fpu softvfp
   4              		.eabi_attribute 20, 1
   5              		.eabi_attribute 21, 1
   6              		.eabi_attribute 23, 3
   7              		.eabi_attribute 24, 1
   8              		.eabi_attribute 25, 1
   9              		.eabi_attribute 26, 1
  10              		.eabi_attribute 30, 6
  11              		.eabi_attribute 34, 1
  12              		.eabi_attribute 18, 4
  13              		.thumb
  14              		.file	"sai.c"
  15              		.text
  16              	.Ltext0:
  17              		.cfi_sections	.debug_frame
  18              		.section	.text.sai_pinmux_init,"ax",%progbits
  19              		.align	2
  20              		.global	sai_pinmux_init
  21              		.thumb
  22              		.thumb_func
  24              	sai_pinmux_init:
  25              	.LFB128:
  26              		.file 1 "../Sources/drivers/sai/sai.c"
   1:../Sources/drivers/sai/sai.c **** /*
   2:../Sources/drivers/sai/sai.c ****  *	File: sai.c
   3:../Sources/drivers/sai/sai.c ****  *	Purpose: SAI module driver
   4:../Sources/drivers/sai/sai.c ****  *	Author: Wang Hao (B17539)
   5:../Sources/drivers/sai/sai.c ****  *      Modified by Li Kan (B30657)
   6:../Sources/drivers/sai/sai.c **** */
   7:../Sources/drivers/sai/sai.c **** 
   8:../Sources/drivers/sai/sai.c **** #include "../../cpu/arm_cm4.h"
   9:../Sources/drivers/sai/sai.c **** #include "derivative.h"
  10:../Sources/drivers/sai/sai.c **** #include "sai.h"
  11:../Sources/drivers/sai/sai.c **** #include "../frdm-k20-def.h"
  12:../Sources/drivers/sai/sai.c **** #include "../../DSP/MathTables.h"
  13:../Sources/drivers/sai/sai.c **** #include "../../DSP/AudioProcess.h"
  14:../Sources/drivers/sai/sai.c **** #include "../IO.h"
  15:../Sources/drivers/sai/sai.c **** 
  16:../Sources/drivers/sai/sai.c **** /*
  17:../Sources/drivers/sai/sai.c ****  *	I2S0 port pins
  18:../Sources/drivers/sai/sai.c ****  *	I2S0_TX_BCLK - 	PTC3 or PTB18 or PTA5
  19:../Sources/drivers/sai/sai.c ****  *	I2S0_TX_FS - 	PTC2 or PTB19  or PTA13
  20:../Sources/drivers/sai/sai.c ****  *	I2S0_RX_BCLK - 	PTC9	or PTC6
  21:../Sources/drivers/sai/sai.c ****  *	I2S0_RX_FS - 	PTC10 or PTC7
  22:../Sources/drivers/sai/sai.c ****  * 	I2S0_RXD0 -	PTC5
  23:../Sources/drivers/sai/sai.c ****  *	I2S0_RXD1 - 	PTC11
  24:../Sources/drivers/sai/sai.c ****  *	I2S0_TXD0 -	PTC1  or PTA12
  25:../Sources/drivers/sai/sai.c ****  *	I2S0_TXD1 - 	PTC0
  26:../Sources/drivers/sai/sai.c ****  * 	I2S0_MCLK - 	PTC6 or PTC8
  27:../Sources/drivers/sai/sai.c ****  *
  28:../Sources/drivers/sai/sai.c ****  *
  29:../Sources/drivers/sai/sai.c **** */
  30:../Sources/drivers/sai/sai.c **** 
  31:../Sources/drivers/sai/sai.c **** /*
  32:../Sources/drivers/sai/sai.c **** *	Input parameter
  33:../Sources/drivers/sai/sai.c **** *	port:		SAI module used
  34:../Sources/drivers/sai/sai.c **** *	setting:	which pin mux setting used, please refer to above pin mux settings available on 256BGA p
  35:../Sources/drivers/sai/sai.c **** */
  36:../Sources/drivers/sai/sai.c **** 
  37:../Sources/drivers/sai/sai.c **** void sai_pinmux_init
  38:../Sources/drivers/sai/sai.c **** (
  39:../Sources/drivers/sai/sai.c ****     unsigned char   port,
  40:../Sources/drivers/sai/sai.c ****     unsigned char   setting
  41:../Sources/drivers/sai/sai.c **** )
  42:../Sources/drivers/sai/sai.c **** {
  27              		.loc 1 42 0
  28              		.cfi_startproc
  29              		@ args = 0, pretend = 0, frame = 8
  30              		@ frame_needed = 1, uses_anonymous_args = 0
  31              		@ link register save eliminated.
  32 0000 80B4     		push	{r7}
  33              	.LCFI0:
  34              		.cfi_def_cfa_offset 4
  35              		.cfi_offset 7, -4
  36 0002 83B0     		sub	sp, sp, #12
  37              	.LCFI1:
  38              		.cfi_def_cfa_offset 16
  39 0004 00AF     		add	r7, sp, #0
  40              	.LCFI2:
  41              		.cfi_def_cfa_register 7
  42 0006 0246     		mov	r2, r0
  43 0008 0B46     		mov	r3, r1
  44 000a FA71     		strb	r2, [r7, #7]
  45 000c BB71     		strb	r3, [r7, #6]
  43:../Sources/drivers/sai/sai.c ****     if(port == 0)
  46              		.loc 1 43 0
  47 000e FB79     		ldrb	r3, [r7, #7]	@ zero_extendqisi2
  48 0010 002B     		cmp	r3, #0
  49 0012 40F08C80 		bne	.L1
  44:../Sources/drivers/sai/sai.c ****         {
  45:../Sources/drivers/sai/sai.c ****             if(setting == 0)                        //using PORTC pins
  50              		.loc 1 45 0
  51 0016 BB79     		ldrb	r3, [r7, #6]	@ zero_extendqisi2
  52 0018 002B     		cmp	r3, #0
  53 001a 46D1     		bne	.L3
  46:../Sources/drivers/sai/sai.c ****                 {
  47:../Sources/drivers/sai/sai.c ****                     PORTC_PCR(3) = PORT_PCR_MUX(6);     //PTC3(ALT6), I2S0_TX_BCLK	-	J37 pin2
  54              		.loc 1 47 0
  55 001c 4FF43043 		mov	r3, #45056
  56 0020 C4F20403 		movt	r3, 16388
  57 0024 4FF4C062 		mov	r2, #1536
  58 0028 DA60     		str	r2, [r3, #12]
  48:../Sources/drivers/sai/sai.c ****                     PORTC_PCR(2) = PORT_PCR_MUX(6);     //PTC2(ALT6), I2S0_TX_FS	-	J51 pin11 or 14
  59              		.loc 1 48 0
  60 002a 4FF43043 		mov	r3, #45056
  61 002e C4F20403 		movt	r3, 16388
  62 0032 4FF4C062 		mov	r2, #1536
  63 0036 9A60     		str	r2, [r3, #8]
  49:../Sources/drivers/sai/sai.c ****                     PORTC_PCR(9) = PORT_PCR_MUX(4);     //PTC9(ALT4), I2S0_RX_BCLK	-	J44 pin5
  64              		.loc 1 49 0
  65 0038 4FF43043 		mov	r3, #45056
  66 003c C4F20403 		movt	r3, 16388
  67 0040 4FF48062 		mov	r2, #1024
  68 0044 5A62     		str	r2, [r3, #36]
  50:../Sources/drivers/sai/sai.c ****                     PORTC_PCR(10) = PORT_PCR_MUX(4);    //PTC10(ALT4), I2S0_RX_FS	-	J44 pin8
  69              		.loc 1 50 0
  70 0046 4FF43043 		mov	r3, #45056
  71 004a C4F20403 		movt	r3, 16388
  72 004e 4FF48062 		mov	r2, #1024
  73 0052 9A62     		str	r2, [r3, #40]
  51:../Sources/drivers/sai/sai.c ****                     PORTC_PCR(5) = PORT_PCR_MUX(4);     //PTC5(ALT4), I2S0_RXD0	-	J37 pin8
  74              		.loc 1 51 0
  75 0054 4FF43043 		mov	r3, #45056
  76 0058 C4F20403 		movt	r3, 16388
  77 005c 4FF48062 		mov	r2, #1024
  78 0060 5A61     		str	r2, [r3, #20]
  52:../Sources/drivers/sai/sai.c ****                     PORTC_PCR(11) = PORT_PCR_MUX(4);    //PTC11(ALT4), I2S0_RXD1	-	J44 pin11
  79              		.loc 1 52 0
  80 0062 4FF43043 		mov	r3, #45056
  81 0066 C4F20403 		movt	r3, 16388
  82 006a 4FF48062 		mov	r2, #1024
  83 006e DA62     		str	r2, [r3, #44]
  53:../Sources/drivers/sai/sai.c ****                     PORTC_PCR(1) = PORT_PCR_MUX(6);     //PTC1(ALT6), I2S0_TXD0	-	J51 pin5 or 8
  84              		.loc 1 53 0
  85 0070 4FF43043 		mov	r3, #45056
  86 0074 C4F20403 		movt	r3, 16388
  87 0078 4FF4C062 		mov	r2, #1536
  88 007c 5A60     		str	r2, [r3, #4]
  54:../Sources/drivers/sai/sai.c ****                     PORTC_PCR(0) = PORT_PCR_MUX(6);     //PTC0(ALT6), I2S0_TXD1	-	J51 pin2
  89              		.loc 1 54 0
  90 007e 4FF43043 		mov	r3, #45056
  91 0082 C4F20403 		movt	r3, 16388
  92 0086 4FF4C062 		mov	r2, #1536
  93 008a 1A60     		str	r2, [r3, #0]
  55:../Sources/drivers/sai/sai.c ****                     PORTC_PCR(6) = PORT_PCR_MUX(6);     //PTC6(ALT6), I2S0_MCLK	-	J37 pin11
  94              		.loc 1 55 0
  95 008c 4FF43043 		mov	r3, #45056
  96 0090 C4F20403 		movt	r3, 16388
  97 0094 4FF4C062 		mov	r2, #1536
  98 0098 9A61     		str	r2, [r3, #24]
  56:../Sources/drivers/sai/sai.c ****                     PORTC_PCR(8) = PORT_PCR_MUX(4);     //PTC6(ALT6), I2S0_MCLK	-	J37 pin11
  99              		.loc 1 56 0
 100 009a 4FF43043 		mov	r3, #45056
 101 009e C4F20403 		movt	r3, 16388
 102 00a2 4FF48062 		mov	r2, #1024
 103 00a6 1A62     		str	r2, [r3, #32]
 104 00a8 41E0     		b	.L1
 105              	.L3:
  57:../Sources/drivers/sai/sai.c ****                 }
  58:../Sources/drivers/sai/sai.c ****             else if(setting == 1)                   //using PORTA pins
 106              		.loc 1 58 0
 107 00aa BB79     		ldrb	r3, [r7, #6]	@ zero_extendqisi2
 108 00ac 012B     		cmp	r3, #1
 109 00ae 3ED1     		bne	.L1
  59:../Sources/drivers/sai/sai.c ****                 {
  60:../Sources/drivers/sai/sai.c ****                     PORTA_PCR(5) = PORT_PCR_MUX(6);     //PTA5(ALT6), I2S0_TX_BCLK -	J35 pin8
 110              		.loc 1 60 0
 111 00b0 4FF41043 		mov	r3, #36864
 112 00b4 C4F20403 		movt	r3, 16388
 113 00b8 4FF4C062 		mov	r2, #1536
 114 00bc 5A61     		str	r2, [r3, #20]
  61:../Sources/drivers/sai/sai.c ****                     PORTA_PCR(13) = PORT_PCR_MUX(6);    //PTA13(ALT6), I2S0_TX_FS -		J35 pin14
 115              		.loc 1 61 0
 116 00be 4FF41043 		mov	r3, #36864
 117 00c2 C4F20403 		movt	r3, 16388
 118 00c6 4FF4C062 		mov	r2, #1536
 119 00ca 5A63     		str	r2, [r3, #52]
  62:../Sources/drivers/sai/sai.c ****                     PORTC_PCR(6) = PORT_PCR_MUX(4);     //PTC6(ALT4), I2S0_RX_BCLK	-	J37 pin11
 120              		.loc 1 62 0
 121 00cc 4FF43043 		mov	r3, #45056
 122 00d0 C4F20403 		movt	r3, 16388
 123 00d4 4FF48062 		mov	r2, #1024
 124 00d8 9A61     		str	r2, [r3, #24]
  63:../Sources/drivers/sai/sai.c ****                     PORTC_PCR(7) = PORT_PCR_MUX(4);     //PTC7(ALT4), I2S0_RX_FS	-	J37 pin14
 125              		.loc 1 63 0
 126 00da 4FF43043 		mov	r3, #45056
 127 00de C4F20403 		movt	r3, 16388
 128 00e2 4FF48062 		mov	r2, #1024
 129 00e6 DA61     		str	r2, [r3, #28]
  64:../Sources/drivers/sai/sai.c ****                     PORTC_PCR(5) = PORT_PCR_MUX(4);     //PTC5(ALT4), I2S0_RXD0	-
 130              		.loc 1 64 0
 131 00e8 4FF43043 		mov	r3, #45056
 132 00ec C4F20403 		movt	r3, 16388
 133 00f0 4FF48062 		mov	r2, #1024
 134 00f4 5A61     		str	r2, [r3, #20]
  65:../Sources/drivers/sai/sai.c ****                     PORTC_PCR(11) = PORT_PCR_MUX(4);    //PTC11(ALT4), I2S0_RXD1 -
 135              		.loc 1 65 0
 136 00f6 4FF43043 		mov	r3, #45056
 137 00fa C4F20403 		movt	r3, 16388
 138 00fe 4FF48062 		mov	r2, #1024
 139 0102 DA62     		str	r2, [r3, #44]
  66:../Sources/drivers/sai/sai.c ****                     PORTA_PCR(12) = PORT_PCR_MUX(6);    //PTA12(ALT6), I2S0_TXD0	-	J35 pin11
 140              		.loc 1 66 0
 141 0104 4FF41043 		mov	r3, #36864
 142 0108 C4F20403 		movt	r3, 16388
 143 010c 4FF4C062 		mov	r2, #1536
 144 0110 1A63     		str	r2, [r3, #48]
  67:../Sources/drivers/sai/sai.c ****                     PORTC_PCR(0) = PORT_PCR_MUX(6);     //PTC0(ALT6), I2S0_TXD1 -
 145              		.loc 1 67 0
 146 0112 4FF43043 		mov	r3, #45056
 147 0116 C4F20403 		movt	r3, 16388
 148 011a 4FF4C062 		mov	r2, #1536
 149 011e 1A60     		str	r2, [r3, #0]
  68:../Sources/drivers/sai/sai.c ****                     PORTC_PCR(8) = PORT_PCR_MUX(4);     //PTC8(ALT4), I2S0_MCLK	-	J44 pin2
 150              		.loc 1 68 0
 151 0120 4FF43043 		mov	r3, #45056
 152 0124 C4F20403 		movt	r3, 16388
 153 0128 4FF48062 		mov	r2, #1024
 154 012c 1A62     		str	r2, [r3, #32]
 155              	.L1:
  69:../Sources/drivers/sai/sai.c ****                 }
  70:../Sources/drivers/sai/sai.c ****         }
  71:../Sources/drivers/sai/sai.c ****     else if(port == 1)
  72:../Sources/drivers/sai/sai.c ****         {
  73:../Sources/drivers/sai/sai.c ****         }
  74:../Sources/drivers/sai/sai.c **** }
 156              		.loc 1 74 0
 157 012e 07F10C07 		add	r7, r7, #12
 158 0132 BD46     		mov	sp, r7
 159 0134 80BC     		pop	{r7}
 160 0136 7047     		bx	lr
 161              		.cfi_endproc
 162              	.LFE128:
 164              		.section	.text.sai_stop_dbg_enable,"ax",%progbits
 165              		.align	2
 166              		.global	sai_stop_dbg_enable
 167              		.thumb
 168              		.thumb_func
 170              	sai_stop_dbg_enable:
 171              	.LFB129:
  75:../Sources/drivers/sai/sai.c **** 
  76:../Sources/drivers/sai/sai.c **** /*
  77:../Sources/drivers/sai/sai.c **** *	Input Parameter:
  78:../Sources/drivers/sai/sai.c **** */
  79:../Sources/drivers/sai/sai.c **** 
  80:../Sources/drivers/sai/sai.c **** void sai_stop_dbg_enable
  81:../Sources/drivers/sai/sai.c **** (
  82:../Sources/drivers/sai/sai.c ****     unsigned char   port,
  83:../Sources/drivers/sai/sai.c ****     unsigned char   tx,
  84:../Sources/drivers/sai/sai.c ****     unsigned char   stope,
  85:../Sources/drivers/sai/sai.c ****     unsigned char   dbge
  86:../Sources/drivers/sai/sai.c **** )
  87:../Sources/drivers/sai/sai.c **** {
 172              		.loc 1 87 0
 173              		.cfi_startproc
 174              		@ args = 0, pretend = 0, frame = 8
 175              		@ frame_needed = 1, uses_anonymous_args = 0
 176              		@ link register save eliminated.
 177 0000 80B4     		push	{r7}
 178              	.LCFI3:
 179              		.cfi_def_cfa_offset 4
 180              		.cfi_offset 7, -4
 181 0002 83B0     		sub	sp, sp, #12
 182              	.LCFI4:
 183              		.cfi_def_cfa_offset 16
 184 0004 00AF     		add	r7, sp, #0
 185              	.LCFI5:
 186              		.cfi_def_cfa_register 7
 187 0006 F871     		strb	r0, [r7, #7]
 188 0008 B971     		strb	r1, [r7, #6]
 189 000a 7A71     		strb	r2, [r7, #5]
 190 000c 3B71     		strb	r3, [r7, #4]
  88:../Sources/drivers/sai/sai.c ****     if(port == 0)
 191              		.loc 1 88 0
 192 000e FB79     		ldrb	r3, [r7, #7]	@ zero_extendqisi2
 193 0010 002B     		cmp	r3, #0
 194 0012 7BD1     		bne	.L4
  89:../Sources/drivers/sai/sai.c ****         {
  90:../Sources/drivers/sai/sai.c ****             if(tx)
 195              		.loc 1 90 0
 196 0014 BB79     		ldrb	r3, [r7, #6]	@ zero_extendqisi2
 197 0016 002B     		cmp	r3, #0
 198 0018 38D0     		beq	.L6
  91:../Sources/drivers/sai/sai.c ****                 {
  92:../Sources/drivers/sai/sai.c ****                     if(stope) I2S_TCSR_REG(I2S0_BASE_PTR) |= I2S_TCSR_STOPE_MASK;   //stop enable
 199              		.loc 1 92 0
 200 001a 7B79     		ldrb	r3, [r7, #5]	@ zero_extendqisi2
 201 001c 002B     		cmp	r3, #0
 202 001e 0CD0     		beq	.L7
 203              		.loc 1 92 0 is_stmt 0
 204 0020 4FF47043 		mov	r3, #61440
 205 0024 C4F20203 		movt	r3, 16386
 206 0028 4FF47042 		mov	r2, #61440
 207 002c C4F20202 		movt	r2, 16386
 208 0030 1268     		ldr	r2, [r2, #0]
 209 0032 42F08042 		orr	r2, r2, #1073741824
 210 0036 1A60     		str	r2, [r3, #0]
 211 0038 0BE0     		b	.L8
 212              	.L7:
  93:../Sources/drivers/sai/sai.c ****                     else
  94:../Sources/drivers/sai/sai.c ****                         I2S_TCSR_REG(I2S0_BASE_PTR) &= ~I2S_TCSR_STOPE_MASK;        //stop disable
 213              		.loc 1 94 0 is_stmt 1
 214 003a 4FF47043 		mov	r3, #61440
 215 003e C4F20203 		movt	r3, 16386
 216 0042 4FF47042 		mov	r2, #61440
 217 0046 C4F20202 		movt	r2, 16386
 218 004a 1268     		ldr	r2, [r2, #0]
 219 004c 22F08042 		bic	r2, r2, #1073741824
 220 0050 1A60     		str	r2, [r3, #0]
 221              	.L8:
  95:../Sources/drivers/sai/sai.c **** 
  96:../Sources/drivers/sai/sai.c ****                     if(dbge) I2S_TCSR_REG(I2S0_BASE_PTR) |= I2S_TCSR_DBGE_MASK;     //debug enable
 222              		.loc 1 96 0
 223 0052 3B79     		ldrb	r3, [r7, #4]	@ zero_extendqisi2
 224 0054 002B     		cmp	r3, #0
 225 0056 0CD0     		beq	.L9
 226              		.loc 1 96 0 is_stmt 0
 227 0058 4FF47043 		mov	r3, #61440
 228 005c C4F20203 		movt	r3, 16386
 229 0060 4FF47042 		mov	r2, #61440
 230 0064 C4F20202 		movt	r2, 16386
 231 0068 1268     		ldr	r2, [r2, #0]
 232 006a 42F00052 		orr	r2, r2, #536870912
 233 006e 1A60     		str	r2, [r3, #0]
 234 0070 4CE0     		b	.L4
 235              	.L9:
  97:../Sources/drivers/sai/sai.c ****                     else
  98:../Sources/drivers/sai/sai.c ****                         I2S_TCSR_REG(I2S0_BASE_PTR) &= ~I2S_TCSR_DBGE_MASK;         //debug disable
 236              		.loc 1 98 0 is_stmt 1
 237 0072 4FF47043 		mov	r3, #61440
 238 0076 C4F20203 		movt	r3, 16386
 239 007a 4FF47042 		mov	r2, #61440
 240 007e C4F20202 		movt	r2, 16386
 241 0082 1268     		ldr	r2, [r2, #0]
 242 0084 22F00052 		bic	r2, r2, #536870912
 243 0088 1A60     		str	r2, [r3, #0]
 244 008a 3FE0     		b	.L4
 245              	.L6:
  99:../Sources/drivers/sai/sai.c ****                 }
 100:../Sources/drivers/sai/sai.c ****             else
 101:../Sources/drivers/sai/sai.c ****                 {
 102:../Sources/drivers/sai/sai.c ****                     if(stope) I2S_RCSR_REG(I2S0_BASE_PTR) |= I2S_RCSR_STOPE_MASK;   //stop enable
 246              		.loc 1 102 0
 247 008c 7B79     		ldrb	r3, [r7, #5]	@ zero_extendqisi2
 248 008e 002B     		cmp	r3, #0
 249 0090 0ED0     		beq	.L10
 250              		.loc 1 102 0 is_stmt 0
 251 0092 4FF47043 		mov	r3, #61440
 252 0096 C4F20203 		movt	r3, 16386
 253 009a 4FF47042 		mov	r2, #61440
 254 009e C4F20202 		movt	r2, 16386
 255 00a2 D2F88020 		ldr	r2, [r2, #128]
 256 00a6 42F08042 		orr	r2, r2, #1073741824
 257 00aa C3F88020 		str	r2, [r3, #128]
 258 00ae 0DE0     		b	.L11
 259              	.L10:
 103:../Sources/drivers/sai/sai.c ****                     else
 104:../Sources/drivers/sai/sai.c ****                         I2S_RCSR_REG(I2S0_BASE_PTR) &= ~I2S_RCSR_STOPE_MASK;        //stop disable
 260              		.loc 1 104 0 is_stmt 1
 261 00b0 4FF47043 		mov	r3, #61440
 262 00b4 C4F20203 		movt	r3, 16386
 263 00b8 4FF47042 		mov	r2, #61440
 264 00bc C4F20202 		movt	r2, 16386
 265 00c0 D2F88020 		ldr	r2, [r2, #128]
 266 00c4 22F08042 		bic	r2, r2, #1073741824
 267 00c8 C3F88020 		str	r2, [r3, #128]
 268              	.L11:
 105:../Sources/drivers/sai/sai.c **** 
 106:../Sources/drivers/sai/sai.c ****                     if(dbge) I2S_RCSR_REG(I2S0_BASE_PTR) |= I2S_RCSR_DBGE_MASK;     //debug enable
 269              		.loc 1 106 0
 270 00cc 3B79     		ldrb	r3, [r7, #4]	@ zero_extendqisi2
 271 00ce 002B     		cmp	r3, #0
 272 00d0 0ED0     		beq	.L12
 273              		.loc 1 106 0 is_stmt 0
 274 00d2 4FF47043 		mov	r3, #61440
 275 00d6 C4F20203 		movt	r3, 16386
 276 00da 4FF47042 		mov	r2, #61440
 277 00de C4F20202 		movt	r2, 16386
 278 00e2 D2F88020 		ldr	r2, [r2, #128]
 279 00e6 42F00052 		orr	r2, r2, #536870912
 280 00ea C3F88020 		str	r2, [r3, #128]
 281 00ee 0DE0     		b	.L4
 282              	.L12:
 107:../Sources/drivers/sai/sai.c ****                     else
 108:../Sources/drivers/sai/sai.c ****                         I2S_RCSR_REG(I2S0_BASE_PTR) &= ~I2S_RCSR_DBGE_MASK;         //debug disable
 283              		.loc 1 108 0 is_stmt 1
 284 00f0 4FF47043 		mov	r3, #61440
 285 00f4 C4F20203 		movt	r3, 16386
 286 00f8 4FF47042 		mov	r2, #61440
 287 00fc C4F20202 		movt	r2, 16386
 288 0100 D2F88020 		ldr	r2, [r2, #128]
 289 0104 22F00052 		bic	r2, r2, #536870912
 290 0108 C3F88020 		str	r2, [r3, #128]
 291              	.L4:
 109:../Sources/drivers/sai/sai.c ****                 }
 110:../Sources/drivers/sai/sai.c ****         }
 111:../Sources/drivers/sai/sai.c ****     else if(port == 1)
 112:../Sources/drivers/sai/sai.c ****         {
 113:../Sources/drivers/sai/sai.c ****             //	("Error: Port %d is not available yet.",port);
 114:../Sources/drivers/sai/sai.c ****         }
 115:../Sources/drivers/sai/sai.c **** }
 292              		.loc 1 115 0
 293 010c 07F10C07 		add	r7, r7, #12
 294 0110 BD46     		mov	sp, r7
 295 0112 80BC     		pop	{r7}
 296 0114 7047     		bx	lr
 297              		.cfi_endproc
 298              	.LFE129:
 300 0116 00BF     		.section	.text.sai_fifo_reset,"ax",%progbits
 301              		.align	2
 302              		.global	sai_fifo_reset
 303              		.thumb
 304              		.thumb_func
 306              	sai_fifo_reset:
 307              	.LFB130:
 116:../Sources/drivers/sai/sai.c **** 
 117:../Sources/drivers/sai/sai.c **** /* */
 118:../Sources/drivers/sai/sai.c **** 
 119:../Sources/drivers/sai/sai.c **** void sai_fifo_reset
 120:../Sources/drivers/sai/sai.c **** (
 121:../Sources/drivers/sai/sai.c ****     unsigned char   port,
 122:../Sources/drivers/sai/sai.c ****     unsigned char   tx
 123:../Sources/drivers/sai/sai.c **** )
 124:../Sources/drivers/sai/sai.c **** {
 308              		.loc 1 124 0
 309              		.cfi_startproc
 310              		@ args = 0, pretend = 0, frame = 8
 311              		@ frame_needed = 1, uses_anonymous_args = 0
 312              		@ link register save eliminated.
 313 0000 80B4     		push	{r7}
 314              	.LCFI6:
 315              		.cfi_def_cfa_offset 4
 316              		.cfi_offset 7, -4
 317 0002 83B0     		sub	sp, sp, #12
 318              	.LCFI7:
 319              		.cfi_def_cfa_offset 16
 320 0004 00AF     		add	r7, sp, #0
 321              	.LCFI8:
 322              		.cfi_def_cfa_register 7
 323 0006 0246     		mov	r2, r0
 324 0008 0B46     		mov	r3, r1
 325 000a FA71     		strb	r2, [r7, #7]
 326 000c BB71     		strb	r3, [r7, #6]
 125:../Sources/drivers/sai/sai.c ****     if(port == 0)
 327              		.loc 1 125 0
 328 000e FB79     		ldrb	r3, [r7, #7]	@ zero_extendqisi2
 329 0010 002B     		cmp	r3, #0
 330 0012 1DD1     		bne	.L13
 126:../Sources/drivers/sai/sai.c ****         {
 127:../Sources/drivers/sai/sai.c ****             if(tx) I2S_TCSR_REG(I2S0_BASE_PTR) |= I2S_TCSR_FR_MASK; //FIFO reset
 331              		.loc 1 127 0
 332 0014 BB79     		ldrb	r3, [r7, #6]	@ zero_extendqisi2
 333 0016 002B     		cmp	r3, #0
 334 0018 0CD0     		beq	.L15
 335              		.loc 1 127 0 is_stmt 0
 336 001a 4FF47043 		mov	r3, #61440
 337 001e C4F20203 		movt	r3, 16386
 338 0022 4FF47042 		mov	r2, #61440
 339 0026 C4F20202 		movt	r2, 16386
 340 002a 1268     		ldr	r2, [r2, #0]
 341 002c 42F00072 		orr	r2, r2, #33554432
 342 0030 1A60     		str	r2, [r3, #0]
 343 0032 0DE0     		b	.L13
 344              	.L15:
 128:../Sources/drivers/sai/sai.c ****             else
 129:../Sources/drivers/sai/sai.c ****                 I2S_RCSR_REG(I2S0_BASE_PTR) |= I2S_RCSR_FR_MASK;    //FIFO reset
 345              		.loc 1 129 0 is_stmt 1
 346 0034 4FF47043 		mov	r3, #61440
 347 0038 C4F20203 		movt	r3, 16386
 348 003c 4FF47042 		mov	r2, #61440
 349 0040 C4F20202 		movt	r2, 16386
 350 0044 D2F88020 		ldr	r2, [r2, #128]
 351 0048 42F00072 		orr	r2, r2, #33554432
 352 004c C3F88020 		str	r2, [r3, #128]
 353              	.L13:
 130:../Sources/drivers/sai/sai.c ****         }
 131:../Sources/drivers/sai/sai.c ****     else if(port == 1)
 132:../Sources/drivers/sai/sai.c ****         {
 133:../Sources/drivers/sai/sai.c ****             //("Error: Port %d is not available yet.",port);
 134:../Sources/drivers/sai/sai.c ****         }
 135:../Sources/drivers/sai/sai.c **** }
 354              		.loc 1 135 0
 355 0050 07F10C07 		add	r7, r7, #12
 356 0054 BD46     		mov	sp, r7
 357 0056 80BC     		pop	{r7}
 358 0058 7047     		bx	lr
 359              		.cfi_endproc
 360              	.LFE130:
 362 005a 00BF     		.section	.text.sai_soft_reset,"ax",%progbits
 363              		.align	2
 364              		.global	sai_soft_reset
 365              		.thumb
 366              		.thumb_func
 368              	sai_soft_reset:
 369              	.LFB131:
 136:../Sources/drivers/sai/sai.c **** 
 137:../Sources/drivers/sai/sai.c **** /* */
 138:../Sources/drivers/sai/sai.c **** 
 139:../Sources/drivers/sai/sai.c **** void sai_soft_reset
 140:../Sources/drivers/sai/sai.c **** (
 141:../Sources/drivers/sai/sai.c ****     unsigned char   port,
 142:../Sources/drivers/sai/sai.c ****     unsigned char   tx
 143:../Sources/drivers/sai/sai.c **** )
 144:../Sources/drivers/sai/sai.c **** {
 370              		.loc 1 144 0
 371              		.cfi_startproc
 372              		@ args = 0, pretend = 0, frame = 8
 373              		@ frame_needed = 1, uses_anonymous_args = 0
 374              		@ link register save eliminated.
 375 0000 80B4     		push	{r7}
 376              	.LCFI9:
 377              		.cfi_def_cfa_offset 4
 378              		.cfi_offset 7, -4
 379 0002 83B0     		sub	sp, sp, #12
 380              	.LCFI10:
 381              		.cfi_def_cfa_offset 16
 382 0004 00AF     		add	r7, sp, #0
 383              	.LCFI11:
 384              		.cfi_def_cfa_register 7
 385 0006 0246     		mov	r2, r0
 386 0008 0B46     		mov	r3, r1
 387 000a FA71     		strb	r2, [r7, #7]
 388 000c BB71     		strb	r3, [r7, #6]
 145:../Sources/drivers/sai/sai.c ****     if(port == 0)
 389              		.loc 1 145 0
 390 000e FB79     		ldrb	r3, [r7, #7]	@ zero_extendqisi2
 391 0010 002B     		cmp	r3, #0
 392 0012 37D1     		bne	.L16
 146:../Sources/drivers/sai/sai.c ****         {
 147:../Sources/drivers/sai/sai.c ****             if(tx)
 393              		.loc 1 147 0
 394 0014 BB79     		ldrb	r3, [r7, #6]	@ zero_extendqisi2
 395 0016 002B     		cmp	r3, #0
 396 0018 18D0     		beq	.L18
 148:../Sources/drivers/sai/sai.c ****                 {
 149:../Sources/drivers/sai/sai.c ****                     I2S_TCSR_REG(I2S0_BASE_PTR) |= I2S_TCSR_SR_MASK;    //software reset
 397              		.loc 1 149 0
 398 001a 4FF47043 		mov	r3, #61440
 399 001e C4F20203 		movt	r3, 16386
 400 0022 4FF47042 		mov	r2, #61440
 401 0026 C4F20202 		movt	r2, 16386
 402 002a 1268     		ldr	r2, [r2, #0]
 403 002c 42F08072 		orr	r2, r2, #16777216
 404 0030 1A60     		str	r2, [r3, #0]
 150:../Sources/drivers/sai/sai.c ****                     I2S_TCSR_REG(I2S0_BASE_PTR) &= ~I2S_TCSR_SR_MASK;   //clear software reset bit 
 405              		.loc 1 150 0
 406 0032 4FF47043 		mov	r3, #61440
 407 0036 C4F20203 		movt	r3, 16386
 408 003a 4FF47042 		mov	r2, #61440
 409 003e C4F20202 		movt	r2, 16386
 410 0042 1268     		ldr	r2, [r2, #0]
 411 0044 22F08072 		bic	r2, r2, #16777216
 412 0048 1A60     		str	r2, [r3, #0]
 413 004a 1BE0     		b	.L16
 414              	.L18:
 151:../Sources/drivers/sai/sai.c ****                 }
 152:../Sources/drivers/sai/sai.c ****             else
 153:../Sources/drivers/sai/sai.c ****                 {
 154:../Sources/drivers/sai/sai.c ****                     I2S_RCSR_REG(I2S0_BASE_PTR) |= I2S_RCSR_SR_MASK;    //software reset
 415              		.loc 1 154 0
 416 004c 4FF47043 		mov	r3, #61440
 417 0050 C4F20203 		movt	r3, 16386
 418 0054 4FF47042 		mov	r2, #61440
 419 0058 C4F20202 		movt	r2, 16386
 420 005c D2F88020 		ldr	r2, [r2, #128]
 421 0060 42F08072 		orr	r2, r2, #16777216
 422 0064 C3F88020 		str	r2, [r3, #128]
 155:../Sources/drivers/sai/sai.c ****                     I2S_RCSR_REG(I2S0_BASE_PTR) &= ~I2S_RCSR_SR_MASK;   //clear software reset bit 
 423              		.loc 1 155 0
 424 0068 4FF47043 		mov	r3, #61440
 425 006c C4F20203 		movt	r3, 16386
 426 0070 4FF47042 		mov	r2, #61440
 427 0074 C4F20202 		movt	r2, 16386
 428 0078 D2F88020 		ldr	r2, [r2, #128]
 429 007c 22F08072 		bic	r2, r2, #16777216
 430 0080 C3F88020 		str	r2, [r3, #128]
 431              	.L16:
 156:../Sources/drivers/sai/sai.c ****                 }
 157:../Sources/drivers/sai/sai.c ****         }
 158:../Sources/drivers/sai/sai.c ****     else if(port == 1)
 159:../Sources/drivers/sai/sai.c ****         {
 160:../Sources/drivers/sai/sai.c ****         }
 161:../Sources/drivers/sai/sai.c **** }
 432              		.loc 1 161 0
 433 0084 07F10C07 		add	r7, r7, #12
 434 0088 BD46     		mov	sp, r7
 435 008a 80BC     		pop	{r7}
 436 008c 7047     		bx	lr
 437              		.cfi_endproc
 438              	.LFE131:
 440 008e 00BF     		.section	.text.sai_interrupt_enable,"ax",%progbits
 441              		.align	2
 442              		.global	sai_interrupt_enable
 443              		.thumb
 444              		.thumb_func
 446              	sai_interrupt_enable:
 447              	.LFB132:
 162:../Sources/drivers/sai/sai.c **** 
 163:../Sources/drivers/sai/sai.c **** /* */
 164:../Sources/drivers/sai/sai.c **** 
 165:../Sources/drivers/sai/sai.c **** void sai_interrupt_enable
 166:../Sources/drivers/sai/sai.c **** (
 167:../Sources/drivers/sai/sai.c ****     unsigned char   port,
 168:../Sources/drivers/sai/sai.c ****     unsigned char   tx
 169:../Sources/drivers/sai/sai.c **** )
 170:../Sources/drivers/sai/sai.c **** {
 448              		.loc 1 170 0
 449              		.cfi_startproc
 450              		@ args = 0, pretend = 0, frame = 8
 451              		@ frame_needed = 1, uses_anonymous_args = 0
 452              		@ link register save eliminated.
 453 0000 80B4     		push	{r7}
 454              	.LCFI12:
 455              		.cfi_def_cfa_offset 4
 456              		.cfi_offset 7, -4
 457 0002 83B0     		sub	sp, sp, #12
 458              	.LCFI13:
 459              		.cfi_def_cfa_offset 16
 460 0004 00AF     		add	r7, sp, #0
 461              	.LCFI14:
 462              		.cfi_def_cfa_register 7
 463 0006 0246     		mov	r2, r0
 464 0008 0B46     		mov	r3, r1
 465 000a FA71     		strb	r2, [r7, #7]
 466 000c BB71     		strb	r3, [r7, #6]
 171:../Sources/drivers/sai/sai.c ****     if(port == 0)
 467              		.loc 1 171 0
 468 000e FB79     		ldrb	r3, [r7, #7]	@ zero_extendqisi2
 469 0010 002B     		cmp	r3, #0
 470 0012 1DD1     		bne	.L19
 172:../Sources/drivers/sai/sai.c ****         {
 173:../Sources/drivers/sai/sai.c ****             if(tx)
 471              		.loc 1 173 0
 472 0014 BB79     		ldrb	r3, [r7, #6]	@ zero_extendqisi2
 473 0016 002B     		cmp	r3, #0
 474 0018 0CD0     		beq	.L21
 174:../Sources/drivers/sai/sai.c ****                 {
 175:../Sources/drivers/sai/sai.c ****                     I2S_TCSR_REG(I2S0_BASE_PTR) |= //I2S_TCSR_WSIE_MASK   //word start interrupt en
 475              		.loc 1 175 0
 476 001a 4FF47043 		mov	r3, #61440
 477 001e C4F20203 		movt	r3, 16386
 478 0022 4FF47042 		mov	r2, #61440
 479 0026 C4F20202 		movt	r2, 16386
 480 002a 1268     		ldr	r2, [r2, #0]
 481 002c 42F48072 		orr	r2, r2, #256
 482 0030 1A60     		str	r2, [r3, #0]
 483 0032 0DE0     		b	.L19
 484              	.L21:
 176:../Sources/drivers/sai/sai.c ****                         //| I2S_TCSR_SEIE_MASK    //sync error interrupt enable
 177:../Sources/drivers/sai/sai.c ****                         //| I2S_TCSR_FEIE_MASK    //FIFO error interrupt enable
 178:../Sources/drivers/sai/sai.c ****                         // | I2S_TCSR_FWIE_MASK    //FIFO warning interrupt enable
 179:../Sources/drivers/sai/sai.c ****                         I2S_TCSR_FRIE_MASK;    //FIFO request interrupt enable
 180:../Sources/drivers/sai/sai.c ****                     ;
 181:../Sources/drivers/sai/sai.c ****                 }
 182:../Sources/drivers/sai/sai.c ****             else
 183:../Sources/drivers/sai/sai.c ****                 {
 184:../Sources/drivers/sai/sai.c ****                     I2S_RCSR_REG(I2S0_BASE_PTR) |= I2S_RCSR_FRIE_MASK;  //word start interrupt enab
 485              		.loc 1 184 0
 486 0034 4FF47043 		mov	r3, #61440
 487 0038 C4F20203 		movt	r3, 16386
 488 003c 4FF47042 		mov	r2, #61440
 489 0040 C4F20202 		movt	r2, 16386
 490 0044 D2F88020 		ldr	r2, [r2, #128]
 491 0048 42F48072 		orr	r2, r2, #256
 492 004c C3F88020 		str	r2, [r3, #128]
 493              	.L19:
 185:../Sources/drivers/sai/sai.c ****                     //    I2S_RCSR_REG(I2S0_BASE_PTR) |= I2S_RCSR_WSIE_MASK;  //word start interrup
 186:../Sources/drivers/sai/sai.c ****                 }
 187:../Sources/drivers/sai/sai.c ****         }
 188:../Sources/drivers/sai/sai.c ****     else if(port == 1)
 189:../Sources/drivers/sai/sai.c ****         {
 190:../Sources/drivers/sai/sai.c ****         }
 191:../Sources/drivers/sai/sai.c **** }
 494              		.loc 1 191 0
 495 0050 07F10C07 		add	r7, r7, #12
 496 0054 BD46     		mov	sp, r7
 497 0056 80BC     		pop	{r7}
 498 0058 7047     		bx	lr
 499              		.cfi_endproc
 500              	.LFE132:
 502 005a 00BF     		.section	.text.sai_clear_flags,"ax",%progbits
 503              		.align	2
 504              		.global	sai_clear_flags
 505              		.thumb
 506              		.thumb_func
 508              	sai_clear_flags:
 509              	.LFB133:
 192:../Sources/drivers/sai/sai.c **** 
 193:../Sources/drivers/sai/sai.c **** /* */
 194:../Sources/drivers/sai/sai.c **** 
 195:../Sources/drivers/sai/sai.c **** void sai_clear_flags
 196:../Sources/drivers/sai/sai.c **** (
 197:../Sources/drivers/sai/sai.c ****     unsigned char   port,
 198:../Sources/drivers/sai/sai.c ****     unsigned char   tx
 199:../Sources/drivers/sai/sai.c **** )
 200:../Sources/drivers/sai/sai.c **** {
 510              		.loc 1 200 0
 511              		.cfi_startproc
 512              		@ args = 0, pretend = 0, frame = 8
 513              		@ frame_needed = 1, uses_anonymous_args = 0
 514              		@ link register save eliminated.
 515 0000 80B4     		push	{r7}
 516              	.LCFI15:
 517              		.cfi_def_cfa_offset 4
 518              		.cfi_offset 7, -4
 519 0002 83B0     		sub	sp, sp, #12
 520              	.LCFI16:
 521              		.cfi_def_cfa_offset 16
 522 0004 00AF     		add	r7, sp, #0
 523              	.LCFI17:
 524              		.cfi_def_cfa_register 7
 525 0006 0246     		mov	r2, r0
 526 0008 0B46     		mov	r3, r1
 527 000a FA71     		strb	r2, [r7, #7]
 528 000c BB71     		strb	r3, [r7, #6]
 201:../Sources/drivers/sai/sai.c ****     /* add code for checking if input parameter is valid */
 202:../Sources/drivers/sai/sai.c ****     if(port == 0)
 529              		.loc 1 202 0
 530 000e FB79     		ldrb	r3, [r7, #7]	@ zero_extendqisi2
 531 0010 002B     		cmp	r3, #0
 532 0012 1DD1     		bne	.L22
 203:../Sources/drivers/sai/sai.c ****         {
 204:../Sources/drivers/sai/sai.c ****             /* SAI0 init */
 205:../Sources/drivers/sai/sai.c ****             if(tx)
 533              		.loc 1 205 0
 534 0014 BB79     		ldrb	r3, [r7, #6]	@ zero_extendqisi2
 535 0016 002B     		cmp	r3, #0
 536 0018 0CD0     		beq	.L24
 206:../Sources/drivers/sai/sai.c ****                 {
 207:../Sources/drivers/sai/sai.c ****                     I2S_TCSR_REG(I2S0_BASE_PTR) |= I2S_TCSR_WSF_MASK    //clear word start flag
 537              		.loc 1 207 0
 538 001a 4FF47043 		mov	r3, #61440
 539 001e C4F20203 		movt	r3, 16386
 540 0022 4FF47042 		mov	r2, #61440
 541 0026 C4F20202 		movt	r2, 16386
 542 002a 1268     		ldr	r2, [r2, #0]
 543 002c 42F4F812 		orr	r2, r2, #2031616
 544 0030 1A60     		str	r2, [r3, #0]
 545 0032 0DE0     		b	.L22
 546              	.L24:
 208:../Sources/drivers/sai/sai.c ****                                                    | I2S_TCSR_SEF_MASK //clear sync error flag
 209:../Sources/drivers/sai/sai.c ****                                                    | I2S_TCSR_FEF_MASK //clear FIFO error flag
 210:../Sources/drivers/sai/sai.c ****                                                    | I2S_TCSR_FWF_MASK //clear FIFO warning flag
 211:../Sources/drivers/sai/sai.c ****                                                    | I2S_TCSR_FRF_MASK //clear FIFO request flag
 212:../Sources/drivers/sai/sai.c ****                                                    ;
 213:../Sources/drivers/sai/sai.c ****                 }
 214:../Sources/drivers/sai/sai.c ****             else
 215:../Sources/drivers/sai/sai.c ****                 {
 216:../Sources/drivers/sai/sai.c ****                     I2S_RCSR_REG(I2S0_BASE_PTR) |= I2S_RCSR_WSF_MASK    //clear word start flag
 547              		.loc 1 216 0
 548 0034 4FF47043 		mov	r3, #61440
 549 0038 C4F20203 		movt	r3, 16386
 550 003c 4FF47042 		mov	r2, #61440
 551 0040 C4F20202 		movt	r2, 16386
 552 0044 D2F88020 		ldr	r2, [r2, #128]
 553 0048 42F4F812 		orr	r2, r2, #2031616
 554 004c C3F88020 		str	r2, [r3, #128]
 555              	.L22:
 217:../Sources/drivers/sai/sai.c ****                                                    | I2S_RCSR_SEF_MASK //clear sync error flag
 218:../Sources/drivers/sai/sai.c ****                                                    | I2S_RCSR_FEF_MASK //clear FIFO error flag
 219:../Sources/drivers/sai/sai.c ****                                                    | I2S_RCSR_FWF_MASK //clear FIFO warning flag
 220:../Sources/drivers/sai/sai.c ****                                                    | I2S_RCSR_FRF_MASK //clear FIFO request flag
 221:../Sources/drivers/sai/sai.c ****                                                    ;
 222:../Sources/drivers/sai/sai.c ****                 }
 223:../Sources/drivers/sai/sai.c ****         }
 224:../Sources/drivers/sai/sai.c ****     else if(port == 1)
 225:../Sources/drivers/sai/sai.c ****         {
 226:../Sources/drivers/sai/sai.c ****             /* SAI1 init */
 227:../Sources/drivers/sai/sai.c ****         }
 228:../Sources/drivers/sai/sai.c **** }
 556              		.loc 1 228 0
 557 0050 07F10C07 		add	r7, r7, #12
 558 0054 BD46     		mov	sp, r7
 559 0056 80BC     		pop	{r7}
 560 0058 7047     		bx	lr
 561              		.cfi_endproc
 562              	.LFE133:
 564 005a 00BF     		.section	.text.sai_fifo_request_dma_enable,"ax",%progbits
 565              		.align	2
 566              		.global	sai_fifo_request_dma_enable
 567              		.thumb
 568              		.thumb_func
 570              	sai_fifo_request_dma_enable:
 571              	.LFB134:
 229:../Sources/drivers/sai/sai.c **** 
 230:../Sources/drivers/sai/sai.c **** /* */
 231:../Sources/drivers/sai/sai.c **** 
 232:../Sources/drivers/sai/sai.c **** void sai_fifo_request_dma_enable
 233:../Sources/drivers/sai/sai.c **** (
 234:../Sources/drivers/sai/sai.c ****     unsigned char   port,
 235:../Sources/drivers/sai/sai.c ****     unsigned char   tx
 236:../Sources/drivers/sai/sai.c **** )
 237:../Sources/drivers/sai/sai.c **** {
 572              		.loc 1 237 0
 573              		.cfi_startproc
 574              		@ args = 0, pretend = 0, frame = 8
 575              		@ frame_needed = 1, uses_anonymous_args = 0
 576              		@ link register save eliminated.
 577 0000 80B4     		push	{r7}
 578              	.LCFI18:
 579              		.cfi_def_cfa_offset 4
 580              		.cfi_offset 7, -4
 581 0002 83B0     		sub	sp, sp, #12
 582              	.LCFI19:
 583              		.cfi_def_cfa_offset 16
 584 0004 00AF     		add	r7, sp, #0
 585              	.LCFI20:
 586              		.cfi_def_cfa_register 7
 587 0006 0246     		mov	r2, r0
 588 0008 0B46     		mov	r3, r1
 589 000a FA71     		strb	r2, [r7, #7]
 590 000c BB71     		strb	r3, [r7, #6]
 238:../Sources/drivers/sai/sai.c ****     if(port == 0)
 591              		.loc 1 238 0
 592 000e FB79     		ldrb	r3, [r7, #7]	@ zero_extendqisi2
 593 0010 002B     		cmp	r3, #0
 594 0012 1DD1     		bne	.L25
 239:../Sources/drivers/sai/sai.c ****         {
 240:../Sources/drivers/sai/sai.c ****             if(tx)
 595              		.loc 1 240 0
 596 0014 BB79     		ldrb	r3, [r7, #6]	@ zero_extendqisi2
 597 0016 002B     		cmp	r3, #0
 598 0018 0CD0     		beq	.L27
 241:../Sources/drivers/sai/sai.c ****                 {
 242:../Sources/drivers/sai/sai.c ****                     I2S_TCSR_REG(I2S0_BASE_PTR) |= I2S_TCSR_FRDE_MASK   //FIFO request DMA enable
 599              		.loc 1 242 0
 600 001a 4FF47043 		mov	r3, #61440
 601 001e C4F20203 		movt	r3, 16386
 602 0022 4FF47042 		mov	r2, #61440
 603 0026 C4F20202 		movt	r2, 16386
 604 002a 1268     		ldr	r2, [r2, #0]
 605 002c 42F00102 		orr	r2, r2, #1
 606 0030 1A60     		str	r2, [r3, #0]
 607 0032 0DE0     		b	.L25
 608              	.L27:
 243:../Sources/drivers/sai/sai.c ****                                                    ;
 244:../Sources/drivers/sai/sai.c ****                 }
 245:../Sources/drivers/sai/sai.c ****             else
 246:../Sources/drivers/sai/sai.c ****                 {
 247:../Sources/drivers/sai/sai.c ****                     I2S_RCSR_REG(I2S0_BASE_PTR) |= I2S_RCSR_FRDE_MASK   //FIFO request DMA enable
 609              		.loc 1 247 0
 610 0034 4FF47043 		mov	r3, #61440
 611 0038 C4F20203 		movt	r3, 16386
 612 003c 4FF47042 		mov	r2, #61440
 613 0040 C4F20202 		movt	r2, 16386
 614 0044 D2F88020 		ldr	r2, [r2, #128]
 615 0048 42F00102 		orr	r2, r2, #1
 616 004c C3F88020 		str	r2, [r3, #128]
 617              	.L25:
 248:../Sources/drivers/sai/sai.c ****                                                    ;
 249:../Sources/drivers/sai/sai.c ****                 }
 250:../Sources/drivers/sai/sai.c ****         }
 251:../Sources/drivers/sai/sai.c **** }
 618              		.loc 1 251 0
 619 0050 07F10C07 		add	r7, r7, #12
 620 0054 BD46     		mov	sp, r7
 621 0056 80BC     		pop	{r7}
 622 0058 7047     		bx	lr
 623              		.cfi_endproc
 624              	.LFE134:
 626 005a 00BF     		.section	.text.sai_fifo_warning_dma_enable,"ax",%progbits
 627              		.align	2
 628              		.global	sai_fifo_warning_dma_enable
 629              		.thumb
 630              		.thumb_func
 632              	sai_fifo_warning_dma_enable:
 633              	.LFB135:
 252:../Sources/drivers/sai/sai.c **** 
 253:../Sources/drivers/sai/sai.c **** /* */
 254:../Sources/drivers/sai/sai.c **** 
 255:../Sources/drivers/sai/sai.c **** void sai_fifo_warning_dma_enable
 256:../Sources/drivers/sai/sai.c **** (
 257:../Sources/drivers/sai/sai.c ****     unsigned char   port,
 258:../Sources/drivers/sai/sai.c ****     unsigned char   tx
 259:../Sources/drivers/sai/sai.c **** )
 260:../Sources/drivers/sai/sai.c **** {
 634              		.loc 1 260 0
 635              		.cfi_startproc
 636              		@ args = 0, pretend = 0, frame = 8
 637              		@ frame_needed = 1, uses_anonymous_args = 0
 638              		@ link register save eliminated.
 639 0000 80B4     		push	{r7}
 640              	.LCFI21:
 641              		.cfi_def_cfa_offset 4
 642              		.cfi_offset 7, -4
 643 0002 83B0     		sub	sp, sp, #12
 644              	.LCFI22:
 645              		.cfi_def_cfa_offset 16
 646 0004 00AF     		add	r7, sp, #0
 647              	.LCFI23:
 648              		.cfi_def_cfa_register 7
 649 0006 0246     		mov	r2, r0
 650 0008 0B46     		mov	r3, r1
 651 000a FA71     		strb	r2, [r7, #7]
 652 000c BB71     		strb	r3, [r7, #6]
 261:../Sources/drivers/sai/sai.c ****     if(port == 0)
 653              		.loc 1 261 0
 654 000e FB79     		ldrb	r3, [r7, #7]	@ zero_extendqisi2
 655 0010 002B     		cmp	r3, #0
 656 0012 1DD1     		bne	.L28
 262:../Sources/drivers/sai/sai.c ****         {
 263:../Sources/drivers/sai/sai.c ****             if(tx)
 657              		.loc 1 263 0
 658 0014 BB79     		ldrb	r3, [r7, #6]	@ zero_extendqisi2
 659 0016 002B     		cmp	r3, #0
 660 0018 0CD0     		beq	.L30
 264:../Sources/drivers/sai/sai.c ****                 {
 265:../Sources/drivers/sai/sai.c ****                     I2S_TCSR_REG(I2S0_BASE_PTR) |= I2S_TCSR_FWDE_MASK   //FIFO warning DMA enable
 661              		.loc 1 265 0
 662 001a 4FF47043 		mov	r3, #61440
 663 001e C4F20203 		movt	r3, 16386
 664 0022 4FF47042 		mov	r2, #61440
 665 0026 C4F20202 		movt	r2, 16386
 666 002a 1268     		ldr	r2, [r2, #0]
 667 002c 42F00202 		orr	r2, r2, #2
 668 0030 1A60     		str	r2, [r3, #0]
 669 0032 0DE0     		b	.L28
 670              	.L30:
 266:../Sources/drivers/sai/sai.c ****                                                    ;
 267:../Sources/drivers/sai/sai.c ****                 }
 268:../Sources/drivers/sai/sai.c ****             else
 269:../Sources/drivers/sai/sai.c ****                 {
 270:../Sources/drivers/sai/sai.c ****                     I2S_RCSR_REG(I2S0_BASE_PTR) |= I2S_RCSR_FWDE_MASK   //FIFO warning DMA enable
 671              		.loc 1 270 0
 672 0034 4FF47043 		mov	r3, #61440
 673 0038 C4F20203 		movt	r3, 16386
 674 003c 4FF47042 		mov	r2, #61440
 675 0040 C4F20202 		movt	r2, 16386
 676 0044 D2F88020 		ldr	r2, [r2, #128]
 677 0048 42F00202 		orr	r2, r2, #2
 678 004c C3F88020 		str	r2, [r3, #128]
 679              	.L28:
 271:../Sources/drivers/sai/sai.c ****                                                    ;
 272:../Sources/drivers/sai/sai.c ****                 }
 273:../Sources/drivers/sai/sai.c ****         }
 274:../Sources/drivers/sai/sai.c ****     else if(port == 1)
 275:../Sources/drivers/sai/sai.c ****         {
 276:../Sources/drivers/sai/sai.c ****             //	("Error: Port %d is not available yet.",port);
 277:../Sources/drivers/sai/sai.c ****         }
 278:../Sources/drivers/sai/sai.c **** }
 680              		.loc 1 278 0
 681 0050 07F10C07 		add	r7, r7, #12
 682 0054 BD46     		mov	sp, r7
 683 0056 80BC     		pop	{r7}
 684 0058 7047     		bx	lr
 685              		.cfi_endproc
 686              	.LFE135:
 688 005a 00BF     		.section	.text.sai_enable,"ax",%progbits
 689              		.align	2
 690              		.global	sai_enable
 691              		.thumb
 692              		.thumb_func
 694              	sai_enable:
 695              	.LFB136:
 279:../Sources/drivers/sai/sai.c **** 
 280:../Sources/drivers/sai/sai.c **** /* */
 281:../Sources/drivers/sai/sai.c **** 
 282:../Sources/drivers/sai/sai.c **** void sai_enable
 283:../Sources/drivers/sai/sai.c **** (
 284:../Sources/drivers/sai/sai.c ****     unsigned char   port,
 285:../Sources/drivers/sai/sai.c ****     unsigned char   tx
 286:../Sources/drivers/sai/sai.c **** )
 287:../Sources/drivers/sai/sai.c **** {
 696              		.loc 1 287 0
 697              		.cfi_startproc
 698              		@ args = 0, pretend = 0, frame = 8
 699              		@ frame_needed = 1, uses_anonymous_args = 0
 700              		@ link register save eliminated.
 701 0000 80B4     		push	{r7}
 702              	.LCFI24:
 703              		.cfi_def_cfa_offset 4
 704              		.cfi_offset 7, -4
 705 0002 83B0     		sub	sp, sp, #12
 706              	.LCFI25:
 707              		.cfi_def_cfa_offset 16
 708 0004 00AF     		add	r7, sp, #0
 709              	.LCFI26:
 710              		.cfi_def_cfa_register 7
 711 0006 0246     		mov	r2, r0
 712 0008 0B46     		mov	r3, r1
 713 000a FA71     		strb	r2, [r7, #7]
 714 000c BB71     		strb	r3, [r7, #6]
 288:../Sources/drivers/sai/sai.c ****     if(port == 0)
 715              		.loc 1 288 0
 716 000e FB79     		ldrb	r3, [r7, #7]	@ zero_extendqisi2
 717 0010 002B     		cmp	r3, #0
 718 0012 1DD1     		bne	.L31
 289:../Sources/drivers/sai/sai.c ****         {
 290:../Sources/drivers/sai/sai.c ****             if(tx) I2S_TCSR_REG(I2S0_BASE_PTR) |= I2S_TCSR_TE_MASK; //transmit enable
 719              		.loc 1 290 0
 720 0014 BB79     		ldrb	r3, [r7, #6]	@ zero_extendqisi2
 721 0016 002B     		cmp	r3, #0
 722 0018 0CD0     		beq	.L33
 723              		.loc 1 290 0 is_stmt 0
 724 001a 4FF47043 		mov	r3, #61440
 725 001e C4F20203 		movt	r3, 16386
 726 0022 4FF47042 		mov	r2, #61440
 727 0026 C4F20202 		movt	r2, 16386
 728 002a 1268     		ldr	r2, [r2, #0]
 729 002c 42F00042 		orr	r2, r2, #-2147483648
 730 0030 1A60     		str	r2, [r3, #0]
 731 0032 0DE0     		b	.L31
 732              	.L33:
 291:../Sources/drivers/sai/sai.c ****             else
 292:../Sources/drivers/sai/sai.c ****                 I2S_RCSR_REG(I2S0_BASE_PTR) |= I2S_RCSR_RE_MASK;    //receive enable
 733              		.loc 1 292 0 is_stmt 1
 734 0034 4FF47043 		mov	r3, #61440
 735 0038 C4F20203 		movt	r3, 16386
 736 003c 4FF47042 		mov	r2, #61440
 737 0040 C4F20202 		movt	r2, 16386
 738 0044 D2F88020 		ldr	r2, [r2, #128]
 739 0048 42F00042 		orr	r2, r2, #-2147483648
 740 004c C3F88020 		str	r2, [r3, #128]
 741              	.L31:
 293:../Sources/drivers/sai/sai.c ****         }
 294:../Sources/drivers/sai/sai.c ****     else if(port == 1)
 295:../Sources/drivers/sai/sai.c ****         {
 296:../Sources/drivers/sai/sai.c ****             //("Error: Port %d is not available yet.",port);
 297:../Sources/drivers/sai/sai.c ****         }
 298:../Sources/drivers/sai/sai.c **** }
 742              		.loc 1 298 0
 743 0050 07F10C07 		add	r7, r7, #12
 744 0054 BD46     		mov	sp, r7
 745 0056 80BC     		pop	{r7}
 746 0058 7047     		bx	lr
 747              		.cfi_endproc
 748              	.LFE136:
 750 005a 00BF     		.section	.text.sai_disable,"ax",%progbits
 751              		.align	2
 752              		.global	sai_disable
 753              		.thumb
 754              		.thumb_func
 756              	sai_disable:
 757              	.LFB137:
 299:../Sources/drivers/sai/sai.c **** 
 300:../Sources/drivers/sai/sai.c **** /* */
 301:../Sources/drivers/sai/sai.c **** 
 302:../Sources/drivers/sai/sai.c **** void sai_disable
 303:../Sources/drivers/sai/sai.c **** (
 304:../Sources/drivers/sai/sai.c ****     unsigned char   port,
 305:../Sources/drivers/sai/sai.c ****     unsigned char   tx
 306:../Sources/drivers/sai/sai.c **** )
 307:../Sources/drivers/sai/sai.c **** {
 758              		.loc 1 307 0
 759              		.cfi_startproc
 760              		@ args = 0, pretend = 0, frame = 8
 761              		@ frame_needed = 1, uses_anonymous_args = 0
 762              		@ link register save eliminated.
 763 0000 80B4     		push	{r7}
 764              	.LCFI27:
 765              		.cfi_def_cfa_offset 4
 766              		.cfi_offset 7, -4
 767 0002 83B0     		sub	sp, sp, #12
 768              	.LCFI28:
 769              		.cfi_def_cfa_offset 16
 770 0004 00AF     		add	r7, sp, #0
 771              	.LCFI29:
 772              		.cfi_def_cfa_register 7
 773 0006 0246     		mov	r2, r0
 774 0008 0B46     		mov	r3, r1
 775 000a FA71     		strb	r2, [r7, #7]
 776 000c BB71     		strb	r3, [r7, #6]
 308:../Sources/drivers/sai/sai.c ****     if(port == 0)
 777              		.loc 1 308 0
 778 000e FB79     		ldrb	r3, [r7, #7]	@ zero_extendqisi2
 779 0010 002B     		cmp	r3, #0
 780 0012 1DD1     		bne	.L34
 309:../Sources/drivers/sai/sai.c ****         {
 310:../Sources/drivers/sai/sai.c ****             if(tx) I2S_TCSR_REG(I2S0_BASE_PTR) &= ~I2S_TCSR_TE_MASK;    //transmit disable
 781              		.loc 1 310 0
 782 0014 BB79     		ldrb	r3, [r7, #6]	@ zero_extendqisi2
 783 0016 002B     		cmp	r3, #0
 784 0018 0CD0     		beq	.L36
 785              		.loc 1 310 0 is_stmt 0
 786 001a 4FF47043 		mov	r3, #61440
 787 001e C4F20203 		movt	r3, 16386
 788 0022 4FF47042 		mov	r2, #61440
 789 0026 C4F20202 		movt	r2, 16386
 790 002a 1268     		ldr	r2, [r2, #0]
 791 002c 22F00042 		bic	r2, r2, #-2147483648
 792 0030 1A60     		str	r2, [r3, #0]
 793 0032 0DE0     		b	.L34
 794              	.L36:
 311:../Sources/drivers/sai/sai.c ****             else
 312:../Sources/drivers/sai/sai.c ****                 I2S_RCSR_REG(I2S0_BASE_PTR) &= ~I2S_RCSR_RE_MASK;       //receive disable
 795              		.loc 1 312 0 is_stmt 1
 796 0034 4FF47043 		mov	r3, #61440
 797 0038 C4F20203 		movt	r3, 16386
 798 003c 4FF47042 		mov	r2, #61440
 799 0040 C4F20202 		movt	r2, 16386
 800 0044 D2F88020 		ldr	r2, [r2, #128]
 801 0048 22F00042 		bic	r2, r2, #-2147483648
 802 004c C3F88020 		str	r2, [r3, #128]
 803              	.L34:
 313:../Sources/drivers/sai/sai.c ****         }
 314:../Sources/drivers/sai/sai.c ****     else if(port == 1)
 315:../Sources/drivers/sai/sai.c ****         {
 316:../Sources/drivers/sai/sai.c ****             //	("Error: Port %d is not available yet.",port);
 317:../Sources/drivers/sai/sai.c ****         }
 318:../Sources/drivers/sai/sai.c **** }
 804              		.loc 1 318 0
 805 0050 07F10C07 		add	r7, r7, #12
 806 0054 BD46     		mov	sp, r7
 807 0056 80BC     		pop	{r7}
 808 0058 7047     		bx	lr
 809              		.cfi_endproc
 810              	.LFE137:
 812 005a 00BF     		.section	.text.sai_watermark_config,"ax",%progbits
 813              		.align	2
 814              		.global	sai_watermark_config
 815              		.thumb
 816              		.thumb_func
 818              	sai_watermark_config:
 819              	.LFB138:
 319:../Sources/drivers/sai/sai.c **** 
 320:../Sources/drivers/sai/sai.c **** /*
 321:../Sources/drivers/sai/sai.c **** *	Input parameter
 322:../Sources/drivers/sai/sai.c **** */
 323:../Sources/drivers/sai/sai.c **** 
 324:../Sources/drivers/sai/sai.c **** void sai_watermark_config
 325:../Sources/drivers/sai/sai.c **** (
 326:../Sources/drivers/sai/sai.c ****     unsigned char   port,
 327:../Sources/drivers/sai/sai.c ****     unsigned char   tx,
 328:../Sources/drivers/sai/sai.c ****     unsigned char   watermark
 329:../Sources/drivers/sai/sai.c **** )
 330:../Sources/drivers/sai/sai.c **** {
 820              		.loc 1 330 0
 821              		.cfi_startproc
 822              		@ args = 0, pretend = 0, frame = 8
 823              		@ frame_needed = 1, uses_anonymous_args = 0
 824              		@ link register save eliminated.
 825 0000 80B4     		push	{r7}
 826              	.LCFI30:
 827              		.cfi_def_cfa_offset 4
 828              		.cfi_offset 7, -4
 829 0002 83B0     		sub	sp, sp, #12
 830              	.LCFI31:
 831              		.cfi_def_cfa_offset 16
 832 0004 00AF     		add	r7, sp, #0
 833              	.LCFI32:
 834              		.cfi_def_cfa_register 7
 835 0006 1346     		mov	r3, r2
 836 0008 0246     		mov	r2, r0
 837 000a FA71     		strb	r2, [r7, #7]
 838 000c 0A46     		mov	r2, r1
 839 000e BA71     		strb	r2, [r7, #6]
 840 0010 7B71     		strb	r3, [r7, #5]
 331:../Sources/drivers/sai/sai.c ****     if(port == 0)
 841              		.loc 1 331 0
 842 0012 FB79     		ldrb	r3, [r7, #7]	@ zero_extendqisi2
 843 0014 002B     		cmp	r3, #0
 844 0016 10D1     		bne	.L37
 332:../Sources/drivers/sai/sai.c ****         {
 333:../Sources/drivers/sai/sai.c ****             if(tx) I2S_TCR1_REG(I2S0_BASE_PTR) = watermark; //tx FIFO watermark
 845              		.loc 1 333 0
 846 0018 BB79     		ldrb	r3, [r7, #6]	@ zero_extendqisi2
 847 001a 002B     		cmp	r3, #0
 848 001c 06D0     		beq	.L39
 849              		.loc 1 333 0 is_stmt 0
 850 001e 4FF47043 		mov	r3, #61440
 851 0022 C4F20203 		movt	r3, 16386
 852 0026 7A79     		ldrb	r2, [r7, #5]	@ zero_extendqisi2
 853 0028 5A60     		str	r2, [r3, #4]
 854 002a 06E0     		b	.L37
 855              	.L39:
 334:../Sources/drivers/sai/sai.c ****             else
 335:../Sources/drivers/sai/sai.c ****                 I2S_RCR1_REG(I2S0_BASE_PTR) = watermark;    //rx FIFO watermark
 856              		.loc 1 335 0 is_stmt 1
 857 002c 4FF47043 		mov	r3, #61440
 858 0030 C4F20203 		movt	r3, 16386
 859 0034 7A79     		ldrb	r2, [r7, #5]	@ zero_extendqisi2
 860 0036 C3F88420 		str	r2, [r3, #132]
 861              	.L37:
 336:../Sources/drivers/sai/sai.c ****         }
 337:../Sources/drivers/sai/sai.c ****     else if(port == 1)
 338:../Sources/drivers/sai/sai.c ****         {
 339:../Sources/drivers/sai/sai.c ****         }
 340:../Sources/drivers/sai/sai.c **** }
 862              		.loc 1 340 0
 863 003a 07F10C07 		add	r7, r7, #12
 864 003e BD46     		mov	sp, r7
 865 0040 80BC     		pop	{r7}
 866 0042 7047     		bx	lr
 867              		.cfi_endproc
 868              	.LFE138:
 870              		.section	.text.sai_mode_config,"ax",%progbits
 871              		.align	2
 872              		.global	sai_mode_config
 873              		.thumb
 874              		.thumb_func
 876              	sai_mode_config:
 877              	.LFB139:
 341:../Sources/drivers/sai/sai.c **** 
 342:../Sources/drivers/sai/sai.c **** /*
 343:../Sources/drivers/sai/sai.c **** *	Input parameter:
 344:../Sources/drivers/sai/sai.c **** *	port:		SAI port used
 345:../Sources/drivers/sai/sai.c **** *	tx:		transmit or receive
 346:../Sources/drivers/sai/sai.c **** *	mode:		synchronous mode
 347:../Sources/drivers/sai/sai.c **** *	bcs:		bit clock swap
 348:../Sources/drivers/sai/sai.c **** *	bci:		bit clock input
 349:../Sources/drivers/sai/sai.c **** */
 350:../Sources/drivers/sai/sai.c **** 
 351:../Sources/drivers/sai/sai.c **** void sai_mode_config
 352:../Sources/drivers/sai/sai.c **** (
 353:../Sources/drivers/sai/sai.c ****     unsigned char   port,
 354:../Sources/drivers/sai/sai.c ****     unsigned char   tx,
 355:../Sources/drivers/sai/sai.c ****     unsigned char   mode,
 356:../Sources/drivers/sai/sai.c ****     unsigned char   bcs,
 357:../Sources/drivers/sai/sai.c ****     unsigned char   bci
 358:../Sources/drivers/sai/sai.c **** )
 359:../Sources/drivers/sai/sai.c **** {
 878              		.loc 1 359 0
 879              		.cfi_startproc
 880              		@ args = 4, pretend = 0, frame = 8
 881              		@ frame_needed = 1, uses_anonymous_args = 0
 882              		@ link register save eliminated.
 883 0000 80B4     		push	{r7}
 884              	.LCFI33:
 885              		.cfi_def_cfa_offset 4
 886              		.cfi_offset 7, -4
 887 0002 83B0     		sub	sp, sp, #12
 888              	.LCFI34:
 889              		.cfi_def_cfa_offset 16
 890 0004 00AF     		add	r7, sp, #0
 891              	.LCFI35:
 892              		.cfi_def_cfa_register 7
 893 0006 F871     		strb	r0, [r7, #7]
 894 0008 B971     		strb	r1, [r7, #6]
 895 000a 7A71     		strb	r2, [r7, #5]
 896 000c 3B71     		strb	r3, [r7, #4]
 360:../Sources/drivers/sai/sai.c ****     if(port == 0)
 897              		.loc 1 360 0
 898 000e FB79     		ldrb	r3, [r7, #7]	@ zero_extendqisi2
 899 0010 002B     		cmp	r3, #0
 900 0012 40F09A80 		bne	.L40
 361:../Sources/drivers/sai/sai.c ****         {
 362:../Sources/drivers/sai/sai.c ****             if(tx)
 901              		.loc 1 362 0
 902 0016 BB79     		ldrb	r3, [r7, #6]	@ zero_extendqisi2
 903 0018 002B     		cmp	r3, #0
 904 001a 46D0     		beq	.L42
 363:../Sources/drivers/sai/sai.c ****                 {
 364:../Sources/drivers/sai/sai.c ****                     I2S_TCR2_REG(I2S0_BASE_PTR) |= I2S_TCR2_SYNC(mode);         //configure SAI syn
 905              		.loc 1 364 0
 906 001c 4FF47043 		mov	r3, #61440
 907 0020 C4F20203 		movt	r3, 16386
 908 0024 4FF47042 		mov	r2, #61440
 909 0028 C4F20202 		movt	r2, 16386
 910 002c 9168     		ldr	r1, [r2, #8]
 911 002e 7A79     		ldrb	r2, [r7, #5]	@ zero_extendqisi2
 912 0030 4FEA8272 		lsl	r2, r2, #30
 913 0034 0A43     		orrs	r2, r2, r1
 914 0036 9A60     		str	r2, [r3, #8]
 365:../Sources/drivers/sai/sai.c **** 
 366:../Sources/drivers/sai/sai.c ****                     if(bcs) I2S_TCR2_REG(I2S0_BASE_PTR) |= I2S_TCR2_BCS_MASK;   //bit clock swap
 915              		.loc 1 366 0
 916 0038 3B79     		ldrb	r3, [r7, #4]	@ zero_extendqisi2
 917 003a 002B     		cmp	r3, #0
 918 003c 0CD0     		beq	.L43
 919              		.loc 1 366 0 is_stmt 0
 920 003e 4FF47043 		mov	r3, #61440
 921 0042 C4F20203 		movt	r3, 16386
 922 0046 4FF47042 		mov	r2, #61440
 923 004a C4F20202 		movt	r2, 16386
 924 004e 9268     		ldr	r2, [r2, #8]
 925 0050 42F00052 		orr	r2, r2, #536870912
 926 0054 9A60     		str	r2, [r3, #8]
 927 0056 0BE0     		b	.L44
 928              	.L43:
 367:../Sources/drivers/sai/sai.c ****                     else
 368:../Sources/drivers/sai/sai.c ****                         I2S_TCR2_REG(I2S0_BASE_PTR) &= ~I2S_TCR2_BCS_MASK;
 929              		.loc 1 368 0 is_stmt 1
 930 0058 4FF47043 		mov	r3, #61440
 931 005c C4F20203 		movt	r3, 16386
 932 0060 4FF47042 		mov	r2, #61440
 933 0064 C4F20202 		movt	r2, 16386
 934 0068 9268     		ldr	r2, [r2, #8]
 935 006a 22F00052 		bic	r2, r2, #536870912
 936 006e 9A60     		str	r2, [r3, #8]
 937              	.L44:
 369:../Sources/drivers/sai/sai.c **** 
 370:../Sources/drivers/sai/sai.c ****                     if(bci) I2S_TCR2_REG(I2S0_BASE_PTR) |= I2S_TCR2_BCI_MASK;   //internal logic cl
 938              		.loc 1 370 0
 939 0070 3B7C     		ldrb	r3, [r7, #16]	@ zero_extendqisi2
 940 0072 002B     		cmp	r3, #0
 941 0074 0CD0     		beq	.L45
 942              		.loc 1 370 0 is_stmt 0
 943 0076 4FF47043 		mov	r3, #61440
 944 007a C4F20203 		movt	r3, 16386
 945 007e 4FF47042 		mov	r2, #61440
 946 0082 C4F20202 		movt	r2, 16386
 947 0086 9268     		ldr	r2, [r2, #8]
 948 0088 42F08052 		orr	r2, r2, #268435456
 949 008c 9A60     		str	r2, [r3, #8]
 950 008e 5CE0     		b	.L40
 951              	.L45:
 371:../Sources/drivers/sai/sai.c ****                     else
 372:../Sources/drivers/sai/sai.c ****                         I2S_TCR2_REG(I2S0_BASE_PTR) &= ~I2S_TCR2_BCI_MASK;
 952              		.loc 1 372 0 is_stmt 1
 953 0090 4FF47043 		mov	r3, #61440
 954 0094 C4F20203 		movt	r3, 16386
 955 0098 4FF47042 		mov	r2, #61440
 956 009c C4F20202 		movt	r2, 16386
 957 00a0 9268     		ldr	r2, [r2, #8]
 958 00a2 22F08052 		bic	r2, r2, #268435456
 959 00a6 9A60     		str	r2, [r3, #8]
 960 00a8 4FE0     		b	.L40
 961              	.L42:
 373:../Sources/drivers/sai/sai.c ****                 }
 374:../Sources/drivers/sai/sai.c ****             else
 375:../Sources/drivers/sai/sai.c ****                 {
 376:../Sources/drivers/sai/sai.c ****                     I2S_RCR2_REG(I2S0_BASE_PTR) |= I2S_RCR2_SYNC(mode);         //configure SAI syn
 962              		.loc 1 376 0
 963 00aa 4FF47043 		mov	r3, #61440
 964 00ae C4F20203 		movt	r3, 16386
 965 00b2 4FF47042 		mov	r2, #61440
 966 00b6 C4F20202 		movt	r2, 16386
 967 00ba D2F88810 		ldr	r1, [r2, #136]
 968 00be 7A79     		ldrb	r2, [r7, #5]	@ zero_extendqisi2
 969 00c0 4FEA8272 		lsl	r2, r2, #30
 970 00c4 0A43     		orrs	r2, r2, r1
 971 00c6 C3F88820 		str	r2, [r3, #136]
 377:../Sources/drivers/sai/sai.c **** 
 378:../Sources/drivers/sai/sai.c ****                     if(bcs) I2S_RCR2_REG(I2S0_BASE_PTR) |= I2S_RCR2_BCS_MASK;   //bit clock swap
 972              		.loc 1 378 0
 973 00ca 3B79     		ldrb	r3, [r7, #4]	@ zero_extendqisi2
 974 00cc 002B     		cmp	r3, #0
 975 00ce 0ED0     		beq	.L46
 976              		.loc 1 378 0 is_stmt 0
 977 00d0 4FF47043 		mov	r3, #61440
 978 00d4 C4F20203 		movt	r3, 16386
 979 00d8 4FF47042 		mov	r2, #61440
 980 00dc C4F20202 		movt	r2, 16386
 981 00e0 D2F88820 		ldr	r2, [r2, #136]
 982 00e4 42F00052 		orr	r2, r2, #536870912
 983 00e8 C3F88820 		str	r2, [r3, #136]
 984 00ec 0DE0     		b	.L47
 985              	.L46:
 379:../Sources/drivers/sai/sai.c ****                     else
 380:../Sources/drivers/sai/sai.c ****                         I2S_RCR2_REG(I2S0_BASE_PTR) &= ~I2S_RCR2_BCS_MASK;
 986              		.loc 1 380 0 is_stmt 1
 987 00ee 4FF47043 		mov	r3, #61440
 988 00f2 C4F20203 		movt	r3, 16386
 989 00f6 4FF47042 		mov	r2, #61440
 990 00fa C4F20202 		movt	r2, 16386
 991 00fe D2F88820 		ldr	r2, [r2, #136]
 992 0102 22F00052 		bic	r2, r2, #536870912
 993 0106 C3F88820 		str	r2, [r3, #136]
 994              	.L47:
 381:../Sources/drivers/sai/sai.c **** 
 382:../Sources/drivers/sai/sai.c ****                     if(bci) I2S_RCR2_REG(I2S0_BASE_PTR) |= I2S_RCR2_BCI_MASK;   //internal logic cl
 995              		.loc 1 382 0
 996 010a 3B7C     		ldrb	r3, [r7, #16]	@ zero_extendqisi2
 997 010c 002B     		cmp	r3, #0
 998 010e 0ED0     		beq	.L48
 999              		.loc 1 382 0 is_stmt 0
 1000 0110 4FF47043 		mov	r3, #61440
 1001 0114 C4F20203 		movt	r3, 16386
 1002 0118 4FF47042 		mov	r2, #61440
 1003 011c C4F20202 		movt	r2, 16386
 1004 0120 D2F88820 		ldr	r2, [r2, #136]
 1005 0124 42F08052 		orr	r2, r2, #268435456
 1006 0128 C3F88820 		str	r2, [r3, #136]
 1007 012c 0DE0     		b	.L40
 1008              	.L48:
 383:../Sources/drivers/sai/sai.c ****                     else
 384:../Sources/drivers/sai/sai.c ****                         I2S_RCR2_REG(I2S0_BASE_PTR) &= ~I2S_RCR2_BCI_MASK;
 1009              		.loc 1 384 0 is_stmt 1
 1010 012e 4FF47043 		mov	r3, #61440
 1011 0132 C4F20203 		movt	r3, 16386
 1012 0136 4FF47042 		mov	r2, #61440
 1013 013a C4F20202 		movt	r2, 16386
 1014 013e D2F88820 		ldr	r2, [r2, #136]
 1015 0142 22F08052 		bic	r2, r2, #268435456
 1016 0146 C3F88820 		str	r2, [r3, #136]
 1017              	.L40:
 385:../Sources/drivers/sai/sai.c ****                 }
 386:../Sources/drivers/sai/sai.c ****         }
 387:../Sources/drivers/sai/sai.c ****     else if(port == 1)
 388:../Sources/drivers/sai/sai.c ****         {
 389:../Sources/drivers/sai/sai.c ****         }
 390:../Sources/drivers/sai/sai.c **** }
 1018              		.loc 1 390 0
 1019 014a 07F10C07 		add	r7, r7, #12
 1020 014e BD46     		mov	sp, r7
 1021 0150 80BC     		pop	{r7}
 1022 0152 7047     		bx	lr
 1023              		.cfi_endproc
 1024              	.LFE139:
 1026              		.section	.text.sai_bclk_config,"ax",%progbits
 1027              		.align	2
 1028              		.global	sai_bclk_config
 1029              		.thumb
 1030              		.thumb_func
 1032              	sai_bclk_config:
 1033              	.LFB140:
 391:../Sources/drivers/sai/sai.c **** 
 392:../Sources/drivers/sai/sai.c **** /*
 393:../Sources/drivers/sai/sai.c **** *	Input parameter:
 394:../Sources/drivers/sai/sai.c **** *	port:		SAI module used
 395:../Sources/drivers/sai/sai.c **** *	tx:		transmit or receive
 396:../Sources/drivers/sai/sai.c **** *	mclksel:	select master clock to generate internal bit clock, ignored when configured for external
 397:../Sources/drivers/sai/sai.c **** *	bclkpol:	bit clock polarity
 398:../Sources/drivers/sai/sai.c **** *	bclkdir:	bit clock direction
 399:../Sources/drivers/sai/sai.c **** *	bclkdiv:	bit clock divide, division value is (DIV+1)*2
 400:../Sources/drivers/sai/sai.c **** */
 401:../Sources/drivers/sai/sai.c **** 
 402:../Sources/drivers/sai/sai.c **** void sai_bclk_config
 403:../Sources/drivers/sai/sai.c **** (
 404:../Sources/drivers/sai/sai.c ****     unsigned char   port,
 405:../Sources/drivers/sai/sai.c ****     unsigned char   tx,
 406:../Sources/drivers/sai/sai.c ****     unsigned char   mclksel,
 407:../Sources/drivers/sai/sai.c ****     unsigned char   bclkpol,
 408:../Sources/drivers/sai/sai.c ****     unsigned char   bclkdir,
 409:../Sources/drivers/sai/sai.c ****     unsigned char   bclkdiv
 410:../Sources/drivers/sai/sai.c **** )
 411:../Sources/drivers/sai/sai.c **** {
 1034              		.loc 1 411 0
 1035              		.cfi_startproc
 1036              		@ args = 8, pretend = 0, frame = 8
 1037              		@ frame_needed = 1, uses_anonymous_args = 0
 1038              		@ link register save eliminated.
 1039 0000 80B4     		push	{r7}
 1040              	.LCFI36:
 1041              		.cfi_def_cfa_offset 4
 1042              		.cfi_offset 7, -4
 1043 0002 83B0     		sub	sp, sp, #12
 1044              	.LCFI37:
 1045              		.cfi_def_cfa_offset 16
 1046 0004 00AF     		add	r7, sp, #0
 1047              	.LCFI38:
 1048              		.cfi_def_cfa_register 7
 1049 0006 F871     		strb	r0, [r7, #7]
 1050 0008 B971     		strb	r1, [r7, #6]
 1051 000a 7A71     		strb	r2, [r7, #5]
 1052 000c 3B71     		strb	r3, [r7, #4]
 412:../Sources/drivers/sai/sai.c ****     if(port == 0)
 1053              		.loc 1 412 0
 1054 000e FB79     		ldrb	r3, [r7, #7]	@ zero_extendqisi2
 1055 0010 002B     		cmp	r3, #0
 1056 0012 40F0D680 		bne	.L49
 413:../Sources/drivers/sai/sai.c ****         {
 414:../Sources/drivers/sai/sai.c ****             /* SAI0 init */
 415:../Sources/drivers/sai/sai.c ****             if(tx)
 1057              		.loc 1 415 0
 1058 0016 BB79     		ldrb	r3, [r7, #6]	@ zero_extendqisi2
 1059 0018 002B     		cmp	r3, #0
 1060 001a 62D0     		beq	.L51
 416:../Sources/drivers/sai/sai.c ****                 {
 417:../Sources/drivers/sai/sai.c ****                     I2S_TCR2_REG(I2S0_BASE_PTR) &= ~I2S_TCR2_MSEL_MASK;     //clear master clock se
 1061              		.loc 1 417 0
 1062 001c 4FF47043 		mov	r3, #61440
 1063 0020 C4F20203 		movt	r3, 16386
 1064 0024 4FF47042 		mov	r2, #61440
 1065 0028 C4F20202 		movt	r2, 16386
 1066 002c 9268     		ldr	r2, [r2, #8]
 1067 002e 22F04062 		bic	r2, r2, #201326592
 1068 0032 9A60     		str	r2, [r3, #8]
 418:../Sources/drivers/sai/sai.c ****                     I2S_TCR2_REG(I2S0_BASE_PTR) &= ~I2S_TCR2_DIV_MASK;      //divide down master cl
 1069              		.loc 1 418 0
 1070 0034 4FF47043 		mov	r3, #61440
 1071 0038 C4F20203 		movt	r3, 16386
 1072 003c 4FF47042 		mov	r2, #61440
 1073 0040 C4F20202 		movt	r2, 16386
 1074 0044 9268     		ldr	r2, [r2, #8]
 1075 0046 22F0FF02 		bic	r2, r2, #255
 1076 004a 9A60     		str	r2, [r3, #8]
 419:../Sources/drivers/sai/sai.c ****                     I2S_TCR2_REG(I2S0_BASE_PTR) |= I2S_TCR2_MSEL(mclksel)   //master clock select
 1077              		.loc 1 419 0
 1078 004c 4FF47043 		mov	r3, #61440
 1079 0050 C4F20203 		movt	r3, 16386
 1080 0054 4FF47042 		mov	r2, #61440
 1081 0058 C4F20202 		movt	r2, 16386
 1082 005c 9168     		ldr	r1, [r2, #8]
 1083 005e 7A79     		ldrb	r2, [r7, #5]	@ zero_extendqisi2
 1084 0060 4FEA8262 		lsl	r2, r2, #26
 1085 0064 02F04060 		and	r0, r2, #201326592
 420:../Sources/drivers/sai/sai.c ****                                                    | I2S_TCR2_DIV(bclkdiv) //divide down master clo
 1086              		.loc 1 420 0
 1087 0068 3A7D     		ldrb	r2, [r7, #20]	@ zero_extendqisi2
 1088 006a 0243     		orrs	r2, r2, r0
 419:../Sources/drivers/sai/sai.c ****                     I2S_TCR2_REG(I2S0_BASE_PTR) |= I2S_TCR2_MSEL(mclksel)   //master clock select
 1089              		.loc 1 419 0
 1090 006c 0A43     		orrs	r2, r2, r1
 1091 006e 9A60     		str	r2, [r3, #8]
 421:../Sources/drivers/sai/sai.c ****                                                    ;
 422:../Sources/drivers/sai/sai.c **** 
 423:../Sources/drivers/sai/sai.c ****                     if(bclkpol) I2S_TCR2_REG(I2S0_BASE_PTR) |= I2S_TCR2_BCP_MASK;   //bit clock is 
 1092              		.loc 1 423 0
 1093 0070 3B79     		ldrb	r3, [r7, #4]	@ zero_extendqisi2
 1094 0072 002B     		cmp	r3, #0
 1095 0074 0CD0     		beq	.L52
 1096              		.loc 1 423 0 is_stmt 0
 1097 0076 4FF47043 		mov	r3, #61440
 1098 007a C4F20203 		movt	r3, 16386
 1099 007e 4FF47042 		mov	r2, #61440
 1100 0082 C4F20202 		movt	r2, 16386
 1101 0086 9268     		ldr	r2, [r2, #8]
 1102 0088 42F00072 		orr	r2, r2, #33554432
 1103 008c 9A60     		str	r2, [r3, #8]
 1104 008e 0BE0     		b	.L53
 1105              	.L52:
 424:../Sources/drivers/sai/sai.c ****                     else
 425:../Sources/drivers/sai/sai.c ****                         I2S_TCR2_REG(I2S0_BASE_PTR) &= ~I2S_TCR2_BCP_MASK;          //bit clock is 
 1106              		.loc 1 425 0 is_stmt 1
 1107 0090 4FF47043 		mov	r3, #61440
 1108 0094 C4F20203 		movt	r3, 16386
 1109 0098 4FF47042 		mov	r2, #61440
 1110 009c C4F20202 		movt	r2, 16386
 1111 00a0 9268     		ldr	r2, [r2, #8]
 1112 00a2 22F00072 		bic	r2, r2, #33554432
 1113 00a6 9A60     		str	r2, [r3, #8]
 1114              	.L53:
 426:../Sources/drivers/sai/sai.c **** 
 427:../Sources/drivers/sai/sai.c ****                     if(bclkdir) I2S_TCR2_REG(I2S0_BASE_PTR) |= I2S_TCR2_BCD_MASK;   //bit clock gen
 1115              		.loc 1 427 0
 1116 00a8 3B7C     		ldrb	r3, [r7, #16]	@ zero_extendqisi2
 1117 00aa 002B     		cmp	r3, #0
 1118 00ac 0CD0     		beq	.L54
 1119              		.loc 1 427 0 is_stmt 0
 1120 00ae 4FF47043 		mov	r3, #61440
 1121 00b2 C4F20203 		movt	r3, 16386
 1122 00b6 4FF47042 		mov	r2, #61440
 1123 00ba C4F20202 		movt	r2, 16386
 1124 00be 9268     		ldr	r2, [r2, #8]
 1125 00c0 42F08072 		orr	r2, r2, #16777216
 1126 00c4 9A60     		str	r2, [r3, #8]
 1127 00c6 7CE0     		b	.L49
 1128              	.L54:
 428:../Sources/drivers/sai/sai.c ****                     else
 429:../Sources/drivers/sai/sai.c ****                         I2S_TCR2_REG(I2S0_BASE_PTR) &= ~I2S_TCR2_BCD_MASK;          //bit clock gen
 1129              		.loc 1 429 0 is_stmt 1
 1130 00c8 4FF47043 		mov	r3, #61440
 1131 00cc C4F20203 		movt	r3, 16386
 1132 00d0 4FF47042 		mov	r2, #61440
 1133 00d4 C4F20202 		movt	r2, 16386
 1134 00d8 9268     		ldr	r2, [r2, #8]
 1135 00da 22F08072 		bic	r2, r2, #16777216
 1136 00de 9A60     		str	r2, [r3, #8]
 1137 00e0 6FE0     		b	.L49
 1138              	.L51:
 430:../Sources/drivers/sai/sai.c ****                 }
 431:../Sources/drivers/sai/sai.c ****             else
 432:../Sources/drivers/sai/sai.c ****                 {
 433:../Sources/drivers/sai/sai.c ****                     I2S_RCR2_REG(I2S0_BASE_PTR) &= ~I2S_RCR2_MSEL_MASK;             //clear master 
 1139              		.loc 1 433 0
 1140 00e2 4FF47043 		mov	r3, #61440
 1141 00e6 C4F20203 		movt	r3, 16386
 1142 00ea 4FF47042 		mov	r2, #61440
 1143 00ee C4F20202 		movt	r2, 16386
 1144 00f2 D2F88820 		ldr	r2, [r2, #136]
 1145 00f6 22F04062 		bic	r2, r2, #201326592
 1146 00fa C3F88820 		str	r2, [r3, #136]
 434:../Sources/drivers/sai/sai.c ****                     I2S_RCR2_REG(I2S0_BASE_PTR) &= ~I2S_RCR2_DIV_MASK;              //divide down m
 1147              		.loc 1 434 0
 1148 00fe 4FF47043 		mov	r3, #61440
 1149 0102 C4F20203 		movt	r3, 16386
 1150 0106 4FF47042 		mov	r2, #61440
 1151 010a C4F20202 		movt	r2, 16386
 1152 010e D2F88820 		ldr	r2, [r2, #136]
 1153 0112 22F0FF02 		bic	r2, r2, #255
 1154 0116 C3F88820 		str	r2, [r3, #136]
 435:../Sources/drivers/sai/sai.c ****                     I2S_RCR2_REG(I2S0_BASE_PTR) |= I2S_RCR2_MSEL(mclksel)           //master clock 
 1155              		.loc 1 435 0
 1156 011a 4FF47043 		mov	r3, #61440
 1157 011e C4F20203 		movt	r3, 16386
 1158 0122 4FF47042 		mov	r2, #61440
 1159 0126 C4F20202 		movt	r2, 16386
 1160 012a D2F88810 		ldr	r1, [r2, #136]
 1161 012e 7A79     		ldrb	r2, [r7, #5]	@ zero_extendqisi2
 1162 0130 4FEA8262 		lsl	r2, r2, #26
 1163 0134 02F04060 		and	r0, r2, #201326592
 436:../Sources/drivers/sai/sai.c ****                                                    | I2S_RCR2_DIV(bclkdiv) //divide down master clo
 1164              		.loc 1 436 0
 1165 0138 3A7D     		ldrb	r2, [r7, #20]	@ zero_extendqisi2
 1166 013a 0243     		orrs	r2, r2, r0
 435:../Sources/drivers/sai/sai.c ****                     I2S_RCR2_REG(I2S0_BASE_PTR) |= I2S_RCR2_MSEL(mclksel)           //master clock 
 1167              		.loc 1 435 0
 1168 013c 0A43     		orrs	r2, r2, r1
 1169 013e C3F88820 		str	r2, [r3, #136]
 437:../Sources/drivers/sai/sai.c ****                                                    ;
 438:../Sources/drivers/sai/sai.c **** 
 439:../Sources/drivers/sai/sai.c ****                     if(bclkpol) I2S_RCR2_REG(I2S0_BASE_PTR) |= I2S_RCR2_BCP_MASK;   //bit clock is 
 1170              		.loc 1 439 0
 1171 0142 3B79     		ldrb	r3, [r7, #4]	@ zero_extendqisi2
 1172 0144 002B     		cmp	r3, #0
 1173 0146 0ED0     		beq	.L55
 1174              		.loc 1 439 0 is_stmt 0
 1175 0148 4FF47043 		mov	r3, #61440
 1176 014c C4F20203 		movt	r3, 16386
 1177 0150 4FF47042 		mov	r2, #61440
 1178 0154 C4F20202 		movt	r2, 16386
 1179 0158 D2F88820 		ldr	r2, [r2, #136]
 1180 015c 42F00072 		orr	r2, r2, #33554432
 1181 0160 C3F88820 		str	r2, [r3, #136]
 1182 0164 0DE0     		b	.L56
 1183              	.L55:
 440:../Sources/drivers/sai/sai.c ****                     else
 441:../Sources/drivers/sai/sai.c ****                         I2S_RCR2_REG(I2S0_BASE_PTR) &= ~I2S_RCR2_BCP_MASK;          //bit clock is 
 1184              		.loc 1 441 0 is_stmt 1
 1185 0166 4FF47043 		mov	r3, #61440
 1186 016a C4F20203 		movt	r3, 16386
 1187 016e 4FF47042 		mov	r2, #61440
 1188 0172 C4F20202 		movt	r2, 16386
 1189 0176 D2F88820 		ldr	r2, [r2, #136]
 1190 017a 22F00072 		bic	r2, r2, #33554432
 1191 017e C3F88820 		str	r2, [r3, #136]
 1192              	.L56:
 442:../Sources/drivers/sai/sai.c **** 
 443:../Sources/drivers/sai/sai.c ****                     if(bclkdir) I2S_RCR2_REG(I2S0_BASE_PTR) |= I2S_RCR2_BCD_MASK;   //bit clock gen
 1193              		.loc 1 443 0
 1194 0182 3B7C     		ldrb	r3, [r7, #16]	@ zero_extendqisi2
 1195 0184 002B     		cmp	r3, #0
 1196 0186 0ED0     		beq	.L57
 1197              		.loc 1 443 0 is_stmt 0
 1198 0188 4FF47043 		mov	r3, #61440
 1199 018c C4F20203 		movt	r3, 16386
 1200 0190 4FF47042 		mov	r2, #61440
 1201 0194 C4F20202 		movt	r2, 16386
 1202 0198 D2F88820 		ldr	r2, [r2, #136]
 1203 019c 42F08072 		orr	r2, r2, #16777216
 1204 01a0 C3F88820 		str	r2, [r3, #136]
 1205 01a4 0DE0     		b	.L49
 1206              	.L57:
 444:../Sources/drivers/sai/sai.c ****                     else
 445:../Sources/drivers/sai/sai.c ****                         I2S_RCR2_REG(I2S0_BASE_PTR) &= ~I2S_RCR2_BCD_MASK;          //bit clock gen
 1207              		.loc 1 445 0 is_stmt 1
 1208 01a6 4FF47043 		mov	r3, #61440
 1209 01aa C4F20203 		movt	r3, 16386
 1210 01ae 4FF47042 		mov	r2, #61440
 1211 01b2 C4F20202 		movt	r2, 16386
 1212 01b6 D2F88820 		ldr	r2, [r2, #136]
 1213 01ba 22F08072 		bic	r2, r2, #16777216
 1214 01be C3F88820 		str	r2, [r3, #136]
 1215              	.L49:
 446:../Sources/drivers/sai/sai.c ****                 }
 447:../Sources/drivers/sai/sai.c ****         }
 448:../Sources/drivers/sai/sai.c ****     else if(port == 1)
 449:../Sources/drivers/sai/sai.c ****         {
 450:../Sources/drivers/sai/sai.c ****             /* SAI1 init */
 451:../Sources/drivers/sai/sai.c ****             //("Error: Port %d is not available yet.",port);
 452:../Sources/drivers/sai/sai.c ****         }
 453:../Sources/drivers/sai/sai.c **** }
 1216              		.loc 1 453 0
 1217 01c2 07F10C07 		add	r7, r7, #12
 1218 01c6 BD46     		mov	sp, r7
 1219 01c8 80BC     		pop	{r7}
 1220 01ca 7047     		bx	lr
 1221              		.cfi_endproc
 1222              	.LFE140:
 1224              		.section	.text.sai_bclk_en,"ax",%progbits
 1225              		.align	2
 1226              		.global	sai_bclk_en
 1227              		.thumb
 1228              		.thumb_func
 1230              	sai_bclk_en:
 1231              	.LFB141:
 454:../Sources/drivers/sai/sai.c **** 
 455:../Sources/drivers/sai/sai.c **** /* */
 456:../Sources/drivers/sai/sai.c **** 
 457:../Sources/drivers/sai/sai.c **** void sai_bclk_en
 458:../Sources/drivers/sai/sai.c **** (
 459:../Sources/drivers/sai/sai.c ****     unsigned char   port,
 460:../Sources/drivers/sai/sai.c ****     unsigned        tx
 461:../Sources/drivers/sai/sai.c **** )
 462:../Sources/drivers/sai/sai.c **** {
 1232              		.loc 1 462 0
 1233              		.cfi_startproc
 1234              		@ args = 0, pretend = 0, frame = 8
 1235              		@ frame_needed = 1, uses_anonymous_args = 0
 1236              		@ link register save eliminated.
 1237 0000 80B4     		push	{r7}
 1238              	.LCFI39:
 1239              		.cfi_def_cfa_offset 4
 1240              		.cfi_offset 7, -4
 1241 0002 83B0     		sub	sp, sp, #12
 1242              	.LCFI40:
 1243              		.cfi_def_cfa_offset 16
 1244 0004 00AF     		add	r7, sp, #0
 1245              	.LCFI41:
 1246              		.cfi_def_cfa_register 7
 1247 0006 0346     		mov	r3, r0
 1248 0008 3960     		str	r1, [r7, #0]
 1249 000a FB71     		strb	r3, [r7, #7]
 463:../Sources/drivers/sai/sai.c ****     if(port == 0)
 1250              		.loc 1 463 0
 1251 000c FB79     		ldrb	r3, [r7, #7]	@ zero_extendqisi2
 1252 000e 002B     		cmp	r3, #0
 1253 0010 1DD1     		bne	.L58
 464:../Sources/drivers/sai/sai.c ****         {
 465:../Sources/drivers/sai/sai.c ****             if(tx) I2S_TCSR_REG(I2S0_BASE_PTR) |= I2S_TCSR_BCE_MASK;    //transmit enable
 1254              		.loc 1 465 0
 1255 0012 3B68     		ldr	r3, [r7, #0]
 1256 0014 002B     		cmp	r3, #0
 1257 0016 0CD0     		beq	.L60
 1258              		.loc 1 465 0 is_stmt 0
 1259 0018 4FF47043 		mov	r3, #61440
 1260 001c C4F20203 		movt	r3, 16386
 1261 0020 4FF47042 		mov	r2, #61440
 1262 0024 C4F20202 		movt	r2, 16386
 1263 0028 1268     		ldr	r2, [r2, #0]
 1264 002a 42F08052 		orr	r2, r2, #268435456
 1265 002e 1A60     		str	r2, [r3, #0]
 1266 0030 0DE0     		b	.L58
 1267              	.L60:
 466:../Sources/drivers/sai/sai.c ****             else
 467:../Sources/drivers/sai/sai.c ****                 I2S_RCSR_REG(I2S0_BASE_PTR) |= I2S_RCSR_BCE_MASK;       //receive enable
 1268              		.loc 1 467 0 is_stmt 1
 1269 0032 4FF47043 		mov	r3, #61440
 1270 0036 C4F20203 		movt	r3, 16386
 1271 003a 4FF47042 		mov	r2, #61440
 1272 003e C4F20202 		movt	r2, 16386
 1273 0042 D2F88020 		ldr	r2, [r2, #128]
 1274 0046 42F08052 		orr	r2, r2, #268435456
 1275 004a C3F88020 		str	r2, [r3, #128]
 1276              	.L58:
 468:../Sources/drivers/sai/sai.c ****         }
 469:../Sources/drivers/sai/sai.c ****     else if(port == 1)
 470:../Sources/drivers/sai/sai.c ****         {
 471:../Sources/drivers/sai/sai.c ****             //("Error: Port %d is not available yet.",port);
 472:../Sources/drivers/sai/sai.c ****         }
 473:../Sources/drivers/sai/sai.c **** }
 1277              		.loc 1 473 0
 1278 004e 07F10C07 		add	r7, r7, #12
 1279 0052 BD46     		mov	sp, r7
 1280 0054 80BC     		pop	{r7}
 1281 0056 7047     		bx	lr
 1282              		.cfi_endproc
 1283              	.LFE141:
 1285              		.section	.text.sai_bclk_dis,"ax",%progbits
 1286              		.align	2
 1287              		.global	sai_bclk_dis
 1288              		.thumb
 1289              		.thumb_func
 1291              	sai_bclk_dis:
 1292              	.LFB142:
 474:../Sources/drivers/sai/sai.c **** 
 475:../Sources/drivers/sai/sai.c **** /* */
 476:../Sources/drivers/sai/sai.c **** 
 477:../Sources/drivers/sai/sai.c **** void sai_bclk_dis
 478:../Sources/drivers/sai/sai.c **** (
 479:../Sources/drivers/sai/sai.c ****     unsigned char   port,
 480:../Sources/drivers/sai/sai.c ****     unsigned        tx
 481:../Sources/drivers/sai/sai.c **** )
 482:../Sources/drivers/sai/sai.c **** {
 1293              		.loc 1 482 0
 1294              		.cfi_startproc
 1295              		@ args = 0, pretend = 0, frame = 8
 1296              		@ frame_needed = 1, uses_anonymous_args = 0
 1297              		@ link register save eliminated.
 1298 0000 80B4     		push	{r7}
 1299              	.LCFI42:
 1300              		.cfi_def_cfa_offset 4
 1301              		.cfi_offset 7, -4
 1302 0002 83B0     		sub	sp, sp, #12
 1303              	.LCFI43:
 1304              		.cfi_def_cfa_offset 16
 1305 0004 00AF     		add	r7, sp, #0
 1306              	.LCFI44:
 1307              		.cfi_def_cfa_register 7
 1308 0006 0346     		mov	r3, r0
 1309 0008 3960     		str	r1, [r7, #0]
 1310 000a FB71     		strb	r3, [r7, #7]
 483:../Sources/drivers/sai/sai.c ****     if(port == 0)
 1311              		.loc 1 483 0
 1312 000c FB79     		ldrb	r3, [r7, #7]	@ zero_extendqisi2
 1313 000e 002B     		cmp	r3, #0
 1314 0010 1DD1     		bne	.L61
 484:../Sources/drivers/sai/sai.c ****         {
 485:../Sources/drivers/sai/sai.c ****             if(tx) I2S_TCSR_REG(I2S0_BASE_PTR) &= ~I2S_TCSR_BCE_MASK;   //transmit enable
 1315              		.loc 1 485 0
 1316 0012 3B68     		ldr	r3, [r7, #0]
 1317 0014 002B     		cmp	r3, #0
 1318 0016 0CD0     		beq	.L63
 1319              		.loc 1 485 0 is_stmt 0
 1320 0018 4FF47043 		mov	r3, #61440
 1321 001c C4F20203 		movt	r3, 16386
 1322 0020 4FF47042 		mov	r2, #61440
 1323 0024 C4F20202 		movt	r2, 16386
 1324 0028 1268     		ldr	r2, [r2, #0]
 1325 002a 22F08052 		bic	r2, r2, #268435456
 1326 002e 1A60     		str	r2, [r3, #0]
 1327 0030 0DE0     		b	.L61
 1328              	.L63:
 486:../Sources/drivers/sai/sai.c ****             else
 487:../Sources/drivers/sai/sai.c ****                 I2S_RCSR_REG(I2S0_BASE_PTR) &= ~I2S_RCSR_BCE_MASK;      //receive enable
 1329              		.loc 1 487 0 is_stmt 1
 1330 0032 4FF47043 		mov	r3, #61440
 1331 0036 C4F20203 		movt	r3, 16386
 1332 003a 4FF47042 		mov	r2, #61440
 1333 003e C4F20202 		movt	r2, 16386
 1334 0042 D2F88020 		ldr	r2, [r2, #128]
 1335 0046 22F08052 		bic	r2, r2, #268435456
 1336 004a C3F88020 		str	r2, [r3, #128]
 1337              	.L61:
 488:../Sources/drivers/sai/sai.c ****         }
 489:../Sources/drivers/sai/sai.c ****     else if(port == 1)
 490:../Sources/drivers/sai/sai.c ****         {
 491:../Sources/drivers/sai/sai.c ****             //("Error: Port %d is not available yet.",port);
 492:../Sources/drivers/sai/sai.c ****         }
 493:../Sources/drivers/sai/sai.c **** }
 1338              		.loc 1 493 0
 1339 004e 07F10C07 		add	r7, r7, #12
 1340 0052 BD46     		mov	sp, r7
 1341 0054 80BC     		pop	{r7}
 1342 0056 7047     		bx	lr
 1343              		.cfi_endproc
 1344              	.LFE142:
 1346              		.section	.text.sai_channel_enable,"ax",%progbits
 1347              		.align	2
 1348              		.global	sai_channel_enable
 1349              		.thumb
 1350              		.thumb_func
 1352              	sai_channel_enable:
 1353              	.LFB143:
 494:../Sources/drivers/sai/sai.c **** 
 495:../Sources/drivers/sai/sai.c **** /*
 496:../Sources/drivers/sai/sai.c **** *	Input parameter:
 497:../Sources/drivers/sai/sai.c **** *	port:		SAI module used
 498:../Sources/drivers/sai/sai.c **** *	tx:		transmit or receive
 499:../Sources/drivers/sai/sai.c **** *	chen:		channel enable, 0x01 enable channel one, 0x02 enable channel two, 0x03 enable both channel
 500:../Sources/drivers/sai/sai.c **** */
 501:../Sources/drivers/sai/sai.c **** 
 502:../Sources/drivers/sai/sai.c **** void sai_channel_enable
 503:../Sources/drivers/sai/sai.c **** (
 504:../Sources/drivers/sai/sai.c ****     unsigned char   port,
 505:../Sources/drivers/sai/sai.c ****     unsigned char   tx,
 506:../Sources/drivers/sai/sai.c ****     unsigned char   chen
 507:../Sources/drivers/sai/sai.c **** )
 508:../Sources/drivers/sai/sai.c **** {
 1354              		.loc 1 508 0
 1355              		.cfi_startproc
 1356              		@ args = 0, pretend = 0, frame = 8
 1357              		@ frame_needed = 1, uses_anonymous_args = 0
 1358              		@ link register save eliminated.
 1359 0000 80B4     		push	{r7}
 1360              	.LCFI45:
 1361              		.cfi_def_cfa_offset 4
 1362              		.cfi_offset 7, -4
 1363 0002 83B0     		sub	sp, sp, #12
 1364              	.LCFI46:
 1365              		.cfi_def_cfa_offset 16
 1366 0004 00AF     		add	r7, sp, #0
 1367              	.LCFI47:
 1368              		.cfi_def_cfa_register 7
 1369 0006 1346     		mov	r3, r2
 1370 0008 0246     		mov	r2, r0
 1371 000a FA71     		strb	r2, [r7, #7]
 1372 000c 0A46     		mov	r2, r1
 1373 000e BA71     		strb	r2, [r7, #6]
 1374 0010 7B71     		strb	r3, [r7, #5]
 509:../Sources/drivers/sai/sai.c ****     if(port == 0)
 1375              		.loc 1 509 0
 1376 0012 FB79     		ldrb	r3, [r7, #7]	@ zero_extendqisi2
 1377 0014 002B     		cmp	r3, #0
 1378 0016 25D1     		bne	.L64
 510:../Sources/drivers/sai/sai.c ****         {
 511:../Sources/drivers/sai/sai.c ****             if(tx) I2S_TCR3_REG(I2S0_BASE_PTR) |= I2S_TCR3_TCE(chen);   //tx channel enable
 1379              		.loc 1 511 0
 1380 0018 BB79     		ldrb	r3, [r7, #6]	@ zero_extendqisi2
 1381 001a 002B     		cmp	r3, #0
 1382 001c 10D0     		beq	.L66
 1383              		.loc 1 511 0 is_stmt 0
 1384 001e 4FF47043 		mov	r3, #61440
 1385 0022 C4F20203 		movt	r3, 16386
 1386 0026 4FF47042 		mov	r2, #61440
 1387 002a C4F20202 		movt	r2, 16386
 1388 002e D168     		ldr	r1, [r2, #12]
 1389 0030 7A79     		ldrb	r2, [r7, #5]	@ zero_extendqisi2
 1390 0032 4FEA0242 		lsl	r2, r2, #16
 1391 0036 02F44032 		and	r2, r2, #196608
 1392 003a 0A43     		orrs	r2, r2, r1
 1393 003c DA60     		str	r2, [r3, #12]
 1394 003e 11E0     		b	.L64
 1395              	.L66:
 512:../Sources/drivers/sai/sai.c ****             else
 513:../Sources/drivers/sai/sai.c ****                 I2S_RCR3_REG(I2S0_BASE_PTR) |= I2S_RCR3_RCE(chen);      //rx channel enable
 1396              		.loc 1 513 0 is_stmt 1
 1397 0040 4FF47043 		mov	r3, #61440
 1398 0044 C4F20203 		movt	r3, 16386
 1399 0048 4FF47042 		mov	r2, #61440
 1400 004c C4F20202 		movt	r2, 16386
 1401 0050 D2F88C10 		ldr	r1, [r2, #140]
 1402 0054 7A79     		ldrb	r2, [r7, #5]	@ zero_extendqisi2
 1403 0056 4FEA0242 		lsl	r2, r2, #16
 1404 005a 02F44032 		and	r2, r2, #196608
 1405 005e 0A43     		orrs	r2, r2, r1
 1406 0060 C3F88C20 		str	r2, [r3, #140]
 1407              	.L64:
 514:../Sources/drivers/sai/sai.c ****         }
 515:../Sources/drivers/sai/sai.c ****     else if(port == 1)
 516:../Sources/drivers/sai/sai.c ****         {
 517:../Sources/drivers/sai/sai.c ****             //	("Error: Port %d is not available yet.",port);
 518:../Sources/drivers/sai/sai.c ****         }
 519:../Sources/drivers/sai/sai.c **** }
 1408              		.loc 1 519 0
 1409 0064 07F10C07 		add	r7, r7, #12
 1410 0068 BD46     		mov	sp, r7
 1411 006a 80BC     		pop	{r7}
 1412 006c 7047     		bx	lr
 1413              		.cfi_endproc
 1414              	.LFE143:
 1416 006e 00BF     		.section	.text.sai_channel_disable,"ax",%progbits
 1417              		.align	2
 1418              		.global	sai_channel_disable
 1419              		.thumb
 1420              		.thumb_func
 1422              	sai_channel_disable:
 1423              	.LFB144:
 520:../Sources/drivers/sai/sai.c **** 
 521:../Sources/drivers/sai/sai.c **** /*
 522:../Sources/drivers/sai/sai.c **** *	Input parameter:
 523:../Sources/drivers/sai/sai.c **** *	port:		SAI module used
 524:../Sources/drivers/sai/sai.c **** *	tx:		transmit or receive
 525:../Sources/drivers/sai/sai.c **** *	chen:		channel disable, 0x01 disable channel one, 0x02 disable channel two, 0x03 disable both cha
 526:../Sources/drivers/sai/sai.c **** */
 527:../Sources/drivers/sai/sai.c **** 
 528:../Sources/drivers/sai/sai.c **** void sai_channel_disable
 529:../Sources/drivers/sai/sai.c **** (
 530:../Sources/drivers/sai/sai.c ****     unsigned char   port,
 531:../Sources/drivers/sai/sai.c ****     unsigned char   tx,
 532:../Sources/drivers/sai/sai.c ****     unsigned char   chen
 533:../Sources/drivers/sai/sai.c **** )
 534:../Sources/drivers/sai/sai.c **** {
 1424              		.loc 1 534 0
 1425              		.cfi_startproc
 1426              		@ args = 0, pretend = 0, frame = 8
 1427              		@ frame_needed = 1, uses_anonymous_args = 0
 1428              		@ link register save eliminated.
 1429 0000 80B4     		push	{r7}
 1430              	.LCFI48:
 1431              		.cfi_def_cfa_offset 4
 1432              		.cfi_offset 7, -4
 1433 0002 83B0     		sub	sp, sp, #12
 1434              	.LCFI49:
 1435              		.cfi_def_cfa_offset 16
 1436 0004 00AF     		add	r7, sp, #0
 1437              	.LCFI50:
 1438              		.cfi_def_cfa_register 7
 1439 0006 1346     		mov	r3, r2
 1440 0008 0246     		mov	r2, r0
 1441 000a FA71     		strb	r2, [r7, #7]
 1442 000c 0A46     		mov	r2, r1
 1443 000e BA71     		strb	r2, [r7, #6]
 1444 0010 7B71     		strb	r3, [r7, #5]
 535:../Sources/drivers/sai/sai.c ****     if(port == 0)
 1445              		.loc 1 535 0
 1446 0012 FB79     		ldrb	r3, [r7, #7]	@ zero_extendqisi2
 1447 0014 002B     		cmp	r3, #0
 1448 0016 29D1     		bne	.L67
 536:../Sources/drivers/sai/sai.c ****         {
 537:../Sources/drivers/sai/sai.c ****             if(tx) I2S_TCR3_REG(I2S0_BASE_PTR) &= ~I2S_TCR3_TCE(chen);  //tx channel enable
 1449              		.loc 1 537 0
 1450 0018 BB79     		ldrb	r3, [r7, #6]	@ zero_extendqisi2
 1451 001a 002B     		cmp	r3, #0
 1452 001c 12D0     		beq	.L69
 1453              		.loc 1 537 0 is_stmt 0
 1454 001e 4FF47043 		mov	r3, #61440
 1455 0022 C4F20203 		movt	r3, 16386
 1456 0026 4FF47042 		mov	r2, #61440
 1457 002a C4F20202 		movt	r2, 16386
 1458 002e D168     		ldr	r1, [r2, #12]
 1459 0030 7A79     		ldrb	r2, [r7, #5]	@ zero_extendqisi2
 1460 0032 4FEA0242 		lsl	r2, r2, #16
 1461 0036 02F44032 		and	r2, r2, #196608
 1462 003a 6FEA0202 		mvn	r2, r2
 1463 003e 0A40     		ands	r2, r2, r1
 1464 0040 DA60     		str	r2, [r3, #12]
 1465 0042 13E0     		b	.L67
 1466              	.L69:
 538:../Sources/drivers/sai/sai.c ****             else
 539:../Sources/drivers/sai/sai.c ****                 I2S_RCR3_REG(I2S0_BASE_PTR) &= ~I2S_RCR3_RCE(chen);     //rx channel enable
 1467              		.loc 1 539 0 is_stmt 1
 1468 0044 4FF47043 		mov	r3, #61440
 1469 0048 C4F20203 		movt	r3, 16386
 1470 004c 4FF47042 		mov	r2, #61440
 1471 0050 C4F20202 		movt	r2, 16386
 1472 0054 D2F88C10 		ldr	r1, [r2, #140]
 1473 0058 7A79     		ldrb	r2, [r7, #5]	@ zero_extendqisi2
 1474 005a 4FEA0242 		lsl	r2, r2, #16
 1475 005e 02F44032 		and	r2, r2, #196608
 1476 0062 6FEA0202 		mvn	r2, r2
 1477 0066 0A40     		ands	r2, r2, r1
 1478 0068 C3F88C20 		str	r2, [r3, #140]
 1479              	.L67:
 540:../Sources/drivers/sai/sai.c ****         }
 541:../Sources/drivers/sai/sai.c ****     else if(port == 1)
 542:../Sources/drivers/sai/sai.c ****         {
 543:../Sources/drivers/sai/sai.c ****         }
 544:../Sources/drivers/sai/sai.c **** }
 1480              		.loc 1 544 0
 1481 006c 07F10C07 		add	r7, r7, #12
 1482 0070 BD46     		mov	sp, r7
 1483 0072 80BC     		pop	{r7}
 1484 0074 7047     		bx	lr
 1485              		.cfi_endproc
 1486              	.LFE144:
 1488 0076 00BF     		.section	.text.sai_word_flg_config,"ax",%progbits
 1489              		.align	2
 1490              		.global	sai_word_flg_config
 1491              		.thumb
 1492              		.thumb_func
 1494              	sai_word_flg_config:
 1495              	.LFB145:
 545:../Sources/drivers/sai/sai.c **** 
 546:../Sources/drivers/sai/sai.c **** /*
 547:../Sources/drivers/sai/sai.c **** *	Input parameter
 548:../Sources/drivers/sai/sai.c **** *	port:		SAI module used
 549:../Sources/drivers/sai/sai.c **** *	tx:		transmit or receive
 550:../Sources/drivers/sai/sai.c **** *	wdfl:		configure which word the start of flag is set, should be configured less than frame size
 551:../Sources/drivers/sai/sai.c **** */
 552:../Sources/drivers/sai/sai.c **** 
 553:../Sources/drivers/sai/sai.c **** void sai_word_flg_config
 554:../Sources/drivers/sai/sai.c **** (
 555:../Sources/drivers/sai/sai.c ****     unsigned char   port,
 556:../Sources/drivers/sai/sai.c ****     unsigned char   tx,
 557:../Sources/drivers/sai/sai.c ****     unsigned char   wdfl
 558:../Sources/drivers/sai/sai.c **** )
 559:../Sources/drivers/sai/sai.c **** {
 1496              		.loc 1 559 0
 1497              		.cfi_startproc
 1498              		@ args = 0, pretend = 0, frame = 8
 1499              		@ frame_needed = 1, uses_anonymous_args = 0
 1500              		@ link register save eliminated.
 1501 0000 80B4     		push	{r7}
 1502              	.LCFI51:
 1503              		.cfi_def_cfa_offset 4
 1504              		.cfi_offset 7, -4
 1505 0002 83B0     		sub	sp, sp, #12
 1506              	.LCFI52:
 1507              		.cfi_def_cfa_offset 16
 1508 0004 00AF     		add	r7, sp, #0
 1509              	.LCFI53:
 1510              		.cfi_def_cfa_register 7
 1511 0006 1346     		mov	r3, r2
 1512 0008 0246     		mov	r2, r0
 1513 000a FA71     		strb	r2, [r7, #7]
 1514 000c 0A46     		mov	r2, r1
 1515 000e BA71     		strb	r2, [r7, #6]
 1516 0010 7B71     		strb	r3, [r7, #5]
 560:../Sources/drivers/sai/sai.c ****     if(port == 0)
 1517              		.loc 1 560 0
 1518 0012 FB79     		ldrb	r3, [r7, #7]	@ zero_extendqisi2
 1519 0014 002B     		cmp	r3, #0
 1520 0016 21D1     		bne	.L70
 561:../Sources/drivers/sai/sai.c ****         {
 562:../Sources/drivers/sai/sai.c ****             if(tx) I2S_TCR3_REG(I2S0_BASE_PTR) |= I2S_TCR3_WDFL(wdfl);  //word flag config
 1521              		.loc 1 562 0
 1522 0018 BB79     		ldrb	r3, [r7, #6]	@ zero_extendqisi2
 1523 001a 002B     		cmp	r3, #0
 1524 001c 0ED0     		beq	.L72
 1525              		.loc 1 562 0 is_stmt 0
 1526 001e 4FF47043 		mov	r3, #61440
 1527 0022 C4F20203 		movt	r3, 16386
 1528 0026 4FF47042 		mov	r2, #61440
 1529 002a C4F20202 		movt	r2, 16386
 1530 002e D168     		ldr	r1, [r2, #12]
 1531 0030 7A79     		ldrb	r2, [r7, #5]	@ zero_extendqisi2
 1532 0032 02F01F02 		and	r2, r2, #31
 1533 0036 0A43     		orrs	r2, r2, r1
 1534 0038 DA60     		str	r2, [r3, #12]
 1535 003a 0FE0     		b	.L70
 1536              	.L72:
 563:../Sources/drivers/sai/sai.c ****             else
 564:../Sources/drivers/sai/sai.c ****                 I2S_RCR3_REG(I2S0_BASE_PTR) |= I2S_RCR3_WDFL(wdfl);     //word flag config
 1537              		.loc 1 564 0 is_stmt 1
 1538 003c 4FF47043 		mov	r3, #61440
 1539 0040 C4F20203 		movt	r3, 16386
 1540 0044 4FF47042 		mov	r2, #61440
 1541 0048 C4F20202 		movt	r2, 16386
 1542 004c D2F88C10 		ldr	r1, [r2, #140]
 1543 0050 7A79     		ldrb	r2, [r7, #5]	@ zero_extendqisi2
 1544 0052 02F01F02 		and	r2, r2, #31
 1545 0056 0A43     		orrs	r2, r2, r1
 1546 0058 C3F88C20 		str	r2, [r3, #140]
 1547              	.L70:
 565:../Sources/drivers/sai/sai.c ****         }
 566:../Sources/drivers/sai/sai.c ****     else if(port == 1)
 567:../Sources/drivers/sai/sai.c ****         {
 568:../Sources/drivers/sai/sai.c ****         }
 569:../Sources/drivers/sai/sai.c **** }
 1548              		.loc 1 569 0
 1549 005c 07F10C07 		add	r7, r7, #12
 1550 0060 BD46     		mov	sp, r7
 1551 0062 80BC     		pop	{r7}
 1552 0064 7047     		bx	lr
 1553              		.cfi_endproc
 1554              	.LFE145:
 1556 0066 00BF     		.section	.text.sai_frame_config,"ax",%progbits
 1557              		.align	2
 1558              		.global	sai_frame_config
 1559              		.thumb
 1560              		.thumb_func
 1562              	sai_frame_config:
 1563              	.LFB146:
 570:../Sources/drivers/sai/sai.c **** 
 571:../Sources/drivers/sai/sai.c **** /*
 572:../Sources/drivers/sai/sai.c **** *	Input parameter:
 573:../Sources/drivers/sai/sai.c **** *	port:			SAI module used
 574:../Sources/drivers/sai/sai.c **** *	tx:			transmit or receive
 575:../Sources/drivers/sai/sai.c **** *	framesize:	 	configure number of words in each frame, maximum supported frame size is 32
 576:../Sources/drivers/sai/sai.c **** *	sywd:			configure length of the frame sync in number of bit clocks
 577:../Sources/drivers/sai/sai.c **** *	mf:			specify LSB or MSB first
 578:../Sources/drivers/sai/sai.c **** */
 579:../Sources/drivers/sai/sai.c **** 
 580:../Sources/drivers/sai/sai.c **** void sai_frame_config
 581:../Sources/drivers/sai/sai.c **** (
 582:../Sources/drivers/sai/sai.c ****     unsigned char   port,
 583:../Sources/drivers/sai/sai.c ****     unsigned char   tx,
 584:../Sources/drivers/sai/sai.c ****     unsigned char   framesize,
 585:../Sources/drivers/sai/sai.c ****     unsigned char   sywd,
 586:../Sources/drivers/sai/sai.c ****     unsigned char   mf
 587:../Sources/drivers/sai/sai.c **** )
 588:../Sources/drivers/sai/sai.c **** {
 1564              		.loc 1 588 0
 1565              		.cfi_startproc
 1566              		@ args = 4, pretend = 0, frame = 8
 1567              		@ frame_needed = 1, uses_anonymous_args = 0
 1568              		@ link register save eliminated.
 1569 0000 80B4     		push	{r7}
 1570              	.LCFI54:
 1571              		.cfi_def_cfa_offset 4
 1572              		.cfi_offset 7, -4
 1573 0002 83B0     		sub	sp, sp, #12
 1574              	.LCFI55:
 1575              		.cfi_def_cfa_offset 16
 1576 0004 00AF     		add	r7, sp, #0
 1577              	.LCFI56:
 1578              		.cfi_def_cfa_register 7
 1579 0006 F871     		strb	r0, [r7, #7]
 1580 0008 B971     		strb	r1, [r7, #6]
 1581 000a 7A71     		strb	r2, [r7, #5]
 1582 000c 3B71     		strb	r3, [r7, #4]
 589:../Sources/drivers/sai/sai.c ****     if(port == 0)
 1583              		.loc 1 589 0
 1584 000e FB79     		ldrb	r3, [r7, #7]	@ zero_extendqisi2
 1585 0010 002B     		cmp	r3, #0
 1586 0012 40F0A280 		bne	.L73
 590:../Sources/drivers/sai/sai.c ****         {
 591:../Sources/drivers/sai/sai.c ****             if(tx)
 1587              		.loc 1 591 0
 1588 0016 BB79     		ldrb	r3, [r7, #6]	@ zero_extendqisi2
 1589 0018 002B     		cmp	r3, #0
 1590 001a 4AD0     		beq	.L75
 592:../Sources/drivers/sai/sai.c ****                 {
 593:../Sources/drivers/sai/sai.c ****                     I2S_TCR4_REG(I2S0_BASE_PTR) &= ~I2S_TCR4_FRSZ_MASK;
 1591              		.loc 1 593 0
 1592 001c 4FF47043 		mov	r3, #61440
 1593 0020 C4F20203 		movt	r3, 16386
 1594 0024 4FF47042 		mov	r2, #61440
 1595 0028 C4F20202 		movt	r2, 16386
 1596 002c 1269     		ldr	r2, [r2, #16]
 1597 002e 22F4F812 		bic	r2, r2, #2031616
 1598 0032 1A61     		str	r2, [r3, #16]
 594:../Sources/drivers/sai/sai.c ****                     I2S_TCR4_REG(I2S0_BASE_PTR) &= ~I2S_TCR4_SYWD_MASK;
 1599              		.loc 1 594 0
 1600 0034 4FF47043 		mov	r3, #61440
 1601 0038 C4F20203 		movt	r3, 16386
 1602 003c 4FF47042 		mov	r2, #61440
 1603 0040 C4F20202 		movt	r2, 16386
 1604 0044 1269     		ldr	r2, [r2, #16]
 1605 0046 22F4F852 		bic	r2, r2, #7936
 1606 004a 1A61     		str	r2, [r3, #16]
 595:../Sources/drivers/sai/sai.c ****                     I2S_TCR4_REG(I2S0_BASE_PTR) |= I2S_TCR4_FRSZ(framesize) //configure number of w
 1607              		.loc 1 595 0
 1608 004c 4FF47043 		mov	r3, #61440
 1609 0050 C4F20203 		movt	r3, 16386
 1610 0054 4FF47042 		mov	r2, #61440
 1611 0058 C4F20202 		movt	r2, 16386
 1612 005c 1169     		ldr	r1, [r2, #16]
 1613 005e 7A79     		ldrb	r2, [r7, #5]	@ zero_extendqisi2
 1614 0060 4FEA0242 		lsl	r2, r2, #16
 1615 0064 02F4F810 		and	r0, r2, #2031616
 596:../Sources/drivers/sai/sai.c ****                                                    | I2S_TCR4_SYWD(sywd)   //configure length of th
 1616              		.loc 1 596 0
 1617 0068 3A79     		ldrb	r2, [r7, #4]	@ zero_extendqisi2
 1618 006a 4FEA0222 		lsl	r2, r2, #8
 1619 006e 02F4F852 		and	r2, r2, #7936
 1620 0072 0243     		orrs	r2, r2, r0
 595:../Sources/drivers/sai/sai.c ****                     I2S_TCR4_REG(I2S0_BASE_PTR) |= I2S_TCR4_FRSZ(framesize) //configure number of w
 1621              		.loc 1 595 0
 1622 0074 0A43     		orrs	r2, r2, r1
 1623 0076 1A61     		str	r2, [r3, #16]
 597:../Sources/drivers/sai/sai.c ****                                                    ;
 598:../Sources/drivers/sai/sai.c **** 
 599:../Sources/drivers/sai/sai.c ****                     if(mf) I2S_TCR4_REG(I2S0_BASE_PTR) |= I2S_TCR4_MF_MASK; //MSB transmit first
 1624              		.loc 1 599 0
 1625 0078 3B7C     		ldrb	r3, [r7, #16]	@ zero_extendqisi2
 1626 007a 002B     		cmp	r3, #0
 1627 007c 0CD0     		beq	.L76
 1628              		.loc 1 599 0 is_stmt 0
 1629 007e 4FF47043 		mov	r3, #61440
 1630 0082 C4F20203 		movt	r3, 16386
 1631 0086 4FF47042 		mov	r2, #61440
 1632 008a C4F20202 		movt	r2, 16386
 1633 008e 1269     		ldr	r2, [r2, #16]
 1634 0090 42F01002 		orr	r2, r2, #16
 1635 0094 1A61     		str	r2, [r3, #16]
 1636 0096 60E0     		b	.L73
 1637              	.L76:
 600:../Sources/drivers/sai/sai.c ****                     else
 601:../Sources/drivers/sai/sai.c ****                         I2S_TCR4_REG(I2S0_BASE_PTR) &= ~I2S_TCR4_MF_MASK;   //LSB transmit first
 1638              		.loc 1 601 0 is_stmt 1
 1639 0098 4FF47043 		mov	r3, #61440
 1640 009c C4F20203 		movt	r3, 16386
 1641 00a0 4FF47042 		mov	r2, #61440
 1642 00a4 C4F20202 		movt	r2, 16386
 1643 00a8 1269     		ldr	r2, [r2, #16]
 1644 00aa 22F01002 		bic	r2, r2, #16
 1645 00ae 1A61     		str	r2, [r3, #16]
 1646 00b0 53E0     		b	.L73
 1647              	.L75:
 602:../Sources/drivers/sai/sai.c ****                 }
 603:../Sources/drivers/sai/sai.c ****             else
 604:../Sources/drivers/sai/sai.c ****                 {
 605:../Sources/drivers/sai/sai.c ****                     I2S_RCR4_REG(I2S0_BASE_PTR) &= ~I2S_RCR4_FRSZ_MASK;
 1648              		.loc 1 605 0
 1649 00b2 4FF47043 		mov	r3, #61440
 1650 00b6 C4F20203 		movt	r3, 16386
 1651 00ba 4FF47042 		mov	r2, #61440
 1652 00be C4F20202 		movt	r2, 16386
 1653 00c2 D2F89020 		ldr	r2, [r2, #144]
 1654 00c6 22F4F812 		bic	r2, r2, #2031616
 1655 00ca C3F89020 		str	r2, [r3, #144]
 606:../Sources/drivers/sai/sai.c ****                     I2S_RCR4_REG(I2S0_BASE_PTR) &= ~I2S_RCR4_SYWD_MASK;
 1656              		.loc 1 606 0
 1657 00ce 4FF47043 		mov	r3, #61440
 1658 00d2 C4F20203 		movt	r3, 16386
 1659 00d6 4FF47042 		mov	r2, #61440
 1660 00da C4F20202 		movt	r2, 16386
 1661 00de D2F89020 		ldr	r2, [r2, #144]
 1662 00e2 22F4F852 		bic	r2, r2, #7936
 1663 00e6 C3F89020 		str	r2, [r3, #144]
 607:../Sources/drivers/sai/sai.c ****                     I2S_RCR4_REG(I2S0_BASE_PTR) |= I2S_RCR4_FRSZ(framesize) //configure number of w
 1664              		.loc 1 607 0
 1665 00ea 4FF47043 		mov	r3, #61440
 1666 00ee C4F20203 		movt	r3, 16386
 1667 00f2 4FF47042 		mov	r2, #61440
 1668 00f6 C4F20202 		movt	r2, 16386
 1669 00fa D2F89010 		ldr	r1, [r2, #144]
 1670 00fe 7A79     		ldrb	r2, [r7, #5]	@ zero_extendqisi2
 1671 0100 4FEA0242 		lsl	r2, r2, #16
 1672 0104 02F4F810 		and	r0, r2, #2031616
 608:../Sources/drivers/sai/sai.c ****                                                    | I2S_RCR4_SYWD(sywd)   //configure length of th
 1673              		.loc 1 608 0
 1674 0108 3A79     		ldrb	r2, [r7, #4]	@ zero_extendqisi2
 1675 010a 4FEA0222 		lsl	r2, r2, #8
 1676 010e 02F4F852 		and	r2, r2, #7936
 1677 0112 0243     		orrs	r2, r2, r0
 607:../Sources/drivers/sai/sai.c ****                     I2S_RCR4_REG(I2S0_BASE_PTR) |= I2S_RCR4_FRSZ(framesize) //configure number of w
 1678              		.loc 1 607 0
 1679 0114 0A43     		orrs	r2, r2, r1
 1680 0116 C3F89020 		str	r2, [r3, #144]
 609:../Sources/drivers/sai/sai.c ****                                                    ;
 610:../Sources/drivers/sai/sai.c **** 
 611:../Sources/drivers/sai/sai.c ****                     if(mf) I2S_RCR4_REG(I2S0_BASE_PTR) |= I2S_RCR4_MF_MASK; //MSB transmit first
 1681              		.loc 1 611 0
 1682 011a 3B7C     		ldrb	r3, [r7, #16]	@ zero_extendqisi2
 1683 011c 002B     		cmp	r3, #0
 1684 011e 0ED0     		beq	.L77
 1685              		.loc 1 611 0 is_stmt 0
 1686 0120 4FF47043 		mov	r3, #61440
 1687 0124 C4F20203 		movt	r3, 16386
 1688 0128 4FF47042 		mov	r2, #61440
 1689 012c C4F20202 		movt	r2, 16386
 1690 0130 D2F89020 		ldr	r2, [r2, #144]
 1691 0134 42F01002 		orr	r2, r2, #16
 1692 0138 C3F89020 		str	r2, [r3, #144]
 1693 013c 0DE0     		b	.L73
 1694              	.L77:
 612:../Sources/drivers/sai/sai.c ****                     else
 613:../Sources/drivers/sai/sai.c ****                         I2S_RCR4_REG(I2S0_BASE_PTR) &= ~I2S_RCR4_MF_MASK;   //LSB transmit first
 1695              		.loc 1 613 0 is_stmt 1
 1696 013e 4FF47043 		mov	r3, #61440
 1697 0142 C4F20203 		movt	r3, 16386
 1698 0146 4FF47042 		mov	r2, #61440
 1699 014a C4F20202 		movt	r2, 16386
 1700 014e D2F89020 		ldr	r2, [r2, #144]
 1701 0152 22F01002 		bic	r2, r2, #16
 1702 0156 C3F89020 		str	r2, [r3, #144]
 1703              	.L73:
 614:../Sources/drivers/sai/sai.c ****                 }
 615:../Sources/drivers/sai/sai.c ****         }
 616:../Sources/drivers/sai/sai.c ****     else if(port == 1)
 617:../Sources/drivers/sai/sai.c ****         {
 618:../Sources/drivers/sai/sai.c ****         }
 619:../Sources/drivers/sai/sai.c **** }
 1704              		.loc 1 619 0
 1705 015a 07F10C07 		add	r7, r7, #12
 1706 015e BD46     		mov	sp, r7
 1707 0160 80BC     		pop	{r7}
 1708 0162 7047     		bx	lr
 1709              		.cfi_endproc
 1710              	.LFE146:
 1712              		.section	.text.sai_frameclk_config,"ax",%progbits
 1713              		.align	2
 1714              		.global	sai_frameclk_config
 1715              		.thumb
 1716              		.thumb_func
 1718              	sai_frameclk_config:
 1719              	.LFB147:
 620:../Sources/drivers/sai/sai.c **** 
 621:../Sources/drivers/sai/sai.c **** /*
 622:../Sources/drivers/sai/sai.c **** *	Input parameter
 623:../Sources/drivers/sai/sai.c **** *	port:		SAI module used
 624:../Sources/drivers/sai/sai.c **** *	tx:		transmit or receive
 625:../Sources/drivers/sai/sai.c **** *	fse:		frame sync early
 626:../Sources/drivers/sai/sai.c **** *	fsp:		frame sync polarity
 627:../Sources/drivers/sai/sai.c **** *	fsd:		frame sync direction
 628:../Sources/drivers/sai/sai.c **** */
 629:../Sources/drivers/sai/sai.c **** 
 630:../Sources/drivers/sai/sai.c **** void sai_frameclk_config
 631:../Sources/drivers/sai/sai.c **** (
 632:../Sources/drivers/sai/sai.c ****     unsigned char   port,
 633:../Sources/drivers/sai/sai.c ****     unsigned char   tx,
 634:../Sources/drivers/sai/sai.c ****     unsigned char   fse,
 635:../Sources/drivers/sai/sai.c ****     unsigned char   fsp,
 636:../Sources/drivers/sai/sai.c ****     unsigned char   fsd
 637:../Sources/drivers/sai/sai.c **** )
 638:../Sources/drivers/sai/sai.c **** {
 1720              		.loc 1 638 0
 1721              		.cfi_startproc
 1722              		@ args = 4, pretend = 0, frame = 8
 1723              		@ frame_needed = 1, uses_anonymous_args = 0
 1724              		@ link register save eliminated.
 1725 0000 80B4     		push	{r7}
 1726              	.LCFI57:
 1727              		.cfi_def_cfa_offset 4
 1728              		.cfi_offset 7, -4
 1729 0002 83B0     		sub	sp, sp, #12
 1730              	.LCFI58:
 1731              		.cfi_def_cfa_offset 16
 1732 0004 00AF     		add	r7, sp, #0
 1733              	.LCFI59:
 1734              		.cfi_def_cfa_register 7
 1735 0006 F871     		strb	r0, [r7, #7]
 1736 0008 B971     		strb	r1, [r7, #6]
 1737 000a 7A71     		strb	r2, [r7, #5]
 1738 000c 3B71     		strb	r3, [r7, #4]
 639:../Sources/drivers/sai/sai.c ****     if(port == 0)
 1739              		.loc 1 639 0
 1740 000e FB79     		ldrb	r3, [r7, #7]	@ zero_extendqisi2
 1741 0010 002B     		cmp	r3, #0
 1742 0012 40F0B880 		bne	.L78
 640:../Sources/drivers/sai/sai.c ****         {
 641:../Sources/drivers/sai/sai.c ****             if(tx)
 1743              		.loc 1 641 0
 1744 0016 BB79     		ldrb	r3, [r7, #6]	@ zero_extendqisi2
 1745 0018 002B     		cmp	r3, #0
 1746 001a 54D0     		beq	.L80
 642:../Sources/drivers/sai/sai.c ****                 {
 643:../Sources/drivers/sai/sai.c ****                     if(fse) I2S_TCR4_REG(I2S0_BASE_PTR) |= I2S_TCR4_FSE_MASK;   //frame sync early
 1747              		.loc 1 643 0
 1748 001c 7B79     		ldrb	r3, [r7, #5]	@ zero_extendqisi2
 1749 001e 002B     		cmp	r3, #0
 1750 0020 0CD0     		beq	.L81
 1751              		.loc 1 643 0 is_stmt 0
 1752 0022 4FF47043 		mov	r3, #61440
 1753 0026 C4F20203 		movt	r3, 16386
 1754 002a 4FF47042 		mov	r2, #61440
 1755 002e C4F20202 		movt	r2, 16386
 1756 0032 1269     		ldr	r2, [r2, #16]
 1757 0034 42F00802 		orr	r2, r2, #8
 1758 0038 1A61     		str	r2, [r3, #16]
 1759 003a 0BE0     		b	.L82
 1760              	.L81:
 644:../Sources/drivers/sai/sai.c ****                     else
 645:../Sources/drivers/sai/sai.c ****                         I2S_TCR4_REG(I2S0_BASE_PTR) &= ~I2S_TCR4_FSE_MASK;
 1761              		.loc 1 645 0 is_stmt 1
 1762 003c 4FF47043 		mov	r3, #61440
 1763 0040 C4F20203 		movt	r3, 16386
 1764 0044 4FF47042 		mov	r2, #61440
 1765 0048 C4F20202 		movt	r2, 16386
 1766 004c 1269     		ldr	r2, [r2, #16]
 1767 004e 22F00802 		bic	r2, r2, #8
 1768 0052 1A61     		str	r2, [r3, #16]
 1769              	.L82:
 646:../Sources/drivers/sai/sai.c **** 
 647:../Sources/drivers/sai/sai.c ****                     if(fsp) I2S_TCR4_REG(I2S0_BASE_PTR) |= I2S_TCR4_FSP_MASK;   //frame sync active
 1770              		.loc 1 647 0
 1771 0054 3B79     		ldrb	r3, [r7, #4]	@ zero_extendqisi2
 1772 0056 002B     		cmp	r3, #0
 1773 0058 0CD0     		beq	.L83
 1774              		.loc 1 647 0 is_stmt 0
 1775 005a 4FF47043 		mov	r3, #61440
 1776 005e C4F20203 		movt	r3, 16386
 1777 0062 4FF47042 		mov	r2, #61440
 1778 0066 C4F20202 		movt	r2, 16386
 1779 006a 1269     		ldr	r2, [r2, #16]
 1780 006c 42F00202 		orr	r2, r2, #2
 1781 0070 1A61     		str	r2, [r3, #16]
 1782 0072 0BE0     		b	.L84
 1783              	.L83:
 648:../Sources/drivers/sai/sai.c ****                     else
 649:../Sources/drivers/sai/sai.c ****                         I2S_TCR4_REG(I2S0_BASE_PTR) &= ~I2S_TCR4_FSP_MASK;      //frame sync active
 1784              		.loc 1 649 0 is_stmt 1
 1785 0074 4FF47043 		mov	r3, #61440
 1786 0078 C4F20203 		movt	r3, 16386
 1787 007c 4FF47042 		mov	r2, #61440
 1788 0080 C4F20202 		movt	r2, 16386
 1789 0084 1269     		ldr	r2, [r2, #16]
 1790 0086 22F00202 		bic	r2, r2, #2
 1791 008a 1A61     		str	r2, [r3, #16]
 1792              	.L84:
 650:../Sources/drivers/sai/sai.c **** 
 651:../Sources/drivers/sai/sai.c ****                     if(fsd) I2S_TCR4_REG(I2S0_BASE_PTR) |= I2S_TCR4_FSD_MASK;   //frame sync genera
 1793              		.loc 1 651 0
 1794 008c 3B7C     		ldrb	r3, [r7, #16]	@ zero_extendqisi2
 1795 008e 002B     		cmp	r3, #0
 1796 0090 0CD0     		beq	.L85
 1797              		.loc 1 651 0 is_stmt 0
 1798 0092 4FF47043 		mov	r3, #61440
 1799 0096 C4F20203 		movt	r3, 16386
 1800 009a 4FF47042 		mov	r2, #61440
 1801 009e C4F20202 		movt	r2, 16386
 1802 00a2 1269     		ldr	r2, [r2, #16]
 1803 00a4 42F00102 		orr	r2, r2, #1
 1804 00a8 1A61     		str	r2, [r3, #16]
 1805 00aa 6CE0     		b	.L78
 1806              	.L85:
 652:../Sources/drivers/sai/sai.c ****                     else
 653:../Sources/drivers/sai/sai.c ****                         I2S_TCR4_REG(I2S0_BASE_PTR) &= ~I2S_TCR4_FSD_MASK;      //frame sync genera
 1807              		.loc 1 653 0 is_stmt 1
 1808 00ac 4FF47043 		mov	r3, #61440
 1809 00b0 C4F20203 		movt	r3, 16386
 1810 00b4 4FF47042 		mov	r2, #61440
 1811 00b8 C4F20202 		movt	r2, 16386
 1812 00bc 1269     		ldr	r2, [r2, #16]
 1813 00be 22F00102 		bic	r2, r2, #1
 1814 00c2 1A61     		str	r2, [r3, #16]
 1815 00c4 5FE0     		b	.L78
 1816              	.L80:
 654:../Sources/drivers/sai/sai.c ****                 }
 655:../Sources/drivers/sai/sai.c ****             else
 656:../Sources/drivers/sai/sai.c ****                 {
 657:../Sources/drivers/sai/sai.c ****                     if(fse) I2S_RCR4_REG(I2S0_BASE_PTR) |= I2S_RCR4_FSE_MASK;   //frame sync early
 1817              		.loc 1 657 0
 1818 00c6 7B79     		ldrb	r3, [r7, #5]	@ zero_extendqisi2
 1819 00c8 002B     		cmp	r3, #0
 1820 00ca 0ED0     		beq	.L86
 1821              		.loc 1 657 0 is_stmt 0
 1822 00cc 4FF47043 		mov	r3, #61440
 1823 00d0 C4F20203 		movt	r3, 16386
 1824 00d4 4FF47042 		mov	r2, #61440
 1825 00d8 C4F20202 		movt	r2, 16386
 1826 00dc D2F89020 		ldr	r2, [r2, #144]
 1827 00e0 42F00802 		orr	r2, r2, #8
 1828 00e4 C3F89020 		str	r2, [r3, #144]
 1829 00e8 0DE0     		b	.L87
 1830              	.L86:
 658:../Sources/drivers/sai/sai.c ****                     else
 659:../Sources/drivers/sai/sai.c ****                         I2S_RCR4_REG(I2S0_BASE_PTR) &= ~I2S_RCR4_FSE_MASK;
 1831              		.loc 1 659 0 is_stmt 1
 1832 00ea 4FF47043 		mov	r3, #61440
 1833 00ee C4F20203 		movt	r3, 16386
 1834 00f2 4FF47042 		mov	r2, #61440
 1835 00f6 C4F20202 		movt	r2, 16386
 1836 00fa D2F89020 		ldr	r2, [r2, #144]
 1837 00fe 22F00802 		bic	r2, r2, #8
 1838 0102 C3F89020 		str	r2, [r3, #144]
 1839              	.L87:
 660:../Sources/drivers/sai/sai.c **** 
 661:../Sources/drivers/sai/sai.c ****                     if(fsp) I2S_RCR4_REG(I2S0_BASE_PTR) |= I2S_RCR4_FSP_MASK;   //frame sync active
 1840              		.loc 1 661 0
 1841 0106 3B79     		ldrb	r3, [r7, #4]	@ zero_extendqisi2
 1842 0108 002B     		cmp	r3, #0
 1843 010a 0ED0     		beq	.L88
 1844              		.loc 1 661 0 is_stmt 0
 1845 010c 4FF47043 		mov	r3, #61440
 1846 0110 C4F20203 		movt	r3, 16386
 1847 0114 4FF47042 		mov	r2, #61440
 1848 0118 C4F20202 		movt	r2, 16386
 1849 011c D2F89020 		ldr	r2, [r2, #144]
 1850 0120 42F00202 		orr	r2, r2, #2
 1851 0124 C3F89020 		str	r2, [r3, #144]
 1852 0128 0DE0     		b	.L89
 1853              	.L88:
 662:../Sources/drivers/sai/sai.c ****                     else
 663:../Sources/drivers/sai/sai.c ****                         I2S_RCR4_REG(I2S0_BASE_PTR) &= ~I2S_RCR4_FSP_MASK;      //frame sync active
 1854              		.loc 1 663 0 is_stmt 1
 1855 012a 4FF47043 		mov	r3, #61440
 1856 012e C4F20203 		movt	r3, 16386
 1857 0132 4FF47042 		mov	r2, #61440
 1858 0136 C4F20202 		movt	r2, 16386
 1859 013a D2F89020 		ldr	r2, [r2, #144]
 1860 013e 22F00202 		bic	r2, r2, #2
 1861 0142 C3F89020 		str	r2, [r3, #144]
 1862              	.L89:
 664:../Sources/drivers/sai/sai.c **** 
 665:../Sources/drivers/sai/sai.c ****                     if(fsd) I2S_RCR4_REG(I2S0_BASE_PTR) |= I2S_RCR4_FSD_MASK;   //frame sync genera
 1863              		.loc 1 665 0
 1864 0146 3B7C     		ldrb	r3, [r7, #16]	@ zero_extendqisi2
 1865 0148 002B     		cmp	r3, #0
 1866 014a 0ED0     		beq	.L90
 1867              		.loc 1 665 0 is_stmt 0
 1868 014c 4FF47043 		mov	r3, #61440
 1869 0150 C4F20203 		movt	r3, 16386
 1870 0154 4FF47042 		mov	r2, #61440
 1871 0158 C4F20202 		movt	r2, 16386
 1872 015c D2F89020 		ldr	r2, [r2, #144]
 1873 0160 42F00102 		orr	r2, r2, #1
 1874 0164 C3F89020 		str	r2, [r3, #144]
 1875 0168 0DE0     		b	.L78
 1876              	.L90:
 666:../Sources/drivers/sai/sai.c ****                     else
 667:../Sources/drivers/sai/sai.c ****                         I2S_RCR4_REG(I2S0_BASE_PTR) &= ~I2S_RCR4_FSD_MASK;      //frame sync genera
 1877              		.loc 1 667 0 is_stmt 1
 1878 016a 4FF47043 		mov	r3, #61440
 1879 016e C4F20203 		movt	r3, 16386
 1880 0172 4FF47042 		mov	r2, #61440
 1881 0176 C4F20202 		movt	r2, 16386
 1882 017a D2F89020 		ldr	r2, [r2, #144]
 1883 017e 22F00102 		bic	r2, r2, #1
 1884 0182 C3F89020 		str	r2, [r3, #144]
 1885              	.L78:
 668:../Sources/drivers/sai/sai.c ****                 }
 669:../Sources/drivers/sai/sai.c ****         }
 670:../Sources/drivers/sai/sai.c ****     else if(port == 1)
 671:../Sources/drivers/sai/sai.c ****         {
 672:../Sources/drivers/sai/sai.c ****         }
 673:../Sources/drivers/sai/sai.c **** }
 1886              		.loc 1 673 0
 1887 0186 07F10C07 		add	r7, r7, #12
 1888 018a BD46     		mov	sp, r7
 1889 018c 80BC     		pop	{r7}
 1890 018e 7047     		bx	lr
 1891              		.cfi_endproc
 1892              	.LFE147:
 1894              		.section	.text.sai_wordlength_config,"ax",%progbits
 1895              		.align	2
 1896              		.global	sai_wordlength_config
 1897              		.thumb
 1898              		.thumb_func
 1900              	sai_wordlength_config:
 1901              	.LFB148:
 674:../Sources/drivers/sai/sai.c **** 
 675:../Sources/drivers/sai/sai.c **** /*
 676:../Sources/drivers/sai/sai.c **** *	Input parameter
 677:../Sources/drivers/sai/sai.c **** *	port:		SAI module used
 678:../Sources/drivers/sai/sai.c **** *	tx:		transmit or receive
 679:../Sources/drivers/sai/sai.c **** *	wnw:		word N width
 680:../Sources/drivers/sai/sai.c **** *	w0w:		word 0 width
 681:../Sources/drivers/sai/sai.c **** *	fbt:		configure the bit index of the first bit transmitted for each word in the frame
 682:../Sources/drivers/sai/sai.c **** */
 683:../Sources/drivers/sai/sai.c **** 
 684:../Sources/drivers/sai/sai.c **** void sai_wordlength_config
 685:../Sources/drivers/sai/sai.c **** (
 686:../Sources/drivers/sai/sai.c ****     unsigned char   port,
 687:../Sources/drivers/sai/sai.c ****     unsigned char   tx,
 688:../Sources/drivers/sai/sai.c ****     unsigned char   wnw,
 689:../Sources/drivers/sai/sai.c ****     unsigned char   w0w,
 690:../Sources/drivers/sai/sai.c ****     unsigned char   fbt
 691:../Sources/drivers/sai/sai.c **** )
 692:../Sources/drivers/sai/sai.c **** {
 1902              		.loc 1 692 0
 1903              		.cfi_startproc
 1904              		@ args = 4, pretend = 0, frame = 8
 1905              		@ frame_needed = 1, uses_anonymous_args = 0
 1906              		@ link register save eliminated.
 1907 0000 80B4     		push	{r7}
 1908              	.LCFI60:
 1909              		.cfi_def_cfa_offset 4
 1910              		.cfi_offset 7, -4
 1911 0002 83B0     		sub	sp, sp, #12
 1912              	.LCFI61:
 1913              		.cfi_def_cfa_offset 16
 1914 0004 00AF     		add	r7, sp, #0
 1915              	.LCFI62:
 1916              		.cfi_def_cfa_register 7
 1917 0006 F871     		strb	r0, [r7, #7]
 1918 0008 B971     		strb	r1, [r7, #6]
 1919 000a 7A71     		strb	r2, [r7, #5]
 1920 000c 3B71     		strb	r3, [r7, #4]
 693:../Sources/drivers/sai/sai.c ****     if(port == 0)
 1921              		.loc 1 693 0
 1922 000e FB79     		ldrb	r3, [r7, #7]	@ zero_extendqisi2
 1923 0010 002B     		cmp	r3, #0
 1924 0012 40F08C80 		bne	.L91
 694:../Sources/drivers/sai/sai.c ****         {
 695:../Sources/drivers/sai/sai.c ****             if(tx)
 1925              		.loc 1 695 0
 1926 0016 BB79     		ldrb	r3, [r7, #6]	@ zero_extendqisi2
 1927 0018 002B     		cmp	r3, #0
 1928 001a 40D0     		beq	.L93
 696:../Sources/drivers/sai/sai.c ****                 {
 697:../Sources/drivers/sai/sai.c ****                     I2S_TCR5_REG(I2S0_BASE_PTR) &= ~I2S_TCR5_WNW_MASK;
 1929              		.loc 1 697 0
 1930 001c 4FF47043 		mov	r3, #61440
 1931 0020 C4F20203 		movt	r3, 16386
 1932 0024 4FF47042 		mov	r2, #61440
 1933 0028 C4F20202 		movt	r2, 16386
 1934 002c 5269     		ldr	r2, [r2, #20]
 1935 002e 22F0F852 		bic	r2, r2, #520093696
 1936 0032 5A61     		str	r2, [r3, #20]
 698:../Sources/drivers/sai/sai.c ****                     I2S_TCR5_REG(I2S0_BASE_PTR) &= ~I2S_TCR5_W0W_MASK;
 1937              		.loc 1 698 0
 1938 0034 4FF47043 		mov	r3, #61440
 1939 0038 C4F20203 		movt	r3, 16386
 1940 003c 4FF47042 		mov	r2, #61440
 1941 0040 C4F20202 		movt	r2, 16386
 1942 0044 5269     		ldr	r2, [r2, #20]
 1943 0046 22F4F812 		bic	r2, r2, #2031616
 1944 004a 5A61     		str	r2, [r3, #20]
 699:../Sources/drivers/sai/sai.c ****                     I2S_TCR5_REG(I2S0_BASE_PTR) &= ~I2S_TCR5_FBT_MASK;
 1945              		.loc 1 699 0
 1946 004c 4FF47043 		mov	r3, #61440
 1947 0050 C4F20203 		movt	r3, 16386
 1948 0054 4FF47042 		mov	r2, #61440
 1949 0058 C4F20202 		movt	r2, 16386
 1950 005c 5269     		ldr	r2, [r2, #20]
 1951 005e 22F4F852 		bic	r2, r2, #7936
 1952 0062 5A61     		str	r2, [r3, #20]
 700:../Sources/drivers/sai/sai.c ****                     I2S_TCR5_REG(I2S0_BASE_PTR) |= I2S_TCR5_WNW(wnw)    //configure number of bits 
 1953              		.loc 1 700 0
 1954 0064 4FF47043 		mov	r3, #61440
 1955 0068 C4F20203 		movt	r3, 16386
 1956 006c 4FF47042 		mov	r2, #61440
 1957 0070 C4F20202 		movt	r2, 16386
 1958 0074 5169     		ldr	r1, [r2, #20]
 1959 0076 7A79     		ldrb	r2, [r7, #5]	@ zero_extendqisi2
 1960 0078 4FEA0262 		lsl	r2, r2, #24
 1961 007c 02F0F850 		and	r0, r2, #520093696
 701:../Sources/drivers/sai/sai.c ****                                                    | I2S_TCR5_W0W(w0w) //configure number of bits f
 1962              		.loc 1 701 0
 1963 0080 3A79     		ldrb	r2, [r7, #4]	@ zero_extendqisi2
 1964 0082 4FEA0242 		lsl	r2, r2, #16
 1965 0086 02F4F812 		and	r2, r2, #2031616
 1966 008a 1043     		orrs	r0, r0, r2
 702:../Sources/drivers/sai/sai.c ****                                                    | I2S_TCR5_FBT(fbt) //configure bit index of fir
 1967              		.loc 1 702 0
 1968 008c 3A7C     		ldrb	r2, [r7, #16]	@ zero_extendqisi2
 1969 008e 4FEA0222 		lsl	r2, r2, #8
 1970 0092 02F4F852 		and	r2, r2, #7936
 1971 0096 0243     		orrs	r2, r2, r0
 700:../Sources/drivers/sai/sai.c ****                     I2S_TCR5_REG(I2S0_BASE_PTR) |= I2S_TCR5_WNW(wnw)    //configure number of bits 
 1972              		.loc 1 700 0
 1973 0098 0A43     		orrs	r2, r2, r1
 1974 009a 5A61     		str	r2, [r3, #20]
 1975 009c 47E0     		b	.L91
 1976              	.L93:
 703:../Sources/drivers/sai/sai.c ****                                                    ;
 704:../Sources/drivers/sai/sai.c ****                 }
 705:../Sources/drivers/sai/sai.c ****             else
 706:../Sources/drivers/sai/sai.c ****                 {
 707:../Sources/drivers/sai/sai.c ****                     I2S_RCR5_REG(I2S0_BASE_PTR) &= ~I2S_RCR5_WNW_MASK;
 1977              		.loc 1 707 0
 1978 009e 4FF47043 		mov	r3, #61440
 1979 00a2 C4F20203 		movt	r3, 16386
 1980 00a6 4FF47042 		mov	r2, #61440
 1981 00aa C4F20202 		movt	r2, 16386
 1982 00ae D2F89420 		ldr	r2, [r2, #148]
 1983 00b2 22F0F852 		bic	r2, r2, #520093696
 1984 00b6 C3F89420 		str	r2, [r3, #148]
 708:../Sources/drivers/sai/sai.c ****                     I2S_RCR5_REG(I2S0_BASE_PTR) &= ~I2S_RCR5_W0W_MASK;
 1985              		.loc 1 708 0
 1986 00ba 4FF47043 		mov	r3, #61440
 1987 00be C4F20203 		movt	r3, 16386
 1988 00c2 4FF47042 		mov	r2, #61440
 1989 00c6 C4F20202 		movt	r2, 16386
 1990 00ca D2F89420 		ldr	r2, [r2, #148]
 1991 00ce 22F4F812 		bic	r2, r2, #2031616
 1992 00d2 C3F89420 		str	r2, [r3, #148]
 709:../Sources/drivers/sai/sai.c ****                     I2S_RCR5_REG(I2S0_BASE_PTR) &= ~I2S_RCR5_FBT_MASK;
 1993              		.loc 1 709 0
 1994 00d6 4FF47043 		mov	r3, #61440
 1995 00da C4F20203 		movt	r3, 16386
 1996 00de 4FF47042 		mov	r2, #61440
 1997 00e2 C4F20202 		movt	r2, 16386
 1998 00e6 D2F89420 		ldr	r2, [r2, #148]
 1999 00ea 22F4F852 		bic	r2, r2, #7936
 2000 00ee C3F89420 		str	r2, [r3, #148]
 710:../Sources/drivers/sai/sai.c ****                     I2S_RCR5_REG(I2S0_BASE_PTR) |= I2S_RCR5_WNW(wnw)    //configure number of bits 
 2001              		.loc 1 710 0
 2002 00f2 4FF47043 		mov	r3, #61440
 2003 00f6 C4F20203 		movt	r3, 16386
 2004 00fa 4FF47042 		mov	r2, #61440
 2005 00fe C4F20202 		movt	r2, 16386
 2006 0102 D2F89410 		ldr	r1, [r2, #148]
 2007 0106 7A79     		ldrb	r2, [r7, #5]	@ zero_extendqisi2
 2008 0108 4FEA0262 		lsl	r2, r2, #24
 2009 010c 02F0F850 		and	r0, r2, #520093696
 711:../Sources/drivers/sai/sai.c ****                                                    | I2S_RCR5_W0W(w0w) //configure number of bits f
 2010              		.loc 1 711 0
 2011 0110 3A79     		ldrb	r2, [r7, #4]	@ zero_extendqisi2
 2012 0112 4FEA0242 		lsl	r2, r2, #16
 2013 0116 02F4F812 		and	r2, r2, #2031616
 2014 011a 1043     		orrs	r0, r0, r2
 712:../Sources/drivers/sai/sai.c ****                                                    | I2S_RCR5_FBT(fbt) //configure bit index of fir
 2015              		.loc 1 712 0
 2016 011c 3A7C     		ldrb	r2, [r7, #16]	@ zero_extendqisi2
 2017 011e 4FEA0222 		lsl	r2, r2, #8
 2018 0122 02F4F852 		and	r2, r2, #7936
 2019 0126 0243     		orrs	r2, r2, r0
 710:../Sources/drivers/sai/sai.c ****                     I2S_RCR5_REG(I2S0_BASE_PTR) |= I2S_RCR5_WNW(wnw)    //configure number of bits 
 2020              		.loc 1 710 0
 2021 0128 0A43     		orrs	r2, r2, r1
 2022 012a C3F89420 		str	r2, [r3, #148]
 2023              	.L91:
 713:../Sources/drivers/sai/sai.c ****                                                    ;
 714:../Sources/drivers/sai/sai.c ****                 }
 715:../Sources/drivers/sai/sai.c ****         }
 716:../Sources/drivers/sai/sai.c ****     else if(port == 1)
 717:../Sources/drivers/sai/sai.c ****         {
 718:../Sources/drivers/sai/sai.c ****         }
 719:../Sources/drivers/sai/sai.c **** }
 2024              		.loc 1 719 0
 2025 012e 07F10C07 		add	r7, r7, #12
 2026 0132 BD46     		mov	sp, r7
 2027 0134 80BC     		pop	{r7}
 2028 0136 7047     		bx	lr
 2029              		.cfi_endproc
 2030              	.LFE148:
 2032              		.section	.text.sai_tx,"ax",%progbits
 2033              		.align	2
 2034              		.global	sai_tx
 2035              		.thumb
 2036              		.thumb_func
 2038              	sai_tx:
 2039              	.LFB149:
 720:../Sources/drivers/sai/sai.c **** 
 721:../Sources/drivers/sai/sai.c **** /* */
 722:../Sources/drivers/sai/sai.c **** 
 723:../Sources/drivers/sai/sai.c **** unsigned char sai_tx
 724:../Sources/drivers/sai/sai.c **** (
 725:../Sources/drivers/sai/sai.c ****     unsigned char   port,
 726:../Sources/drivers/sai/sai.c ****     unsigned char   channel,
 727:../Sources/drivers/sai/sai.c ****     unsigned int    txdata
 728:../Sources/drivers/sai/sai.c **** )
 729:../Sources/drivers/sai/sai.c **** {
 2040              		.loc 1 729 0
 2041              		.cfi_startproc
 2042              		@ args = 0, pretend = 0, frame = 8
 2043              		@ frame_needed = 1, uses_anonymous_args = 0
 2044 0000 80B5     		push	{r7, lr}
 2045              	.LCFI63:
 2046              		.cfi_def_cfa_offset 8
 2047              		.cfi_offset 7, -8
 2048              		.cfi_offset 14, -4
 2049 0002 82B0     		sub	sp, sp, #8
 2050              	.LCFI64:
 2051              		.cfi_def_cfa_offset 16
 2052 0004 00AF     		add	r7, sp, #0
 2053              	.LCFI65:
 2054              		.cfi_def_cfa_register 7
 2055 0006 0B46     		mov	r3, r1
 2056 0008 3A60     		str	r2, [r7, #0]
 2057 000a 0246     		mov	r2, r0
 2058 000c FA71     		strb	r2, [r7, #7]
 2059 000e BB71     		strb	r3, [r7, #6]
 730:../Sources/drivers/sai/sai.c ****     if(sai_tx_fifo_status(port, channel) == FIFO_FULL)
 2060              		.loc 1 730 0
 2061 0010 FA79     		ldrb	r2, [r7, #7]	@ zero_extendqisi2
 2062 0012 BB79     		ldrb	r3, [r7, #6]	@ zero_extendqisi2
 2063 0014 1046     		mov	r0, r2
 2064 0016 1946     		mov	r1, r3
 2065 0018 FFF7FEFF 		bl	sai_tx_fifo_status
 2066 001c 0346     		mov	r3, r0
 2067 001e 012B     		cmp	r3, #1
 2068 0020 02D1     		bne	.L95
 731:../Sources/drivers/sai/sai.c ****         {
 732:../Sources/drivers/sai/sai.c ****             return ERROR;
 2069              		.loc 1 732 0
 2070 0022 4FF0FF03 		mov	r3, #255
 2071 0026 0EE0     		b	.L96
 2072              	.L95:
 733:../Sources/drivers/sai/sai.c ****         }
 734:../Sources/drivers/sai/sai.c **** 
 735:../Sources/drivers/sai/sai.c ****     if(port == 0)
 2073              		.loc 1 735 0
 2074 0028 FB79     		ldrb	r3, [r7, #7]	@ zero_extendqisi2
 2075 002a 002B     		cmp	r3, #0
 2076 002c 09D1     		bne	.L97
 736:../Sources/drivers/sai/sai.c ****         {
 737:../Sources/drivers/sai/sai.c ****             I2S_TDR_REG(I2S0_BASE_PTR, channel) = txdata;
 2077              		.loc 1 737 0
 2078 002e 4FF47043 		mov	r3, #61440
 2079 0032 C4F20203 		movt	r3, 16386
 2080 0036 BA79     		ldrb	r2, [r7, #6]	@ zero_extendqisi2
 2081 0038 02F10802 		add	r2, r2, #8
 2082 003c 3968     		ldr	r1, [r7, #0]
 2083 003e 43F82210 		str	r1, [r3, r2, lsl #2]
 2084              	.L97:
 738:../Sources/drivers/sai/sai.c ****         }
 739:../Sources/drivers/sai/sai.c ****     else if(port == 1)
 740:../Sources/drivers/sai/sai.c ****         {
 741:../Sources/drivers/sai/sai.c ****         }
 742:../Sources/drivers/sai/sai.c **** 
 743:../Sources/drivers/sai/sai.c ****     return OK;
 2085              		.loc 1 743 0
 2086 0042 4FF00003 		mov	r3, #0
 2087              	.L96:
 744:../Sources/drivers/sai/sai.c **** }
 2088              		.loc 1 744 0
 2089 0046 1846     		mov	r0, r3
 2090 0048 07F10807 		add	r7, r7, #8
 2091 004c BD46     		mov	sp, r7
 2092 004e 80BD     		pop	{r7, pc}
 2093              		.cfi_endproc
 2094              	.LFE149:
 2096              		.section	.text.sai_wr_tdr,"ax",%progbits
 2097              		.align	2
 2098              		.global	sai_wr_tdr
 2099              		.thumb
 2100              		.thumb_func
 2102              	sai_wr_tdr:
 2103              	.LFB150:
 745:../Sources/drivers/sai/sai.c **** 
 746:../Sources/drivers/sai/sai.c **** /* Direct write tdr, no checking on whether FIFO is full or not */
 747:../Sources/drivers/sai/sai.c **** 
 748:../Sources/drivers/sai/sai.c **** void sai_wr_tdr
 749:../Sources/drivers/sai/sai.c **** (
 750:../Sources/drivers/sai/sai.c ****     unsigned char   port,
 751:../Sources/drivers/sai/sai.c ****     unsigned char   channel,
 752:../Sources/drivers/sai/sai.c ****     unsigned int    txdata
 753:../Sources/drivers/sai/sai.c **** )
 754:../Sources/drivers/sai/sai.c **** {
 2104              		.loc 1 754 0
 2105              		.cfi_startproc
 2106              		@ args = 0, pretend = 0, frame = 8
 2107              		@ frame_needed = 1, uses_anonymous_args = 0
 2108              		@ link register save eliminated.
 2109 0000 80B4     		push	{r7}
 2110              	.LCFI66:
 2111              		.cfi_def_cfa_offset 4
 2112              		.cfi_offset 7, -4
 2113 0002 83B0     		sub	sp, sp, #12
 2114              	.LCFI67:
 2115              		.cfi_def_cfa_offset 16
 2116 0004 00AF     		add	r7, sp, #0
 2117              	.LCFI68:
 2118              		.cfi_def_cfa_register 7
 2119 0006 0B46     		mov	r3, r1
 2120 0008 3A60     		str	r2, [r7, #0]
 2121 000a 0246     		mov	r2, r0
 2122 000c FA71     		strb	r2, [r7, #7]
 2123 000e BB71     		strb	r3, [r7, #6]
 755:../Sources/drivers/sai/sai.c ****     if(port == 0)
 2124              		.loc 1 755 0
 2125 0010 FB79     		ldrb	r3, [r7, #7]	@ zero_extendqisi2
 2126 0012 002B     		cmp	r3, #0
 2127 0014 09D1     		bne	.L98
 756:../Sources/drivers/sai/sai.c ****         {
 757:../Sources/drivers/sai/sai.c ****             I2S_TDR_REG(I2S0_BASE_PTR, channel) = txdata;
 2128              		.loc 1 757 0
 2129 0016 4FF47043 		mov	r3, #61440
 2130 001a C4F20203 		movt	r3, 16386
 2131 001e BA79     		ldrb	r2, [r7, #6]	@ zero_extendqisi2
 2132 0020 02F10802 		add	r2, r2, #8
 2133 0024 3968     		ldr	r1, [r7, #0]
 2134 0026 43F82210 		str	r1, [r3, r2, lsl #2]
 2135              	.L98:
 758:../Sources/drivers/sai/sai.c ****         }
 759:../Sources/drivers/sai/sai.c ****     else if(port == 1)
 760:../Sources/drivers/sai/sai.c ****         {
 761:../Sources/drivers/sai/sai.c ****         }
 762:../Sources/drivers/sai/sai.c **** }
 2136              		.loc 1 762 0
 2137 002a 07F10C07 		add	r7, r7, #12
 2138 002e BD46     		mov	sp, r7
 2139 0030 80BC     		pop	{r7}
 2140 0032 7047     		bx	lr
 2141              		.cfi_endproc
 2142              	.LFE150:
 2144              		.section	.text.sai_rx,"ax",%progbits
 2145              		.align	2
 2146              		.global	sai_rx
 2147              		.thumb
 2148              		.thumb_func
 2150              	sai_rx:
 2151              	.LFB151:
 763:../Sources/drivers/sai/sai.c **** 
 764:../Sources/drivers/sai/sai.c **** /* */
 765:../Sources/drivers/sai/sai.c **** 
 766:../Sources/drivers/sai/sai.c **** unsigned char sai_rx
 767:../Sources/drivers/sai/sai.c **** (
 768:../Sources/drivers/sai/sai.c ****     unsigned char   port,
 769:../Sources/drivers/sai/sai.c ****     unsigned char   channel,
 770:../Sources/drivers/sai/sai.c ****     unsigned int    *rxdata
 771:../Sources/drivers/sai/sai.c **** )
 772:../Sources/drivers/sai/sai.c **** {
 2152              		.loc 1 772 0
 2153              		.cfi_startproc
 2154              		@ args = 0, pretend = 0, frame = 8
 2155              		@ frame_needed = 1, uses_anonymous_args = 0
 2156 0000 80B5     		push	{r7, lr}
 2157              	.LCFI69:
 2158              		.cfi_def_cfa_offset 8
 2159              		.cfi_offset 7, -8
 2160              		.cfi_offset 14, -4
 2161 0002 82B0     		sub	sp, sp, #8
 2162              	.LCFI70:
 2163              		.cfi_def_cfa_offset 16
 2164 0004 00AF     		add	r7, sp, #0
 2165              	.LCFI71:
 2166              		.cfi_def_cfa_register 7
 2167 0006 0B46     		mov	r3, r1
 2168 0008 3A60     		str	r2, [r7, #0]
 2169 000a 0246     		mov	r2, r0
 2170 000c FA71     		strb	r2, [r7, #7]
 2171 000e BB71     		strb	r3, [r7, #6]
 773:../Sources/drivers/sai/sai.c ****     if(sai_rx_fifo_status(port, channel) == FIFO_EMPTY)
 2172              		.loc 1 773 0
 2173 0010 FA79     		ldrb	r2, [r7, #7]	@ zero_extendqisi2
 2174 0012 BB79     		ldrb	r3, [r7, #6]	@ zero_extendqisi2
 2175 0014 1046     		mov	r0, r2
 2176 0016 1946     		mov	r1, r3
 2177 0018 FFF7FEFF 		bl	sai_rx_fifo_status
 2178 001c 0346     		mov	r3, r0
 2179 001e 002B     		cmp	r3, #0
 2180 0020 02D1     		bne	.L101
 774:../Sources/drivers/sai/sai.c ****         {
 775:../Sources/drivers/sai/sai.c ****             return ERROR;
 2181              		.loc 1 775 0
 2182 0022 4FF0FF03 		mov	r3, #255
 2183 0026 0FE0     		b	.L102
 2184              	.L101:
 776:../Sources/drivers/sai/sai.c ****         }
 777:../Sources/drivers/sai/sai.c **** 
 778:../Sources/drivers/sai/sai.c ****     if(port == 0)
 2185              		.loc 1 778 0
 2186 0028 FB79     		ldrb	r3, [r7, #7]	@ zero_extendqisi2
 2187 002a 002B     		cmp	r3, #0
 2188 002c 0AD1     		bne	.L103
 779:../Sources/drivers/sai/sai.c ****         {
 780:../Sources/drivers/sai/sai.c ****             *rxdata = I2S_RDR_REG(I2S0_BASE_PTR, channel);
 2189              		.loc 1 780 0
 2190 002e 4FF47043 		mov	r3, #61440
 2191 0032 C4F20203 		movt	r3, 16386
 2192 0036 BA79     		ldrb	r2, [r7, #6]	@ zero_extendqisi2
 2193 0038 02F12802 		add	r2, r2, #40
 2194 003c 53F82220 		ldr	r2, [r3, r2, lsl #2]
 2195 0040 3B68     		ldr	r3, [r7, #0]
 2196 0042 1A60     		str	r2, [r3, #0]
 2197              	.L103:
 781:../Sources/drivers/sai/sai.c ****         }
 782:../Sources/drivers/sai/sai.c ****     else if(port == 1)
 783:../Sources/drivers/sai/sai.c ****         {
 784:../Sources/drivers/sai/sai.c ****         }
 785:../Sources/drivers/sai/sai.c **** 
 786:../Sources/drivers/sai/sai.c ****     return OK;
 2198              		.loc 1 786 0
 2199 0044 4FF00003 		mov	r3, #0
 2200              	.L102:
 787:../Sources/drivers/sai/sai.c **** }
 2201              		.loc 1 787 0
 2202 0048 1846     		mov	r0, r3
 2203 004a 07F10807 		add	r7, r7, #8
 2204 004e BD46     		mov	sp, r7
 2205 0050 80BD     		pop	{r7, pc}
 2206              		.cfi_endproc
 2207              	.LFE151:
 2209 0052 00BF     		.section	.text.sai_rd_rdr,"ax",%progbits
 2210              		.align	2
 2211              		.global	sai_rd_rdr
 2212              		.thumb
 2213              		.thumb_func
 2215              	sai_rd_rdr:
 2216              	.LFB152:
 788:../Sources/drivers/sai/sai.c **** 
 789:../Sources/drivers/sai/sai.c **** /* direct read from rdr, no checking on whether FIFO is empty or not */
 790:../Sources/drivers/sai/sai.c **** 
 791:../Sources/drivers/sai/sai.c **** void sai_rd_rdr
 792:../Sources/drivers/sai/sai.c **** (
 793:../Sources/drivers/sai/sai.c ****     unsigned char   port,
 794:../Sources/drivers/sai/sai.c ****     unsigned char   channel,
 795:../Sources/drivers/sai/sai.c ****     unsigned int    *rxdata
 796:../Sources/drivers/sai/sai.c **** )
 797:../Sources/drivers/sai/sai.c **** {
 2217              		.loc 1 797 0
 2218              		.cfi_startproc
 2219              		@ args = 0, pretend = 0, frame = 8
 2220              		@ frame_needed = 1, uses_anonymous_args = 0
 2221              		@ link register save eliminated.
 2222 0000 80B4     		push	{r7}
 2223              	.LCFI72:
 2224              		.cfi_def_cfa_offset 4
 2225              		.cfi_offset 7, -4
 2226 0002 83B0     		sub	sp, sp, #12
 2227              	.LCFI73:
 2228              		.cfi_def_cfa_offset 16
 2229 0004 00AF     		add	r7, sp, #0
 2230              	.LCFI74:
 2231              		.cfi_def_cfa_register 7
 2232 0006 0B46     		mov	r3, r1
 2233 0008 3A60     		str	r2, [r7, #0]
 2234 000a 0246     		mov	r2, r0
 2235 000c FA71     		strb	r2, [r7, #7]
 2236 000e BB71     		strb	r3, [r7, #6]
 798:../Sources/drivers/sai/sai.c ****     if(port == 0)
 2237              		.loc 1 798 0
 2238 0010 FB79     		ldrb	r3, [r7, #7]	@ zero_extendqisi2
 2239 0012 002B     		cmp	r3, #0
 2240 0014 0AD1     		bne	.L104
 799:../Sources/drivers/sai/sai.c ****         {
 800:../Sources/drivers/sai/sai.c ****             *rxdata = I2S_RDR_REG(I2S0_BASE_PTR, channel);
 2241              		.loc 1 800 0
 2242 0016 4FF47043 		mov	r3, #61440
 2243 001a C4F20203 		movt	r3, 16386
 2244 001e BA79     		ldrb	r2, [r7, #6]	@ zero_extendqisi2
 2245 0020 02F12802 		add	r2, r2, #40
 2246 0024 53F82220 		ldr	r2, [r3, r2, lsl #2]
 2247 0028 3B68     		ldr	r3, [r7, #0]
 2248 002a 1A60     		str	r2, [r3, #0]
 2249              	.L104:
 801:../Sources/drivers/sai/sai.c ****         }
 802:../Sources/drivers/sai/sai.c ****     else if(port == 1)
 803:../Sources/drivers/sai/sai.c ****         {
 804:../Sources/drivers/sai/sai.c ****         }
 805:../Sources/drivers/sai/sai.c **** }
 2250              		.loc 1 805 0
 2251 002c 07F10C07 		add	r7, r7, #12
 2252 0030 BD46     		mov	sp, r7
 2253 0032 80BC     		pop	{r7}
 2254 0034 7047     		bx	lr
 2255              		.cfi_endproc
 2256              	.LFE152:
 2258 0036 00BF     		.section	.text.sai_tx_fifo_status,"ax",%progbits
 2259              		.align	2
 2260              		.global	sai_tx_fifo_status
 2261              		.thumb
 2262              		.thumb_func
 2264              	sai_tx_fifo_status:
 2265              	.LFB153:
 806:../Sources/drivers/sai/sai.c **** 
 807:../Sources/drivers/sai/sai.c **** /* */
 808:../Sources/drivers/sai/sai.c **** 
 809:../Sources/drivers/sai/sai.c **** unsigned char sai_tx_fifo_status
 810:../Sources/drivers/sai/sai.c **** (
 811:../Sources/drivers/sai/sai.c ****     unsigned char   port,
 812:../Sources/drivers/sai/sai.c ****     unsigned char   channel
 813:../Sources/drivers/sai/sai.c **** )
 814:../Sources/drivers/sai/sai.c **** {
 2266              		.loc 1 814 0
 2267              		.cfi_startproc
 2268              		@ args = 0, pretend = 0, frame = 16
 2269              		@ frame_needed = 1, uses_anonymous_args = 0
 2270              		@ link register save eliminated.
 2271 0000 80B4     		push	{r7}
 2272              	.LCFI75:
 2273              		.cfi_def_cfa_offset 4
 2274              		.cfi_offset 7, -4
 2275 0002 85B0     		sub	sp, sp, #20
 2276              	.LCFI76:
 2277              		.cfi_def_cfa_offset 24
 2278 0004 00AF     		add	r7, sp, #0
 2279              	.LCFI77:
 2280              		.cfi_def_cfa_register 7
 2281 0006 0246     		mov	r2, r0
 2282 0008 0B46     		mov	r3, r1
 2283 000a FA71     		strb	r2, [r7, #7]
 2284 000c BB71     		strb	r3, [r7, #6]
 815:../Sources/drivers/sai/sai.c ****     /*~~~~~~~~~~~~~~~~~~~~~~~~*/
 816:../Sources/drivers/sai/sai.c ****     /*~~~~~~~~~~~~~~~~~~~~~~~~*/
 817:../Sources/drivers/sai/sai.c ****     /*~~~~~~~~~~~~~~~~~~~~~~~~*/
 818:../Sources/drivers/sai/sai.c ****     /*~~~~~~~~~~~~~~~~~~~~~~~~*/
 819:../Sources/drivers/sai/sai.c ****     /*~~~~~~~~~~~~~~~~~~~~~~~~*/
 820:../Sources/drivers/sai/sai.c ****     /*~~~~~~~~~~~~~~~~~~~~~~~~*/
 821:../Sources/drivers/sai/sai.c ****     unsigned char   wr_fp = 0;  //write FIFO pointer
 2285              		.loc 1 821 0
 2286 000e 4FF00003 		mov	r3, #0
 2287 0012 FB73     		strb	r3, [r7, #15]
 822:../Sources/drivers/sai/sai.c ****     unsigned char   rd_fp = 0;  //read FIFO pointer
 2288              		.loc 1 822 0
 2289 0014 4FF00003 		mov	r3, #0
 2290 0018 BB73     		strb	r3, [r7, #14]
 823:../Sources/drivers/sai/sai.c **** 
 824:../Sources/drivers/sai/sai.c ****     /*~~~~~~~~~~~~~~~~~~~~~~~~*/
 825:../Sources/drivers/sai/sai.c **** 
 826:../Sources/drivers/sai/sai.c ****     /*~~~~~~~~~~~~~~~~~~~~~~~~*/
 827:../Sources/drivers/sai/sai.c **** 
 828:../Sources/drivers/sai/sai.c ****     /*~~~~~~~~~~~~~~~~~~~~~~~~*/
 829:../Sources/drivers/sai/sai.c **** 
 830:../Sources/drivers/sai/sai.c ****     /*~~~~~~~~~~~~~~~~~~~~~~~~*/
 831:../Sources/drivers/sai/sai.c **** 
 832:../Sources/drivers/sai/sai.c ****     /*~~~~~~~~~~~~~~~~~~~~~~~~*/
 833:../Sources/drivers/sai/sai.c **** 
 834:../Sources/drivers/sai/sai.c ****     /*~~~~~~~~~~~~~~~~~~~~~~~~*/
 835:../Sources/drivers/sai/sai.c **** 
 836:../Sources/drivers/sai/sai.c ****     if(port == 0)
 2291              		.loc 1 836 0
 2292 001a FB79     		ldrb	r3, [r7, #7]	@ zero_extendqisi2
 2293 001c 002B     		cmp	r3, #0
 2294 001e 2BD1     		bne	.L107
 837:../Sources/drivers/sai/sai.c ****         {
 838:../Sources/drivers/sai/sai.c ****             wr_fp = (I2S_TFR_REG(I2S0_BASE_PTR, channel) & I2S_TFR_WFP_MASK) >> I2S_TFR_WFP_SHIFT;
 2295              		.loc 1 838 0
 2296 0020 4FF47043 		mov	r3, #61440
 2297 0024 C4F20203 		movt	r3, 16386
 2298 0028 BA79     		ldrb	r2, [r7, #6]	@ zero_extendqisi2
 2299 002a 02F11002 		add	r2, r2, #16
 2300 002e 53F82230 		ldr	r3, [r3, r2, lsl #2]
 2301 0032 03F47023 		and	r3, r3, #983040
 2302 0036 4FEA1343 		lsr	r3, r3, #16
 2303 003a FB73     		strb	r3, [r7, #15]
 839:../Sources/drivers/sai/sai.c ****             rd_fp = (I2S_TFR_REG(I2S0_BASE_PTR, channel) & I2S_TFR_RFP_MASK) >> I2S_TFR_RFP_SHIFT;
 2304              		.loc 1 839 0
 2305 003c 4FF47043 		mov	r3, #61440
 2306 0040 C4F20203 		movt	r3, 16386
 2307 0044 BA79     		ldrb	r2, [r7, #6]	@ zero_extendqisi2
 2308 0046 02F11002 		add	r2, r2, #16
 2309 004a 53F82230 		ldr	r3, [r3, r2, lsl #2]
 2310 004e DBB2     		uxtb	r3, r3
 2311 0050 03F00F03 		and	r3, r3, #15
 2312 0054 BB73     		strb	r3, [r7, #14]
 840:../Sources/drivers/sai/sai.c **** 
 841:../Sources/drivers/sai/sai.c ****             if(wr_fp == rd_fp)
 2313              		.loc 1 841 0
 2314 0056 FA7B     		ldrb	r2, [r7, #15]	@ zero_extendqisi2
 2315 0058 BB7B     		ldrb	r3, [r7, #14]	@ zero_extendqisi2
 2316 005a 9A42     		cmp	r2, r3
 2317 005c 02D1     		bne	.L108
 842:../Sources/drivers/sai/sai.c ****                 return FIFO_EMPTY;
 2318              		.loc 1 842 0
 2319 005e 4FF00003 		mov	r3, #0
 2320 0062 0BE0     		b	.L109
 2321              	.L108:
 843:../Sources/drivers/sai/sai.c ****             else if((wr_fp & 0x08) != (rd_fp & 0x08))
 2322              		.loc 1 843 0
 2323 0064 FA7B     		ldrb	r2, [r7, #15]	@ zero_extendqisi2
 2324 0066 BB7B     		ldrb	r3, [r7, #14]	@ zero_extendqisi2
 2325 0068 5340     		eors	r3, r3, r2
 2326 006a 03F00803 		and	r3, r3, #8
 2327 006e 002B     		cmp	r3, #0
 2328 0070 02D0     		beq	.L107
 844:../Sources/drivers/sai/sai.c ****                 return FIFO_FULL;
 2329              		.loc 1 844 0
 2330 0072 4FF00103 		mov	r3, #1
 2331 0076 01E0     		b	.L109
 2332              	.L107:
 845:../Sources/drivers/sai/sai.c ****         }
 846:../Sources/drivers/sai/sai.c ****     else if(port == 1)
 847:../Sources/drivers/sai/sai.c ****         {
 848:../Sources/drivers/sai/sai.c ****         }
 849:../Sources/drivers/sai/sai.c **** 
 850:../Sources/drivers/sai/sai.c ****     return ERROR;
 2333              		.loc 1 850 0
 2334 0078 4FF0FF03 		mov	r3, #255
 2335              	.L109:
 851:../Sources/drivers/sai/sai.c **** }
 2336              		.loc 1 851 0
 2337 007c 1846     		mov	r0, r3
 2338 007e 07F11407 		add	r7, r7, #20
 2339 0082 BD46     		mov	sp, r7
 2340 0084 80BC     		pop	{r7}
 2341 0086 7047     		bx	lr
 2342              		.cfi_endproc
 2343              	.LFE153:
 2345              		.section	.text.sai_rx_fifo_status,"ax",%progbits
 2346              		.align	2
 2347              		.global	sai_rx_fifo_status
 2348              		.thumb
 2349              		.thumb_func
 2351              	sai_rx_fifo_status:
 2352              	.LFB154:
 852:../Sources/drivers/sai/sai.c **** 
 853:../Sources/drivers/sai/sai.c **** /* */
 854:../Sources/drivers/sai/sai.c **** 
 855:../Sources/drivers/sai/sai.c **** unsigned char sai_rx_fifo_status
 856:../Sources/drivers/sai/sai.c **** (
 857:../Sources/drivers/sai/sai.c ****     unsigned char   port,
 858:../Sources/drivers/sai/sai.c ****     unsigned char   channel
 859:../Sources/drivers/sai/sai.c **** )
 860:../Sources/drivers/sai/sai.c **** {
 2353              		.loc 1 860 0
 2354              		.cfi_startproc
 2355              		@ args = 0, pretend = 0, frame = 16
 2356              		@ frame_needed = 1, uses_anonymous_args = 0
 2357              		@ link register save eliminated.
 2358 0000 80B4     		push	{r7}
 2359              	.LCFI78:
 2360              		.cfi_def_cfa_offset 4
 2361              		.cfi_offset 7, -4
 2362 0002 85B0     		sub	sp, sp, #20
 2363              	.LCFI79:
 2364              		.cfi_def_cfa_offset 24
 2365 0004 00AF     		add	r7, sp, #0
 2366              	.LCFI80:
 2367              		.cfi_def_cfa_register 7
 2368 0006 0246     		mov	r2, r0
 2369 0008 0B46     		mov	r3, r1
 2370 000a FA71     		strb	r2, [r7, #7]
 2371 000c BB71     		strb	r3, [r7, #6]
 861:../Sources/drivers/sai/sai.c ****     /*~~~~~~~~~~~~~~~~~~~~~~~~*/
 862:../Sources/drivers/sai/sai.c ****     /*~~~~~~~~~~~~~~~~~~~~~~~~*/
 863:../Sources/drivers/sai/sai.c ****     /*~~~~~~~~~~~~~~~~~~~~~~~~*/
 864:../Sources/drivers/sai/sai.c ****     /*~~~~~~~~~~~~~~~~~~~~~~~~*/
 865:../Sources/drivers/sai/sai.c ****     /*~~~~~~~~~~~~~~~~~~~~~~~~*/
 866:../Sources/drivers/sai/sai.c ****     /*~~~~~~~~~~~~~~~~~~~~~~~~*/
 867:../Sources/drivers/sai/sai.c ****     unsigned char   wr_fp = 0;  //write FIFO pointer
 2372              		.loc 1 867 0
 2373 000e 4FF00003 		mov	r3, #0
 2374 0012 FB73     		strb	r3, [r7, #15]
 868:../Sources/drivers/sai/sai.c ****     unsigned char   rd_fp = 0;  //read FIFO pointer
 2375              		.loc 1 868 0
 2376 0014 4FF00003 		mov	r3, #0
 2377 0018 BB73     		strb	r3, [r7, #14]
 869:../Sources/drivers/sai/sai.c **** 
 870:../Sources/drivers/sai/sai.c ****     /*~~~~~~~~~~~~~~~~~~~~~~~~*/
 871:../Sources/drivers/sai/sai.c **** 
 872:../Sources/drivers/sai/sai.c ****     /*~~~~~~~~~~~~~~~~~~~~~~~~*/
 873:../Sources/drivers/sai/sai.c **** 
 874:../Sources/drivers/sai/sai.c ****     /*~~~~~~~~~~~~~~~~~~~~~~~~*/
 875:../Sources/drivers/sai/sai.c **** 
 876:../Sources/drivers/sai/sai.c ****     /*~~~~~~~~~~~~~~~~~~~~~~~~*/
 877:../Sources/drivers/sai/sai.c **** 
 878:../Sources/drivers/sai/sai.c ****     /*~~~~~~~~~~~~~~~~~~~~~~~~*/
 879:../Sources/drivers/sai/sai.c **** 
 880:../Sources/drivers/sai/sai.c ****     /*~~~~~~~~~~~~~~~~~~~~~~~~*/
 881:../Sources/drivers/sai/sai.c **** 
 882:../Sources/drivers/sai/sai.c ****     if(port == 0)
 2378              		.loc 1 882 0
 2379 001a FB79     		ldrb	r3, [r7, #7]	@ zero_extendqisi2
 2380 001c 002B     		cmp	r3, #0
 2381 001e 2BD1     		bne	.L111
 883:../Sources/drivers/sai/sai.c ****         {
 884:../Sources/drivers/sai/sai.c ****             wr_fp = (I2S_RFR_REG(I2S0_BASE_PTR, channel) & I2S_RFR_WFP_MASK) >> I2S_RFR_WFP_SHIFT;
 2382              		.loc 1 884 0
 2383 0020 4FF47043 		mov	r3, #61440
 2384 0024 C4F20203 		movt	r3, 16386
 2385 0028 BA79     		ldrb	r2, [r7, #6]	@ zero_extendqisi2
 2386 002a 02F13002 		add	r2, r2, #48
 2387 002e 53F82230 		ldr	r3, [r3, r2, lsl #2]
 2388 0032 03F47023 		and	r3, r3, #983040
 2389 0036 4FEA1343 		lsr	r3, r3, #16
 2390 003a FB73     		strb	r3, [r7, #15]
 885:../Sources/drivers/sai/sai.c ****             rd_fp = (I2S_RFR_REG(I2S0_BASE_PTR, channel) & I2S_RFR_RFP_MASK) >> I2S_RFR_RFP_SHIFT;
 2391              		.loc 1 885 0
 2392 003c 4FF47043 		mov	r3, #61440
 2393 0040 C4F20203 		movt	r3, 16386
 2394 0044 BA79     		ldrb	r2, [r7, #6]	@ zero_extendqisi2
 2395 0046 02F13002 		add	r2, r2, #48
 2396 004a 53F82230 		ldr	r3, [r3, r2, lsl #2]
 2397 004e DBB2     		uxtb	r3, r3
 2398 0050 03F00F03 		and	r3, r3, #15
 2399 0054 BB73     		strb	r3, [r7, #14]
 886:../Sources/drivers/sai/sai.c **** 
 887:../Sources/drivers/sai/sai.c ****             if(wr_fp == rd_fp)
 2400              		.loc 1 887 0
 2401 0056 FA7B     		ldrb	r2, [r7, #15]	@ zero_extendqisi2
 2402 0058 BB7B     		ldrb	r3, [r7, #14]	@ zero_extendqisi2
 2403 005a 9A42     		cmp	r2, r3
 2404 005c 02D1     		bne	.L112
 888:../Sources/drivers/sai/sai.c ****                 return FIFO_EMPTY;
 2405              		.loc 1 888 0
 2406 005e 4FF00003 		mov	r3, #0
 2407 0062 0BE0     		b	.L113
 2408              	.L112:
 889:../Sources/drivers/sai/sai.c ****             else if((wr_fp & 0x08) != (rd_fp & 0x08))
 2409              		.loc 1 889 0
 2410 0064 FA7B     		ldrb	r2, [r7, #15]	@ zero_extendqisi2
 2411 0066 BB7B     		ldrb	r3, [r7, #14]	@ zero_extendqisi2
 2412 0068 5340     		eors	r3, r3, r2
 2413 006a 03F00803 		and	r3, r3, #8
 2414 006e 002B     		cmp	r3, #0
 2415 0070 02D0     		beq	.L111
 890:../Sources/drivers/sai/sai.c ****                 return FIFO_FULL;
 2416              		.loc 1 890 0
 2417 0072 4FF00103 		mov	r3, #1
 2418 0076 01E0     		b	.L113
 2419              	.L111:
 891:../Sources/drivers/sai/sai.c ****         }
 892:../Sources/drivers/sai/sai.c ****     else if(port == 1)
 893:../Sources/drivers/sai/sai.c ****         {
 894:../Sources/drivers/sai/sai.c ****         }
 895:../Sources/drivers/sai/sai.c **** 
 896:../Sources/drivers/sai/sai.c ****     return ERROR;
 2420              		.loc 1 896 0
 2421 0078 4FF0FF03 		mov	r3, #255
 2422              	.L113:
 897:../Sources/drivers/sai/sai.c **** }
 2423              		.loc 1 897 0
 2424 007c 1846     		mov	r0, r3
 2425 007e 07F11407 		add	r7, r7, #20
 2426 0082 BD46     		mov	sp, r7
 2427 0084 80BC     		pop	{r7}
 2428 0086 7047     		bx	lr
 2429              		.cfi_endproc
 2430              	.LFE154:
 2432              		.section	.text.sai_mask_config,"ax",%progbits
 2433              		.align	2
 2434              		.global	sai_mask_config
 2435              		.thumb
 2436              		.thumb_func
 2438              	sai_mask_config:
 2439              	.LFB155:
 898:../Sources/drivers/sai/sai.c **** 
 899:../Sources/drivers/sai/sai.c **** /*
 900:../Sources/drivers/sai/sai.c **** *	Input parameter
 901:../Sources/drivers/sai/sai.c **** *	port:		SAI module used
 902:../Sources/drivers/sai/sai.c **** *	tx:		transmit or receive
 903:../Sources/drivers/sai/sai.c **** *	mask:		mask for each word in frame, if any bit in mask is set, then that word is tristated
 904:../Sources/drivers/sai/sai.c **** */
 905:../Sources/drivers/sai/sai.c **** 
 906:../Sources/drivers/sai/sai.c **** void sai_mask_config
 907:../Sources/drivers/sai/sai.c **** (
 908:../Sources/drivers/sai/sai.c ****     unsigned char   port,
 909:../Sources/drivers/sai/sai.c ****     unsigned char   tx,
 910:../Sources/drivers/sai/sai.c ****     unsigned int    mask
 911:../Sources/drivers/sai/sai.c **** )
 912:../Sources/drivers/sai/sai.c **** {
 2440              		.loc 1 912 0
 2441              		.cfi_startproc
 2442              		@ args = 0, pretend = 0, frame = 8
 2443              		@ frame_needed = 1, uses_anonymous_args = 0
 2444              		@ link register save eliminated.
 2445 0000 80B4     		push	{r7}
 2446              	.LCFI81:
 2447              		.cfi_def_cfa_offset 4
 2448              		.cfi_offset 7, -4
 2449 0002 83B0     		sub	sp, sp, #12
 2450              	.LCFI82:
 2451              		.cfi_def_cfa_offset 16
 2452 0004 00AF     		add	r7, sp, #0
 2453              	.LCFI83:
 2454              		.cfi_def_cfa_register 7
 2455 0006 0B46     		mov	r3, r1
 2456 0008 3A60     		str	r2, [r7, #0]
 2457 000a 0246     		mov	r2, r0
 2458 000c FA71     		strb	r2, [r7, #7]
 2459 000e BB71     		strb	r3, [r7, #6]
 913:../Sources/drivers/sai/sai.c ****     if(port == 0)
 2460              		.loc 1 913 0
 2461 0010 FB79     		ldrb	r3, [r7, #7]	@ zero_extendqisi2
 2462 0012 002B     		cmp	r3, #0
 2463 0014 10D1     		bne	.L114
 914:../Sources/drivers/sai/sai.c ****         {
 915:../Sources/drivers/sai/sai.c ****             if(tx) I2S_TMR_REG(I2S0_BASE_PTR) = mask;   //tx word mask
 2464              		.loc 1 915 0
 2465 0016 BB79     		ldrb	r3, [r7, #6]	@ zero_extendqisi2
 2466 0018 002B     		cmp	r3, #0
 2467 001a 06D0     		beq	.L116
 2468              		.loc 1 915 0 is_stmt 0
 2469 001c 4FF47043 		mov	r3, #61440
 2470 0020 C4F20203 		movt	r3, 16386
 2471 0024 3A68     		ldr	r2, [r7, #0]
 2472 0026 1A66     		str	r2, [r3, #96]
 2473 0028 06E0     		b	.L114
 2474              	.L116:
 916:../Sources/drivers/sai/sai.c ****             else
 917:../Sources/drivers/sai/sai.c ****                 I2S_RMR_REG(I2S0_BASE_PTR) = mask;      //rx word mask
 2475              		.loc 1 917 0 is_stmt 1
 2476 002a 4FF47043 		mov	r3, #61440
 2477 002e C4F20203 		movt	r3, 16386
 2478 0032 3A68     		ldr	r2, [r7, #0]
 2479 0034 C3F8E020 		str	r2, [r3, #224]
 2480              	.L114:
 918:../Sources/drivers/sai/sai.c ****         }
 919:../Sources/drivers/sai/sai.c ****     else if(port == 1)
 920:../Sources/drivers/sai/sai.c ****         {
 921:../Sources/drivers/sai/sai.c ****         }
 922:../Sources/drivers/sai/sai.c **** }
 2481              		.loc 1 922 0
 2482 0038 07F10C07 		add	r7, r7, #12
 2483 003c BD46     		mov	sp, r7
 2484 003e 80BC     		pop	{r7}
 2485 0040 7047     		bx	lr
 2486              		.cfi_endproc
 2487              	.LFE155:
 2489 0042 00BF     		.section	.text.sai_mclk_config,"ax",%progbits
 2490              		.align	2
 2491              		.global	sai_mclk_config
 2492              		.thumb
 2493              		.thumb_func
 2495              	sai_mclk_config:
 2496              	.LFB156:
 923:../Sources/drivers/sai/sai.c **** 
 924:../Sources/drivers/sai/sai.c **** /* */
 925:../Sources/drivers/sai/sai.c **** 
 926:../Sources/drivers/sai/sai.c **** void sai_mclk_config
 927:../Sources/drivers/sai/sai.c **** (
 928:../Sources/drivers/sai/sai.c ****     unsigned char   port,
 929:../Sources/drivers/sai/sai.c ****     unsigned char   mics,
 930:../Sources/drivers/sai/sai.c ****     unsigned char   moe,
 931:../Sources/drivers/sai/sai.c ****     unsigned char   fract,
 932:../Sources/drivers/sai/sai.c ****     uint32_t        divide
 933:../Sources/drivers/sai/sai.c **** )
 934:../Sources/drivers/sai/sai.c **** {
 2497              		.loc 1 934 0
 2498              		.cfi_startproc
 2499              		@ args = 4, pretend = 0, frame = 8
 2500              		@ frame_needed = 1, uses_anonymous_args = 0
 2501              		@ link register save eliminated.
 2502 0000 80B4     		push	{r7}
 2503              	.LCFI84:
 2504              		.cfi_def_cfa_offset 4
 2505              		.cfi_offset 7, -4
 2506 0002 83B0     		sub	sp, sp, #12
 2507              	.LCFI85:
 2508              		.cfi_def_cfa_offset 16
 2509 0004 00AF     		add	r7, sp, #0
 2510              	.LCFI86:
 2511              		.cfi_def_cfa_register 7
 2512 0006 F871     		strb	r0, [r7, #7]
 2513 0008 B971     		strb	r1, [r7, #6]
 2514 000a 7A71     		strb	r2, [r7, #5]
 2515 000c 3B71     		strb	r3, [r7, #4]
 935:../Sources/drivers/sai/sai.c ****     if(port == 0)
 2516              		.loc 1 935 0
 2517 000e FB79     		ldrb	r3, [r7, #7]	@ zero_extendqisi2
 2518 0010 002B     		cmp	r3, #0
 2519 0012 40F0A780 		bne	.L117
 936:../Sources/drivers/sai/sai.c ****         {
 937:../Sources/drivers/sai/sai.c ****             /*
 938:../Sources/drivers/sai/sai.c ****                                                             *	MICS		MCLK divider input clock
 939:../Sources/drivers/sai/sai.c ****                                                             *	00		system clock
 940:../Sources/drivers/sai/sai.c ****                                                             *	01		OSC0ERCLK
 941:../Sources/drivers/sai/sai.c ****                                                             *	10		OSC1ERCLK
 942:../Sources/drivers/sai/sai.c ****                                                             *	11		MCGPLLCLK
 943:../Sources/drivers/sai/sai.c ****                                                                     *	100		MCGFLLCLK
 944:../Sources/drivers/sai/sai.c ****                                                             */
 945:../Sources/drivers/sai/sai.c ****             I2S_MCR_REG(I2S0_BASE_PTR) &= ~I2S_MCR_MICS_MASK;
 2520              		.loc 1 945 0
 2521 0016 4FF47043 		mov	r3, #61440
 2522 001a C4F20203 		movt	r3, 16386
 2523 001e 4FF47042 		mov	r2, #61440
 2524 0022 C4F20202 		movt	r2, 16386
 2525 0026 D2F80021 		ldr	r2, [r2, #256]
 2526 002a 22F04072 		bic	r2, r2, #50331648
 2527 002e C3F80021 		str	r2, [r3, #256]
 946:../Sources/drivers/sai/sai.c **** 
 947:../Sources/drivers/sai/sai.c ****             if(mics == MCGPLLCLK) SIM_SOPT2 |= SIM_SOPT2_PLLFLLSEL_MASK;    //MCGPLLCLK is selected
 2528              		.loc 1 947 0
 2529 0032 BB79     		ldrb	r3, [r7, #6]	@ zero_extendqisi2
 2530 0034 032B     		cmp	r3, #3
 2531 0036 13D1     		bne	.L119
 2532              		.loc 1 947 0 is_stmt 0
 2533 0038 4FF4E043 		mov	r3, #28672
 2534 003c C4F20403 		movt	r3, 16388
 2535 0040 4FF4E042 		mov	r2, #28672
 2536 0044 C4F20402 		movt	r2, 16388
 2537 0048 02F58052 		add	r2, r2, #4096
 2538 004c 02F10402 		add	r2, r2, #4
 2539 0050 1268     		ldr	r2, [r2, #0]
 2540 0052 42F48032 		orr	r2, r2, #65536
 2541 0056 03F58053 		add	r3, r3, #4096
 2542 005a 03F10403 		add	r3, r3, #4
 2543 005e 1A60     		str	r2, [r3, #0]
 2544              	.L119:
 948:../Sources/drivers/sai/sai.c **** 
 949:../Sources/drivers/sai/sai.c ****             if(mics == MCGFLLCLK)
 2545              		.loc 1 949 0 is_stmt 1
 2546 0060 BB79     		ldrb	r3, [r7, #6]	@ zero_extendqisi2
 2547 0062 042B     		cmp	r3, #4
 2548 0064 16D1     		bne	.L120
 950:../Sources/drivers/sai/sai.c ****                 {
 951:../Sources/drivers/sai/sai.c ****                     SIM_SOPT2 &= ~SIM_SOPT2_PLLFLLSEL_MASK;                     //MCGFLLCLK is sele
 2549              		.loc 1 951 0
 2550 0066 4FF4E043 		mov	r3, #28672
 2551 006a C4F20403 		movt	r3, 16388
 2552 006e 4FF4E042 		mov	r2, #28672
 2553 0072 C4F20402 		movt	r2, 16388
 2554 0076 02F58052 		add	r2, r2, #4096
 2555 007a 02F10402 		add	r2, r2, #4
 2556 007e 1268     		ldr	r2, [r2, #0]
 2557 0080 22F48032 		bic	r2, r2, #65536
 2558 0084 03F58053 		add	r3, r3, #4096
 2559 0088 03F10403 		add	r3, r3, #4
 2560 008c 1A60     		str	r2, [r3, #0]
 952:../Sources/drivers/sai/sai.c ****                     mics = MCGPLLCLK;
 2561              		.loc 1 952 0
 2562 008e 4FF00303 		mov	r3, #3
 2563 0092 BB71     		strb	r3, [r7, #6]
 2564              	.L120:
 953:../Sources/drivers/sai/sai.c ****                 }
 954:../Sources/drivers/sai/sai.c **** 
 955:../Sources/drivers/sai/sai.c ****             I2S_MCR_REG(I2S0_BASE_PTR) |= I2S_MCR_MICS(mics);               //MCLK divider input cl
 2565              		.loc 1 955 0
 2566 0094 4FF47043 		mov	r3, #61440
 2567 0098 C4F20203 		movt	r3, 16386
 2568 009c 4FF47042 		mov	r2, #61440
 2569 00a0 C4F20202 		movt	r2, 16386
 2570 00a4 D2F80011 		ldr	r1, [r2, #256]
 2571 00a8 BA79     		ldrb	r2, [r7, #6]	@ zero_extendqisi2
 2572 00aa 4FEA0262 		lsl	r2, r2, #24
 2573 00ae 02F04072 		and	r2, r2, #50331648
 2574 00b2 0A43     		orrs	r2, r2, r1
 2575 00b4 C3F80021 		str	r2, [r3, #256]
 956:../Sources/drivers/sai/sai.c ****             /*
 957:../Sources/drivers/sai/sai.c ****                                                             *	MCLK output = MCLK input * ((FRACT+1)
 958:../Sources/drivers/sai/sai.c ****                                                             */
 959:../Sources/drivers/sai/sai.c ****             I2S_MDR_REG(I2S0_BASE_PTR) &= ~I2S_MDR_FRACT_MASK;
 2576              		.loc 1 959 0
 2577 00b8 4FF47043 		mov	r3, #61440
 2578 00bc C4F20203 		movt	r3, 16386
 2579 00c0 4FF47042 		mov	r2, #61440
 2580 00c4 C4F20202 		movt	r2, 16386
 2581 00c8 D2F80421 		ldr	r2, [r2, #260]
 2582 00cc 22F47F22 		bic	r2, r2, #1044480
 2583 00d0 C3F80421 		str	r2, [r3, #260]
 960:../Sources/drivers/sai/sai.c ****             I2S_MDR_REG(I2S0_BASE_PTR) &= ~I2S_MDR_DIVIDE_MASK;
 2584              		.loc 1 960 0
 2585 00d4 4FF47043 		mov	r3, #61440
 2586 00d8 C4F20203 		movt	r3, 16386
 2587 00dc 4FF47042 		mov	r2, #61440
 2588 00e0 C4F20202 		movt	r2, 16386
 2589 00e4 D2F80421 		ldr	r2, [r2, #260]
 2590 00e8 22F47F62 		bic	r2, r2, #4080
 2591 00ec 22F00F02 		bic	r2, r2, #15
 2592 00f0 C3F80421 		str	r2, [r3, #260]
 961:../Sources/drivers/sai/sai.c ****             I2S_MDR_REG(I2S0_BASE_PTR) |= I2S_MDR_FRACT(fract)              //MCLK fraction
 2593              		.loc 1 961 0
 2594 00f4 4FF47043 		mov	r3, #61440
 2595 00f8 C4F20203 		movt	r3, 16386
 2596 00fc 4FF47042 		mov	r2, #61440
 2597 0100 C4F20202 		movt	r2, 16386
 2598 0104 D2F80411 		ldr	r1, [r2, #260]
 2599 0108 3A79     		ldrb	r2, [r7, #4]	@ zero_extendqisi2
 2600 010a 4FEA0232 		lsl	r2, r2, #12
 2601 010e 02F47F20 		and	r0, r2, #1044480
 962:../Sources/drivers/sai/sai.c ****                                           | I2S_MDR_DIVIDE(divide)    //MCLK divide
 2602              		.loc 1 962 0
 2603 0112 3A69     		ldr	r2, [r7, #16]
 2604 0114 4FEA0252 		lsl	r2, r2, #20
 2605 0118 4FEA1252 		lsr	r2, r2, #20
 2606 011c 0243     		orrs	r2, r2, r0
 961:../Sources/drivers/sai/sai.c ****             I2S_MDR_REG(I2S0_BASE_PTR) |= I2S_MDR_FRACT(fract)              //MCLK fraction
 2607              		.loc 1 961 0
 2608 011e 0A43     		orrs	r2, r2, r1
 2609 0120 C3F80421 		str	r2, [r3, #260]
 963:../Sources/drivers/sai/sai.c ****                                           ;
 964:../Sources/drivers/sai/sai.c **** 
 965:../Sources/drivers/sai/sai.c ****             /*
 966:../Sources/drivers/sai/sai.c ****                                                             *	Please note that MICS field cannot be
 967:../Sources/drivers/sai/sai.c ****                                                             *	so MOE bit needs to be set after sett
 968:../Sources/drivers/sai/sai.c ****                                                             */
 969:../Sources/drivers/sai/sai.c **** 
 970:../Sources/drivers/sai/sai.c ****             if(moe) I2S_MCR_REG(I2S0_BASE_PTR) |= I2S_MCR_MOE_MASK; //SAI_MCLK configure as output 
 2610              		.loc 1 970 0
 2611 0124 7B79     		ldrb	r3, [r7, #5]	@ zero_extendqisi2
 2612 0126 002B     		cmp	r3, #0
 2613 0128 0ED0     		beq	.L121
 2614              		.loc 1 970 0 is_stmt 0
 2615 012a 4FF47043 		mov	r3, #61440
 2616 012e C4F20203 		movt	r3, 16386
 2617 0132 4FF47042 		mov	r2, #61440
 2618 0136 C4F20202 		movt	r2, 16386
 2619 013a D2F80021 		ldr	r2, [r2, #256]
 2620 013e 42F08042 		orr	r2, r2, #1073741824
 2621 0142 C3F80021 		str	r2, [r3, #256]
 2622 0146 0DE0     		b	.L117
 2623              	.L121:
 971:../Sources/drivers/sai/sai.c ****             else
 972:../Sources/drivers/sai/sai.c ****                 I2S_MCR_REG(I2S0_BASE_PTR) &= ~I2S_MCR_MOE_MASK;    //SAI_MCLK configured as input 
 2624              		.loc 1 972 0 is_stmt 1
 2625 0148 4FF47043 		mov	r3, #61440
 2626 014c C4F20203 		movt	r3, 16386
 2627 0150 4FF47042 		mov	r2, #61440
 2628 0154 C4F20202 		movt	r2, 16386
 2629 0158 D2F80021 		ldr	r2, [r2, #256]
 2630 015c 22F08042 		bic	r2, r2, #1073741824
 2631 0160 C3F80021 		str	r2, [r3, #256]
 2632              	.L117:
 973:../Sources/drivers/sai/sai.c ****         }
 974:../Sources/drivers/sai/sai.c ****     else if(port == 1)
 975:../Sources/drivers/sai/sai.c ****         {
 976:../Sources/drivers/sai/sai.c ****         }
 977:../Sources/drivers/sai/sai.c **** }
 2633              		.loc 1 977 0
 2634 0164 07F10C07 		add	r7, r7, #12
 2635 0168 BD46     		mov	sp, r7
 2636 016a 80BC     		pop	{r7}
 2637 016c 7047     		bx	lr
 2638              		.cfi_endproc
 2639              	.LFE156:
 2641 016e 00BF     		.section	.text.sai_clear_reg,"ax",%progbits
 2642              		.align	2
 2643              		.global	sai_clear_reg
 2644              		.thumb
 2645              		.thumb_func
 2647              	sai_clear_reg:
 2648              	.LFB157:
 978:../Sources/drivers/sai/sai.c **** 
 979:../Sources/drivers/sai/sai.c **** /* */
 980:../Sources/drivers/sai/sai.c **** 
 981:../Sources/drivers/sai/sai.c **** void sai_clear_reg
 982:../Sources/drivers/sai/sai.c **** (unsigned char   port)
 983:../Sources/drivers/sai/sai.c **** {
 2649              		.loc 1 983 0
 2650              		.cfi_startproc
 2651              		@ args = 0, pretend = 0, frame = 8
 2652              		@ frame_needed = 1, uses_anonymous_args = 0
 2653 0000 80B5     		push	{r7, lr}
 2654              	.LCFI87:
 2655              		.cfi_def_cfa_offset 8
 2656              		.cfi_offset 7, -8
 2657              		.cfi_offset 14, -4
 2658 0002 82B0     		sub	sp, sp, #8
 2659              	.LCFI88:
 2660              		.cfi_def_cfa_offset 16
 2661 0004 00AF     		add	r7, sp, #0
 2662              	.LCFI89:
 2663              		.cfi_def_cfa_register 7
 2664 0006 0346     		mov	r3, r0
 2665 0008 FB71     		strb	r3, [r7, #7]
 984:../Sources/drivers/sai/sai.c ****     if(port == 0)
 2666              		.loc 1 984 0
 2667 000a FB79     		ldrb	r3, [r7, #7]	@ zero_extendqisi2
 2668 000c 002B     		cmp	r3, #0
 2669 000e 40F0ED80 		bne	.L122
 985:../Sources/drivers/sai/sai.c ****         {
 986:../Sources/drivers/sai/sai.c ****             I2S_TCSR_REG(I2S0_BASE_PTR) = 0x001c0000;   //clear wsf, sef and fef flags
 2670              		.loc 1 986 0
 2671 0012 4FF47043 		mov	r3, #61440
 2672 0016 C4F20203 		movt	r3, 16386
 2673 001a 4FF4E012 		mov	r2, #1835008
 2674 001e 1A60     		str	r2, [r3, #0]
 987:../Sources/drivers/sai/sai.c ****             I2S_TCR1_REG(I2S0_BASE_PTR) = 0x0;
 2675              		.loc 1 987 0
 2676 0020 4FF47043 		mov	r3, #61440
 2677 0024 C4F20203 		movt	r3, 16386
 2678 0028 4FF00002 		mov	r2, #0
 2679 002c 5A60     		str	r2, [r3, #4]
 988:../Sources/drivers/sai/sai.c ****             I2S_TCR2_REG(I2S0_BASE_PTR) = 0x0;
 2680              		.loc 1 988 0
 2681 002e 4FF47043 		mov	r3, #61440
 2682 0032 C4F20203 		movt	r3, 16386
 2683 0036 4FF00002 		mov	r2, #0
 2684 003a 9A60     		str	r2, [r3, #8]
 989:../Sources/drivers/sai/sai.c ****             I2S_TCR3_REG(I2S0_BASE_PTR) = 0x0;
 2685              		.loc 1 989 0
 2686 003c 4FF47043 		mov	r3, #61440
 2687 0040 C4F20203 		movt	r3, 16386
 2688 0044 4FF00002 		mov	r2, #0
 2689 0048 DA60     		str	r2, [r3, #12]
 990:../Sources/drivers/sai/sai.c ****             I2S_TCR4_REG(I2S0_BASE_PTR) = 0x0;
 2690              		.loc 1 990 0
 2691 004a 4FF47043 		mov	r3, #61440
 2692 004e C4F20203 		movt	r3, 16386
 2693 0052 4FF00002 		mov	r2, #0
 2694 0056 1A61     		str	r2, [r3, #16]
 991:../Sources/drivers/sai/sai.c ****             I2S_TCR5_REG(I2S0_BASE_PTR) = 0x0;
 2695              		.loc 1 991 0
 2696 0058 4FF47043 		mov	r3, #61440
 2697 005c C4F20203 		movt	r3, 16386
 2698 0060 4FF00002 		mov	r2, #0
 2699 0064 5A61     		str	r2, [r3, #20]
 992:../Sources/drivers/sai/sai.c ****             //soft reset, reset internal tranmit logic and FIFO pointers, this operation will clear
 993:../Sources/drivers/sai/sai.c ****             sai_soft_reset(port, TX);
 2700              		.loc 1 993 0
 2701 0066 FB79     		ldrb	r3, [r7, #7]	@ zero_extendqisi2
 2702 0068 1846     		mov	r0, r3
 2703 006a 4FF00101 		mov	r1, #1
 2704 006e FFF7FEFF 		bl	sai_soft_reset
 994:../Sources/drivers/sai/sai.c ****             I2S_TMR_REG(I2S0_BASE_PTR) = 0x0;
 2705              		.loc 1 994 0
 2706 0072 4FF47043 		mov	r3, #61440
 2707 0076 C4F20203 		movt	r3, 16386
 2708 007a 4FF00002 		mov	r2, #0
 2709 007e 1A66     		str	r2, [r3, #96]
 995:../Sources/drivers/sai/sai.c **** 
 996:../Sources/drivers/sai/sai.c ****             /* Loop till TE bit is cleared */
 997:../Sources/drivers/sai/sai.c **** 
 998:../Sources/drivers/sai/sai.c ****             while(I2S_TCSR_REG(I2S0_BASE_PTR) & I2S_TCSR_TE_MASK) I2S_TCSR_REG(I2S0_BASE_PTR) &= ~I
 2710              		.loc 1 998 0
 2711 0080 0BE0     		b	.L124
 2712              	.L125:
 2713              		.loc 1 998 0 is_stmt 0
 2714 0082 4FF47043 		mov	r3, #61440
 2715 0086 C4F20203 		movt	r3, 16386
 2716 008a 4FF47042 		mov	r2, #61440
 2717 008e C4F20202 		movt	r2, 16386
 2718 0092 1268     		ldr	r2, [r2, #0]
 2719 0094 22F00042 		bic	r2, r2, #-2147483648
 2720 0098 1A60     		str	r2, [r3, #0]
 2721              	.L124:
 2722              		.loc 1 998 0
 2723 009a 4FF47043 		mov	r3, #61440
 2724 009e C4F20203 		movt	r3, 16386
 2725 00a2 1B68     		ldr	r3, [r3, #0]
 2726 00a4 002B     		cmp	r3, #0
 2727 00a6 ECDB     		blt	.L125
 999:../Sources/drivers/sai/sai.c **** 
1000:../Sources/drivers/sai/sai.c ****             /* Loop till BCE bit cleared */
1001:../Sources/drivers/sai/sai.c **** 
1002:../Sources/drivers/sai/sai.c ****             while(I2S_TCSR_REG(I2S0_BASE_PTR) & I2S_TCSR_BCE_MASK) I2S_TCSR_REG(I2S0_BASE_PTR) &= ~
 2728              		.loc 1 1002 0 is_stmt 1
 2729 00a8 0BE0     		b	.L126
 2730              	.L127:
 2731              		.loc 1 1002 0 is_stmt 0
 2732 00aa 4FF47043 		mov	r3, #61440
 2733 00ae C4F20203 		movt	r3, 16386
 2734 00b2 4FF47042 		mov	r2, #61440
 2735 00b6 C4F20202 		movt	r2, 16386
 2736 00ba 1268     		ldr	r2, [r2, #0]
 2737 00bc 22F08052 		bic	r2, r2, #268435456
 2738 00c0 1A60     		str	r2, [r3, #0]
 2739              	.L126:
 2740              		.loc 1 1002 0
 2741 00c2 4FF47043 		mov	r3, #61440
 2742 00c6 C4F20203 		movt	r3, 16386
 2743 00ca 1B68     		ldr	r3, [r3, #0]
 2744 00cc 03F08053 		and	r3, r3, #268435456
 2745 00d0 002B     		cmp	r3, #0
 2746 00d2 EAD1     		bne	.L127
1003:../Sources/drivers/sai/sai.c **** 
1004:../Sources/drivers/sai/sai.c ****             I2S_RCSR_REG(I2S0_BASE_PTR) = 0x001c0000;   //clear wsf, sef and fef flags
 2747              		.loc 1 1004 0 is_stmt 1
 2748 00d4 4FF47043 		mov	r3, #61440
 2749 00d8 C4F20203 		movt	r3, 16386
 2750 00dc 4FF4E012 		mov	r2, #1835008
 2751 00e0 C3F88020 		str	r2, [r3, #128]
1005:../Sources/drivers/sai/sai.c ****             I2S_RCR1_REG(I2S0_BASE_PTR) = 0x0;
 2752              		.loc 1 1005 0
 2753 00e4 4FF47043 		mov	r3, #61440
 2754 00e8 C4F20203 		movt	r3, 16386
 2755 00ec 4FF00002 		mov	r2, #0
 2756 00f0 C3F88420 		str	r2, [r3, #132]
1006:../Sources/drivers/sai/sai.c ****             I2S_RCR2_REG(I2S0_BASE_PTR) = 0x0;
 2757              		.loc 1 1006 0
 2758 00f4 4FF47043 		mov	r3, #61440
 2759 00f8 C4F20203 		movt	r3, 16386
 2760 00fc 4FF00002 		mov	r2, #0
 2761 0100 C3F88820 		str	r2, [r3, #136]
1007:../Sources/drivers/sai/sai.c ****             I2S_RCR3_REG(I2S0_BASE_PTR) = 0x0;
 2762              		.loc 1 1007 0
 2763 0104 4FF47043 		mov	r3, #61440
 2764 0108 C4F20203 		movt	r3, 16386
 2765 010c 4FF00002 		mov	r2, #0
 2766 0110 C3F88C20 		str	r2, [r3, #140]
1008:../Sources/drivers/sai/sai.c ****             I2S_RCR4_REG(I2S0_BASE_PTR) = 0x0;
 2767              		.loc 1 1008 0
 2768 0114 4FF47043 		mov	r3, #61440
 2769 0118 C4F20203 		movt	r3, 16386
 2770 011c 4FF00002 		mov	r2, #0
 2771 0120 C3F89020 		str	r2, [r3, #144]
1009:../Sources/drivers/sai/sai.c ****             I2S_RCR5_REG(I2S0_BASE_PTR) = 0x0;
 2772              		.loc 1 1009 0
 2773 0124 4FF47043 		mov	r3, #61440
 2774 0128 C4F20203 		movt	r3, 16386
 2775 012c 4FF00002 		mov	r2, #0
 2776 0130 C3F89420 		str	r2, [r3, #148]
1010:../Sources/drivers/sai/sai.c ****             //soft reset, reset internal receive logic and FIFO pointers, this operation will clear
1011:../Sources/drivers/sai/sai.c ****             sai_soft_reset(port, RX);
 2777              		.loc 1 1011 0
 2778 0134 FB79     		ldrb	r3, [r7, #7]	@ zero_extendqisi2
 2779 0136 1846     		mov	r0, r3
 2780 0138 4FF00001 		mov	r1, #0
 2781 013c FFF7FEFF 		bl	sai_soft_reset
1012:../Sources/drivers/sai/sai.c ****             I2S_RMR_REG(I2S0_BASE_PTR) = 0x0;
 2782              		.loc 1 1012 0
 2783 0140 4FF47043 		mov	r3, #61440
 2784 0144 C4F20203 		movt	r3, 16386
 2785 0148 4FF00002 		mov	r2, #0
 2786 014c C3F8E020 		str	r2, [r3, #224]
1013:../Sources/drivers/sai/sai.c **** 
1014:../Sources/drivers/sai/sai.c ****             /* Loop till RE bit clear */
1015:../Sources/drivers/sai/sai.c **** 
1016:../Sources/drivers/sai/sai.c ****             while(I2S_RCSR_REG(I2S0_BASE_PTR) & I2S_RCSR_RE_MASK) I2S_RCSR_REG(I2S0_BASE_PTR) &= ~I
 2787              		.loc 1 1016 0
 2788 0150 0DE0     		b	.L128
 2789              	.L129:
 2790              		.loc 1 1016 0 is_stmt 0
 2791 0152 4FF47043 		mov	r3, #61440
 2792 0156 C4F20203 		movt	r3, 16386
 2793 015a 4FF47042 		mov	r2, #61440
 2794 015e C4F20202 		movt	r2, 16386
 2795 0162 D2F88020 		ldr	r2, [r2, #128]
 2796 0166 22F00042 		bic	r2, r2, #-2147483648
 2797 016a C3F88020 		str	r2, [r3, #128]
 2798              	.L128:
 2799              		.loc 1 1016 0
 2800 016e 4FF47043 		mov	r3, #61440
 2801 0172 C4F20203 		movt	r3, 16386
 2802 0176 D3F88030 		ldr	r3, [r3, #128]
 2803 017a 002B     		cmp	r3, #0
 2804 017c E9DB     		blt	.L129
1017:../Sources/drivers/sai/sai.c **** 
1018:../Sources/drivers/sai/sai.c ****             /* Loop till BCE bit clear */
1019:../Sources/drivers/sai/sai.c **** 
1020:../Sources/drivers/sai/sai.c ****             while(I2S_RCSR_REG(I2S0_BASE_PTR) & I2S_RCSR_BCE_MASK) I2S_RCSR_REG(I2S0_BASE_PTR) &= ~
 2805              		.loc 1 1020 0 is_stmt 1
 2806 017e 0DE0     		b	.L130
 2807              	.L131:
 2808              		.loc 1 1020 0 is_stmt 0
 2809 0180 4FF47043 		mov	r3, #61440
 2810 0184 C4F20203 		movt	r3, 16386
 2811 0188 4FF47042 		mov	r2, #61440
 2812 018c C4F20202 		movt	r2, 16386
 2813 0190 D2F88020 		ldr	r2, [r2, #128]
 2814 0194 22F08052 		bic	r2, r2, #268435456
 2815 0198 C3F88020 		str	r2, [r3, #128]
 2816              	.L130:
 2817              		.loc 1 1020 0
 2818 019c 4FF47043 		mov	r3, #61440
 2819 01a0 C4F20203 		movt	r3, 16386
 2820 01a4 D3F88030 		ldr	r3, [r3, #128]
 2821 01a8 03F08053 		and	r3, r3, #268435456
 2822 01ac 002B     		cmp	r3, #0
 2823 01ae E7D1     		bne	.L131
1021:../Sources/drivers/sai/sai.c **** 
1022:../Sources/drivers/sai/sai.c ****             //Clearing MCR register is a bit tricky, first disable MOE bit, then clear MDR, then ch
1023:../Sources/drivers/sai/sai.c ****             I2S_MCR_REG(I2S0_BASE_PTR) &= ~I2S_MCR_MOE_MASK;
 2824              		.loc 1 1023 0 is_stmt 1
 2825 01b0 4FF47043 		mov	r3, #61440
 2826 01b4 C4F20203 		movt	r3, 16386
 2827 01b8 4FF47042 		mov	r2, #61440
 2828 01bc C4F20202 		movt	r2, 16386
 2829 01c0 D2F80021 		ldr	r2, [r2, #256]
 2830 01c4 22F08042 		bic	r2, r2, #1073741824
 2831 01c8 C3F80021 		str	r2, [r3, #256]
1024:../Sources/drivers/sai/sai.c ****             I2S_MDR_REG(I2S0_BASE_PTR) = 0x0;
 2832              		.loc 1 1024 0
 2833 01cc 4FF47043 		mov	r3, #61440
 2834 01d0 C4F20203 		movt	r3, 16386
 2835 01d4 4FF00002 		mov	r2, #0
 2836 01d8 C3F80421 		str	r2, [r3, #260]
1025:../Sources/drivers/sai/sai.c ****             I2S_MCR_REG(I2S0_BASE_PTR) = I2S_MCR_MICS(0x0);
 2837              		.loc 1 1025 0
 2838 01dc 4FF47043 		mov	r3, #61440
 2839 01e0 C4F20203 		movt	r3, 16386
 2840 01e4 4FF00002 		mov	r2, #0
 2841 01e8 C3F80021 		str	r2, [r3, #256]
 2842              	.L122:
1026:../Sources/drivers/sai/sai.c ****         }
1027:../Sources/drivers/sai/sai.c ****     else if(port == 1)
1028:../Sources/drivers/sai/sai.c ****         {
1029:../Sources/drivers/sai/sai.c ****         }
1030:../Sources/drivers/sai/sai.c **** }
 2843              		.loc 1 1030 0
 2844 01ec 07F10807 		add	r7, r7, #8
 2845 01f0 BD46     		mov	sp, r7
 2846 01f2 80BD     		pop	{r7, pc}
 2847              		.cfi_endproc
 2848              	.LFE157:
 2850              		.section	.text.sai_monitor_fifo_status,"ax",%progbits
 2851              		.align	2
 2852              		.global	sai_monitor_fifo_status
 2853              		.thumb
 2854              		.thumb_func
 2856              	sai_monitor_fifo_status:
 2857              	.LFB158:
1031:../Sources/drivers/sai/sai.c **** 
1032:../Sources/drivers/sai/sai.c **** /* */
1033:../Sources/drivers/sai/sai.c **** 
1034:../Sources/drivers/sai/sai.c **** void sai_monitor_fifo_status
1035:../Sources/drivers/sai/sai.c **** (
1036:../Sources/drivers/sai/sai.c ****     unsigned char   port,
1037:../Sources/drivers/sai/sai.c ****     unsigned char   channel
1038:../Sources/drivers/sai/sai.c **** )
1039:../Sources/drivers/sai/sai.c **** {
 2858              		.loc 1 1039 0
 2859              		.cfi_startproc
 2860              		@ args = 0, pretend = 0, frame = 8
 2861              		@ frame_needed = 1, uses_anonymous_args = 0
 2862              		@ link register save eliminated.
 2863 0000 80B4     		push	{r7}
 2864              	.LCFI90:
 2865              		.cfi_def_cfa_offset 4
 2866              		.cfi_offset 7, -4
 2867 0002 83B0     		sub	sp, sp, #12
 2868              	.LCFI91:
 2869              		.cfi_def_cfa_offset 16
 2870 0004 00AF     		add	r7, sp, #0
 2871              	.LCFI92:
 2872              		.cfi_def_cfa_register 7
 2873 0006 0246     		mov	r2, r0
 2874 0008 0B46     		mov	r3, r1
 2875 000a FA71     		strb	r2, [r7, #7]
 2876 000c BB71     		strb	r3, [r7, #6]
1040:../Sources/drivers/sai/sai.c ****     if(port == 0)
1041:../Sources/drivers/sai/sai.c ****         {
1042:../Sources/drivers/sai/sai.c ****         }
1043:../Sources/drivers/sai/sai.c ****     else if(port == 1)
1044:../Sources/drivers/sai/sai.c ****         {
1045:../Sources/drivers/sai/sai.c ****         }
1046:../Sources/drivers/sai/sai.c **** }
 2877              		.loc 1 1046 0
 2878 000e 07F10C07 		add	r7, r7, #12
 2879 0012 BD46     		mov	sp, r7
 2880 0014 80BC     		pop	{r7}
 2881 0016 7047     		bx	lr
 2882              		.cfi_endproc
 2883              	.LFE158:
 2885              		.section	.text.sai_inteprete_flag,"ax",%progbits
 2886              		.align	2
 2887              		.global	sai_inteprete_flag
 2888              		.thumb
 2889              		.thumb_func
 2891              	sai_inteprete_flag:
 2892              	.LFB159:
1047:../Sources/drivers/sai/sai.c **** 
1048:../Sources/drivers/sai/sai.c **** /* */
1049:../Sources/drivers/sai/sai.c **** 
1050:../Sources/drivers/sai/sai.c **** void sai_inteprete_flag
1051:../Sources/drivers/sai/sai.c **** (
1052:../Sources/drivers/sai/sai.c ****     unsigned char   port,
1053:../Sources/drivers/sai/sai.c ****     unsigned char   tx
1054:../Sources/drivers/sai/sai.c **** )
1055:../Sources/drivers/sai/sai.c **** {
 2893              		.loc 1 1055 0
 2894              		.cfi_startproc
 2895              		@ args = 0, pretend = 0, frame = 8
 2896              		@ frame_needed = 1, uses_anonymous_args = 0
 2897              		@ link register save eliminated.
 2898 0000 80B4     		push	{r7}
 2899              	.LCFI93:
 2900              		.cfi_def_cfa_offset 4
 2901              		.cfi_offset 7, -4
 2902 0002 83B0     		sub	sp, sp, #12
 2903              	.LCFI94:
 2904              		.cfi_def_cfa_offset 16
 2905 0004 00AF     		add	r7, sp, #0
 2906              	.LCFI95:
 2907              		.cfi_def_cfa_register 7
 2908 0006 0246     		mov	r2, r0
 2909 0008 0B46     		mov	r3, r1
 2910 000a FA71     		strb	r2, [r7, #7]
 2911 000c BB71     		strb	r3, [r7, #6]
1056:../Sources/drivers/sai/sai.c ****     if(port == 0)
 2912              		.loc 1 1056 0
 2913 000e FB79     		ldrb	r3, [r7, #7]	@ zero_extendqisi2
 2914 0010 002B     		cmp	r3, #0
 2915 0012 40F0EE80 		bne	.L133
1057:../Sources/drivers/sai/sai.c ****         {
1058:../Sources/drivers/sai/sai.c ****             if(tx)
 2916              		.loc 1 1058 0
 2917 0016 BB79     		ldrb	r3, [r7, #6]	@ zero_extendqisi2
 2918 0018 002B     		cmp	r3, #0
 2919 001a 6ED0     		beq	.L135
1059:../Sources/drivers/sai/sai.c ****                 {
1060:../Sources/drivers/sai/sai.c ****                     if(I2S_TCSR_REG(I2S0_BASE_PTR) & I2S_TCSR_WSF_MASK)
 2920              		.loc 1 1060 0
 2921 001c 4FF47043 		mov	r3, #61440
 2922 0020 C4F20203 		movt	r3, 16386
 2923 0024 1B68     		ldr	r3, [r3, #0]
 2924 0026 03F48013 		and	r3, r3, #1048576
 2925 002a 002B     		cmp	r3, #0
 2926 002c 0CD0     		beq	.L136
1061:../Sources/drivers/sai/sai.c ****                         {
1062:../Sources/drivers/sai/sai.c ****                             //indicate start of configured word has been detected
1063:../Sources/drivers/sai/sai.c ****                             I2S_TCSR_REG(I2S0_BASE_PTR) |= I2S_TCSR_WSF_MASK;   //clear flag
 2927              		.loc 1 1063 0
 2928 002e 4FF47043 		mov	r3, #61440
 2929 0032 C4F20203 		movt	r3, 16386
 2930 0036 4FF47042 		mov	r2, #61440
 2931 003a C4F20202 		movt	r2, 16386
 2932 003e 1268     		ldr	r2, [r2, #0]
 2933 0040 42F48012 		orr	r2, r2, #1048576
 2934 0044 1A60     		str	r2, [r3, #0]
 2935 0046 D4E0     		b	.L133
 2936              	.L136:
1064:../Sources/drivers/sai/sai.c ****                             //("word start flag set\n");
1065:../Sources/drivers/sai/sai.c ****                         }
1066:../Sources/drivers/sai/sai.c ****                     else if(I2S_TCSR_REG(I2S0_BASE_PTR) & I2S_TCSR_SEF_MASK)
 2937              		.loc 1 1066 0
 2938 0048 4FF47043 		mov	r3, #61440
 2939 004c C4F20203 		movt	r3, 16386
 2940 0050 1B68     		ldr	r3, [r3, #0]
 2941 0052 03F40023 		and	r3, r3, #524288
 2942 0056 002B     		cmp	r3, #0
 2943 0058 0CD0     		beq	.L137
1067:../Sources/drivers/sai/sai.c ****                         {
1068:../Sources/drivers/sai/sai.c ****                             //indicate error in the externally generated frame sync has been detect
1069:../Sources/drivers/sai/sai.c ****                             I2S_TCSR_REG(I2S0_BASE_PTR) |= I2S_TCSR_SEF_MASK;
 2944              		.loc 1 1069 0
 2945 005a 4FF47043 		mov	r3, #61440
 2946 005e C4F20203 		movt	r3, 16386
 2947 0062 4FF47042 		mov	r2, #61440
 2948 0066 C4F20202 		movt	r2, 16386
 2949 006a 1268     		ldr	r2, [r2, #0]
 2950 006c 42F40022 		orr	r2, r2, #524288
 2951 0070 1A60     		str	r2, [r3, #0]
 2952 0072 BEE0     		b	.L133
 2953              	.L137:
1070:../Sources/drivers/sai/sai.c ****                         }
1071:../Sources/drivers/sai/sai.c ****                     else if(I2S_TCSR_REG(I2S0_BASE_PTR) & I2S_TCSR_FEF_MASK)
 2954              		.loc 1 1071 0
 2955 0074 4FF47043 		mov	r3, #61440
 2956 0078 C4F20203 		movt	r3, 16386
 2957 007c 1B68     		ldr	r3, [r3, #0]
 2958 007e 03F48023 		and	r3, r3, #262144
 2959 0082 002B     		cmp	r3, #0
 2960 0084 0CD0     		beq	.L138
1072:../Sources/drivers/sai/sai.c ****                         {
1073:../Sources/drivers/sai/sai.c ****                             //indicate an enabled transmit FIFO has underrun
1074:../Sources/drivers/sai/sai.c ****                             I2S_TCSR_REG(I2S0_BASE_PTR) |= I2S_TCSR_FEF_MASK;   //clear flag
 2961              		.loc 1 1074 0
 2962 0086 4FF47043 		mov	r3, #61440
 2963 008a C4F20203 		movt	r3, 16386
 2964 008e 4FF47042 		mov	r2, #61440
 2965 0092 C4F20202 		movt	r2, 16386
 2966 0096 1268     		ldr	r2, [r2, #0]
 2967 0098 42F48022 		orr	r2, r2, #262144
 2968 009c 1A60     		str	r2, [r3, #0]
 2969 009e A8E0     		b	.L133
 2970              	.L138:
1075:../Sources/drivers/sai/sai.c ****                         }
1076:../Sources/drivers/sai/sai.c ****                     else if(I2S_TCSR_REG(I2S0_BASE_PTR) & I2S_TCSR_FWF_MASK)
 2971              		.loc 1 1076 0
 2972 00a0 4FF47043 		mov	r3, #61440
 2973 00a4 C4F20203 		movt	r3, 16386
 2974 00a8 1B68     		ldr	r3, [r3, #0]
 2975 00aa 03F40033 		and	r3, r3, #131072
 2976 00ae 002B     		cmp	r3, #0
 2977 00b0 0CD0     		beq	.L139
1077:../Sources/drivers/sai/sai.c ****                         {
1078:../Sources/drivers/sai/sai.c ****                             //indicate an enabled transmit FIFO is empty
1079:../Sources/drivers/sai/sai.c ****                             I2S_TCSR_REG(I2S0_BASE_PTR) |= I2S_TCSR_FWF_MASK;   //clear flag
 2978              		.loc 1 1079 0
 2979 00b2 4FF47043 		mov	r3, #61440
 2980 00b6 C4F20203 		movt	r3, 16386
 2981 00ba 4FF47042 		mov	r2, #61440
 2982 00be C4F20202 		movt	r2, 16386
 2983 00c2 1268     		ldr	r2, [r2, #0]
 2984 00c4 42F40032 		orr	r2, r2, #131072
 2985 00c8 1A60     		str	r2, [r3, #0]
 2986 00ca 92E0     		b	.L133
 2987              	.L139:
1080:../Sources/drivers/sai/sai.c ****                         }
1081:../Sources/drivers/sai/sai.c ****                     else if(I2S_TCSR_REG(I2S0_BASE_PTR) & I2S_TCSR_FRF_MASK)
 2988              		.loc 1 1081 0
 2989 00cc 4FF47043 		mov	r3, #61440
 2990 00d0 C4F20203 		movt	r3, 16386
 2991 00d4 1B68     		ldr	r3, [r3, #0]
 2992 00d6 03F48033 		and	r3, r3, #65536
 2993 00da 002B     		cmp	r3, #0
 2994 00dc 00F08980 		beq	.L133
1082:../Sources/drivers/sai/sai.c ****                         {
1083:../Sources/drivers/sai/sai.c ****                             //indicates number of words in an enabled transmit FIFO is less than or
1084:../Sources/drivers/sai/sai.c ****                             I2S_TCSR_REG(I2S0_BASE_PTR) |= I2S_TCSR_FRF_MASK;   //clear flag
 2995              		.loc 1 1084 0
 2996 00e0 4FF47043 		mov	r3, #61440
 2997 00e4 C4F20203 		movt	r3, 16386
 2998 00e8 4FF47042 		mov	r2, #61440
 2999 00ec C4F20202 		movt	r2, 16386
 3000 00f0 1268     		ldr	r2, [r2, #0]
 3001 00f2 42F48032 		orr	r2, r2, #65536
 3002 00f6 1A60     		str	r2, [r3, #0]
 3003 00f8 7BE0     		b	.L133
 3004              	.L135:
1085:../Sources/drivers/sai/sai.c ****                         }
1086:../Sources/drivers/sai/sai.c ****                 }
1087:../Sources/drivers/sai/sai.c ****             else
1088:../Sources/drivers/sai/sai.c ****                 {
1089:../Sources/drivers/sai/sai.c ****                     if(I2S_RCSR_REG(I2S0_BASE_PTR) & I2S_RCSR_WSF_MASK)
 3005              		.loc 1 1089 0
 3006 00fa 4FF47043 		mov	r3, #61440
 3007 00fe C4F20203 		movt	r3, 16386
 3008 0102 D3F88030 		ldr	r3, [r3, #128]
 3009 0106 03F48013 		and	r3, r3, #1048576
 3010 010a 002B     		cmp	r3, #0
 3011 010c 0ED0     		beq	.L140
1090:../Sources/drivers/sai/sai.c ****                         {
1091:../Sources/drivers/sai/sai.c ****                             //indicate start of configured word has been detected
1092:../Sources/drivers/sai/sai.c ****                             I2S_RCSR_REG(I2S0_BASE_PTR) |= I2S_RCSR_WSF_MASK;   //clear flag
 3012              		.loc 1 1092 0
 3013 010e 4FF47043 		mov	r3, #61440
 3014 0112 C4F20203 		movt	r3, 16386
 3015 0116 4FF47042 		mov	r2, #61440
 3016 011a C4F20202 		movt	r2, 16386
 3017 011e D2F88020 		ldr	r2, [r2, #128]
 3018 0122 42F48012 		orr	r2, r2, #1048576
 3019 0126 C3F88020 		str	r2, [r3, #128]
 3020 012a 62E0     		b	.L133
 3021              	.L140:
1093:../Sources/drivers/sai/sai.c ****                         }
1094:../Sources/drivers/sai/sai.c ****                     else if(I2S_RCSR_REG(I2S0_BASE_PTR) & I2S_RCSR_SEF_MASK)
 3022              		.loc 1 1094 0
 3023 012c 4FF47043 		mov	r3, #61440
 3024 0130 C4F20203 		movt	r3, 16386
 3025 0134 D3F88030 		ldr	r3, [r3, #128]
 3026 0138 03F40023 		and	r3, r3, #524288
 3027 013c 002B     		cmp	r3, #0
 3028 013e 0ED0     		beq	.L141
1095:../Sources/drivers/sai/sai.c ****                         {
1096:../Sources/drivers/sai/sai.c ****                             //indicate error in the externally generated frame sync has been detect
1097:../Sources/drivers/sai/sai.c ****                             I2S_RCSR_REG(I2S0_BASE_PTR) |= I2S_RCSR_SEF_MASK;
 3029              		.loc 1 1097 0
 3030 0140 4FF47043 		mov	r3, #61440
 3031 0144 C4F20203 		movt	r3, 16386
 3032 0148 4FF47042 		mov	r2, #61440
 3033 014c C4F20202 		movt	r2, 16386
 3034 0150 D2F88020 		ldr	r2, [r2, #128]
 3035 0154 42F40022 		orr	r2, r2, #524288
 3036 0158 C3F88020 		str	r2, [r3, #128]
 3037 015c 49E0     		b	.L133
 3038              	.L141:
1098:../Sources/drivers/sai/sai.c ****                         }
1099:../Sources/drivers/sai/sai.c ****                     else if(I2S_RCSR_REG(I2S0_BASE_PTR) & I2S_RCSR_FEF_MASK)
 3039              		.loc 1 1099 0
 3040 015e 4FF47043 		mov	r3, #61440
 3041 0162 C4F20203 		movt	r3, 16386
 3042 0166 D3F88030 		ldr	r3, [r3, #128]
 3043 016a 03F48023 		and	r3, r3, #262144
 3044 016e 002B     		cmp	r3, #0
 3045 0170 0ED0     		beq	.L142
1100:../Sources/drivers/sai/sai.c ****                         {
1101:../Sources/drivers/sai/sai.c ****                             //indicate an enabled receive FIFO has overflowed
1102:../Sources/drivers/sai/sai.c ****                             I2S_RCSR_REG(I2S0_BASE_PTR) |= I2S_RCSR_FEF_MASK;   //clear flag
 3046              		.loc 1 1102 0
 3047 0172 4FF47043 		mov	r3, #61440
 3048 0176 C4F20203 		movt	r3, 16386
 3049 017a 4FF47042 		mov	r2, #61440
 3050 017e C4F20202 		movt	r2, 16386
 3051 0182 D2F88020 		ldr	r2, [r2, #128]
 3052 0186 42F48022 		orr	r2, r2, #262144
 3053 018a C3F88020 		str	r2, [r3, #128]
 3054 018e 30E0     		b	.L133
 3055              	.L142:
1103:../Sources/drivers/sai/sai.c ****                         }
1104:../Sources/drivers/sai/sai.c ****                     else if(I2S_RCSR_REG(I2S0_BASE_PTR) & I2S_RCSR_FWF_MASK)
 3056              		.loc 1 1104 0
 3057 0190 4FF47043 		mov	r3, #61440
 3058 0194 C4F20203 		movt	r3, 16386
 3059 0198 D3F88030 		ldr	r3, [r3, #128]
 3060 019c 03F40033 		and	r3, r3, #131072
 3061 01a0 002B     		cmp	r3, #0
 3062 01a2 0ED0     		beq	.L143
1105:../Sources/drivers/sai/sai.c ****                         {
1106:../Sources/drivers/sai/sai.c ****                             //indicate an enabled receive FIFO is full
1107:../Sources/drivers/sai/sai.c ****                             I2S_RCSR_REG(I2S0_BASE_PTR) |= I2S_RCSR_FWF_MASK;   //clear flag
 3063              		.loc 1 1107 0
 3064 01a4 4FF47043 		mov	r3, #61440
 3065 01a8 C4F20203 		movt	r3, 16386
 3066 01ac 4FF47042 		mov	r2, #61440
 3067 01b0 C4F20202 		movt	r2, 16386
 3068 01b4 D2F88020 		ldr	r2, [r2, #128]
 3069 01b8 42F40032 		orr	r2, r2, #131072
 3070 01bc C3F88020 		str	r2, [r3, #128]
 3071 01c0 17E0     		b	.L133
 3072              	.L143:
1108:../Sources/drivers/sai/sai.c ****                         }
1109:../Sources/drivers/sai/sai.c ****                     else if(I2S_RCSR_REG(I2S0_BASE_PTR) & I2S_RCSR_FRF_MASK)
 3073              		.loc 1 1109 0
 3074 01c2 4FF47043 		mov	r3, #61440
 3075 01c6 C4F20203 		movt	r3, 16386
 3076 01ca D3F88030 		ldr	r3, [r3, #128]
 3077 01ce 03F48033 		and	r3, r3, #65536
 3078 01d2 002B     		cmp	r3, #0
 3079 01d4 0DD0     		beq	.L133
1110:../Sources/drivers/sai/sai.c ****                         {
1111:../Sources/drivers/sai/sai.c ****                             //indicates number of words in an enabled receive FIFO is greater than 
1112:../Sources/drivers/sai/sai.c ****                             I2S_RCSR_REG(I2S0_BASE_PTR) |= I2S_RCSR_FRF_MASK;   //clear flag
 3080              		.loc 1 1112 0
 3081 01d6 4FF47043 		mov	r3, #61440
 3082 01da C4F20203 		movt	r3, 16386
 3083 01de 4FF47042 		mov	r2, #61440
 3084 01e2 C4F20202 		movt	r2, 16386
 3085 01e6 D2F88020 		ldr	r2, [r2, #128]
 3086 01ea 42F48032 		orr	r2, r2, #65536
 3087 01ee C3F88020 		str	r2, [r3, #128]
 3088              	.L133:
1113:../Sources/drivers/sai/sai.c ****                         }
1114:../Sources/drivers/sai/sai.c ****                 }
1115:../Sources/drivers/sai/sai.c ****         }
1116:../Sources/drivers/sai/sai.c ****     else if(port == 1)
1117:../Sources/drivers/sai/sai.c ****         {
1118:../Sources/drivers/sai/sai.c ****         }
1119:../Sources/drivers/sai/sai.c **** }
 3089              		.loc 1 1119 0
 3090 01f2 07F10C07 		add	r7, r7, #12
 3091 01f6 BD46     		mov	sp, r7
 3092 01f8 80BC     		pop	{r7}
 3093 01fa 7047     		bx	lr
 3094              		.cfi_endproc
 3095              	.LFE159:
 3097              		.section	.text.sai0_rx_isr,"ax",%progbits
 3098              		.align	2
 3099              		.global	sai0_rx_isr
 3100              		.thumb
 3101              		.thumb_func
 3103              	sai0_rx_isr:
 3104              	.LFB160:
1120:../Sources/drivers/sai/sai.c **** 
1121:../Sources/drivers/sai/sai.c **** 
1122:../Sources/drivers/sai/sai.c **** 
1123:../Sources/drivers/sai/sai.c **** 
1124:../Sources/drivers/sai/sai.c **** void sai0_rx_isr(void)
1125:../Sources/drivers/sai/sai.c **** {
 3105              		.loc 1 1125 0
 3106              		.cfi_startproc
 3107              		@ args = 0, pretend = 0, frame = 0
 3108              		@ frame_needed = 1, uses_anonymous_args = 0
 3109              		@ link register save eliminated.
 3110 0000 80B4     		push	{r7}
 3111              	.LCFI96:
 3112              		.cfi_def_cfa_offset 4
 3113              		.cfi_offset 7, -4
 3114 0002 00AF     		add	r7, sp, #0
 3115              	.LCFI97:
 3116              		.cfi_def_cfa_register 7
1126:../Sources/drivers/sai/sai.c ****     //Clear the IRQ Flag
1127:../Sources/drivers/sai/sai.c ****     I2S_RCSR_REG(I2S0_BASE_PTR) &= ~(I2S_RCSR_FRF_MASK);
 3117              		.loc 1 1127 0
 3118 0004 4FF47043 		mov	r3, #61440
 3119 0008 C4F20203 		movt	r3, 16386
 3120 000c 4FF47042 		mov	r2, #61440
 3121 0010 C4F20202 		movt	r2, 16386
 3122 0014 D2F88020 		ldr	r2, [r2, #128]
 3123 0018 22F48032 		bic	r2, r2, #65536
 3124 001c C3F88020 		str	r2, [r3, #128]
1128:../Sources/drivers/sai/sai.c ****     GPIOD_PSOR = 1<<3;
 3125              		.loc 1 1128 0
 3126 0020 4FF2C003 		movw	r3, #61632
 3127 0024 C4F20F03 		movt	r3, 16399
 3128 0028 4FF00802 		mov	r2, #8
 3129 002c 5A60     		str	r2, [r3, #4]
1129:../Sources/drivers/sai/sai.c ****     GPIOD_PCOR = 1<<3;
 3130              		.loc 1 1129 0
 3131 002e 4FF2C003 		movw	r3, #61632
 3132 0032 C4F20F03 		movt	r3, 16399
 3133 0036 4FF00802 		mov	r2, #8
 3134 003a 9A60     		str	r2, [r3, #8]
1130:../Sources/drivers/sai/sai.c ****     LeftIn = I2S0_RDR0;
 3135              		.loc 1 1130 0
 3136 003c 4FF47043 		mov	r3, #61440
 3137 0040 C4F20203 		movt	r3, 16386
 3138 0044 D3F8A030 		ldr	r3, [r3, #160]
 3139 0048 1A46     		mov	r2, r3
 3140 004a 40F20003 		movw	r3, #:lower16:LeftIn
 3141 004e C0F20003 		movt	r3, #:upper16:LeftIn
 3142 0052 1A60     		str	r2, [r3, #0]
1131:../Sources/drivers/sai/sai.c ****     RightIn = I2S0_RDR0;
 3143              		.loc 1 1131 0
 3144 0054 4FF47043 		mov	r3, #61440
 3145 0058 C4F20203 		movt	r3, 16386
 3146 005c D3F8A030 		ldr	r3, [r3, #160]
 3147 0060 1A46     		mov	r2, r3
 3148 0062 40F20003 		movw	r3, #:lower16:RightIn
 3149 0066 C0F20003 		movt	r3, #:upper16:RightIn
 3150 006a 1A60     		str	r2, [r3, #0]
1132:../Sources/drivers/sai/sai.c **** 
1133:../Sources/drivers/sai/sai.c ****     //Sign extend the 24-bit data to q31_t;
1134:../Sources/drivers/sai/sai.c **** 
1135:../Sources/drivers/sai/sai.c ****     if(LeftIn & (1<<23))
 3151              		.loc 1 1135 0
 3152 006c 40F20003 		movw	r3, #:lower16:LeftIn
 3153 0070 C0F20003 		movt	r3, #:upper16:LeftIn
 3154 0074 1B68     		ldr	r3, [r3, #0]
 3155 0076 03F40003 		and	r3, r3, #8388608
 3156 007a 002B     		cmp	r3, #0
 3157 007c 0DD0     		beq	.L145
1136:../Sources/drivers/sai/sai.c ****         LeftIn |= 0xFF000000;
 3158              		.loc 1 1136 0
 3159 007e 40F20003 		movw	r3, #:lower16:LeftIn
 3160 0082 C0F20003 		movt	r3, #:upper16:LeftIn
 3161 0086 1B68     		ldr	r3, [r3, #0]
 3162 0088 43F07F43 		orr	r3, r3, #-16777216
 3163 008c 1A46     		mov	r2, r3
 3164 008e 40F20003 		movw	r3, #:lower16:LeftIn
 3165 0092 C0F20003 		movt	r3, #:upper16:LeftIn
 3166 0096 1A60     		str	r2, [r3, #0]
 3167 0098 0BE0     		b	.L146
 3168              	.L145:
1137:../Sources/drivers/sai/sai.c ****     else
1138:../Sources/drivers/sai/sai.c ****         LeftIn &=~0xFF000000;;
 3169              		.loc 1 1138 0
 3170 009a 40F20003 		movw	r3, #:lower16:LeftIn
 3171 009e C0F20003 		movt	r3, #:upper16:LeftIn
 3172 00a2 1B68     		ldr	r3, [r3, #0]
 3173 00a4 23F07F42 		bic	r2, r3, #-16777216
 3174 00a8 40F20003 		movw	r3, #:lower16:LeftIn
 3175 00ac C0F20003 		movt	r3, #:upper16:LeftIn
 3176 00b0 1A60     		str	r2, [r3, #0]
 3177              	.L146:
1139:../Sources/drivers/sai/sai.c **** 
1140:../Sources/drivers/sai/sai.c ****     if(RightIn & (1<<23))
 3178              		.loc 1 1140 0
 3179 00b2 40F20003 		movw	r3, #:lower16:RightIn
 3180 00b6 C0F20003 		movt	r3, #:upper16:RightIn
 3181 00ba 1B68     		ldr	r3, [r3, #0]
 3182 00bc 03F40003 		and	r3, r3, #8388608
 3183 00c0 002B     		cmp	r3, #0
 3184 00c2 0DD0     		beq	.L147
1141:../Sources/drivers/sai/sai.c ****         RightIn |= 0xFF000000;
 3185              		.loc 1 1141 0
 3186 00c4 40F20003 		movw	r3, #:lower16:RightIn
 3187 00c8 C0F20003 		movt	r3, #:upper16:RightIn
 3188 00cc 1B68     		ldr	r3, [r3, #0]
 3189 00ce 43F07F43 		orr	r3, r3, #-16777216
 3190 00d2 1A46     		mov	r2, r3
 3191 00d4 40F20003 		movw	r3, #:lower16:RightIn
 3192 00d8 C0F20003 		movt	r3, #:upper16:RightIn
 3193 00dc 1A60     		str	r2, [r3, #0]
 3194 00de 0BE0     		b	.L144
 3195              	.L147:
1142:../Sources/drivers/sai/sai.c ****     else
1143:../Sources/drivers/sai/sai.c ****         RightIn &=~0xFF000000;;
 3196              		.loc 1 1143 0
 3197 00e0 40F20003 		movw	r3, #:lower16:RightIn
 3198 00e4 C0F20003 		movt	r3, #:upper16:RightIn
 3199 00e8 1B68     		ldr	r3, [r3, #0]
 3200 00ea 23F07F42 		bic	r2, r3, #-16777216
 3201 00ee 40F20003 		movw	r3, #:lower16:RightIn
 3202 00f2 C0F20003 		movt	r3, #:upper16:RightIn
 3203 00f6 1A60     		str	r2, [r3, #0]
 3204              	.L144:
1144:../Sources/drivers/sai/sai.c **** }
 3205              		.loc 1 1144 0
 3206 00f8 BD46     		mov	sp, r7
 3207 00fa 80BC     		pop	{r7}
 3208 00fc 7047     		bx	lr
 3209              		.cfi_endproc
 3210              	.LFE160:
 3212 00fe 00BF     		.section	.text.sai0_tx_isr,"ax",%progbits
 3213              		.align	2
 3214              		.global	sai0_tx_isr
 3215              		.thumb
 3216              		.thumb_func
 3218              	sai0_tx_isr:
 3219              	.LFB161:
1145:../Sources/drivers/sai/sai.c **** 
1146:../Sources/drivers/sai/sai.c **** /* */
1147:../Sources/drivers/sai/sai.c **** 
1148:../Sources/drivers/sai/sai.c **** 
1149:../Sources/drivers/sai/sai.c **** void sai0_tx_isr(void)
1150:../Sources/drivers/sai/sai.c **** {
 3220              		.loc 1 1150 0
 3221              		.cfi_startproc
 3222              		@ args = 0, pretend = 0, frame = 0
 3223              		@ frame_needed = 1, uses_anonymous_args = 0
 3224 0000 80B5     		push	{r7, lr}
 3225              	.LCFI98:
 3226              		.cfi_def_cfa_offset 8
 3227              		.cfi_offset 7, -8
 3228              		.cfi_offset 14, -4
 3229 0002 00AF     		add	r7, sp, #0
 3230              	.LCFI99:
 3231              		.cfi_def_cfa_register 7
1151:../Sources/drivers/sai/sai.c ****     I2S_TCSR_REG(I2S0_BASE_PTR) &= ~(I2S_TCSR_FRF_MASK);
 3232              		.loc 1 1151 0
 3233 0004 4FF47043 		mov	r3, #61440
 3234 0008 C4F20203 		movt	r3, 16386
 3235 000c 4FF47042 		mov	r2, #61440
 3236 0010 C4F20202 		movt	r2, 16386
 3237 0014 1268     		ldr	r2, [r2, #0]
 3238 0016 22F48032 		bic	r2, r2, #65536
 3239 001a 1A60     		str	r2, [r3, #0]
1152:../Sources/drivers/sai/sai.c ****     //Send out the last Queued up values
1153:../Sources/drivers/sai/sai.c ****     I2S0_TDR0 = LeftOut;
 3240              		.loc 1 1153 0
 3241 001c 4FF47043 		mov	r3, #61440
 3242 0020 C4F20203 		movt	r3, 16386
 3243 0024 40F20002 		movw	r2, #:lower16:LeftOut
 3244 0028 C0F20002 		movt	r2, #:upper16:LeftOut
 3245 002c 1268     		ldr	r2, [r2, #0]
 3246 002e 1A62     		str	r2, [r3, #32]
1154:../Sources/drivers/sai/sai.c ****     I2S0_TDR0 = RightOut;
 3247              		.loc 1 1154 0
 3248 0030 4FF47043 		mov	r3, #61440
 3249 0034 C4F20203 		movt	r3, 16386
 3250 0038 40F20002 		movw	r2, #:lower16:RightOut
 3251 003c C0F20002 		movt	r2, #:upper16:RightOut
 3252 0040 1268     		ldr	r2, [r2, #0]
 3253 0042 1A62     		str	r2, [r3, #32]
1155:../Sources/drivers/sai/sai.c ****     //Process the next set of samples
1156:../Sources/drivers/sai/sai.c ****     AudioProcess();
 3254              		.loc 1 1156 0
 3255 0044 FFF7FEFF 		bl	AudioProcess
1157:../Sources/drivers/sai/sai.c **** }
 3256              		.loc 1 1157 0
 3257 0048 80BD     		pop	{r7, pc}
 3258              		.cfi_endproc
 3259              	.LFE161:
 3261 004a 00BF     		.section	.text.sai1_rx_isr,"ax",%progbits
 3262              		.align	2
 3263              		.global	sai1_rx_isr
 3264              		.thumb
 3265              		.thumb_func
 3267              	sai1_rx_isr:
 3268              	.LFB162:
1158:../Sources/drivers/sai/sai.c **** 
1159:../Sources/drivers/sai/sai.c **** void sai1_rx_isr(void)
1160:../Sources/drivers/sai/sai.c **** {
 3269              		.loc 1 1160 0
 3270              		.cfi_startproc
 3271              		@ args = 0, pretend = 0, frame = 0
 3272              		@ frame_needed = 1, uses_anonymous_args = 0
 3273              		@ link register save eliminated.
 3274 0000 80B4     		push	{r7}
 3275              	.LCFI100:
 3276              		.cfi_def_cfa_offset 4
 3277              		.cfi_offset 7, -4
 3278 0002 00AF     		add	r7, sp, #0
 3279              	.LCFI101:
 3280              		.cfi_def_cfa_register 7
1161:../Sources/drivers/sai/sai.c **** }
 3281              		.loc 1 1161 0
 3282 0004 BD46     		mov	sp, r7
 3283 0006 80BC     		pop	{r7}
 3284 0008 7047     		bx	lr
 3285              		.cfi_endproc
 3286              	.LFE162:
 3288 000a 00BF     		.text
 3289              	.Letext0:
 3290              		.file 2 "C:/Freescale/CW MCU v10.5/MCU/ARM_GCC_Support/ewl/EWL_C/include/cstdint"
 3291              		.file 3 "C:/Users/ehughes/Documents/GitHub/MonkeyJam/MonkeyJam/Project_Headers/MK20D5.h"
 3292              		.file 4 "C:/Users/ehughes/Documents/GitHub/MonkeyListen/CMSIS_DSP_3.2/Sources/Include/arm_math.h"
 3293              		.file 5 "../Sources/drivers/sai/../../DSP/AudioProcess.h"
 3294              		.file 6 "../Sources/drivers/sai/sai.h"