   1              		.syntax unified
   2              		.cpu cortex-m4
   3              		.fpu softvfp
   4              		.eabi_attribute 20, 1
   5              		.eabi_attribute 21, 1
   6              		.eabi_attribute 23, 3
   7              		.eabi_attribute 24, 1
   8              		.eabi_attribute 25, 1
   9              		.eabi_attribute 26, 1
  10              		.eabi_attribute 30, 2
  11              		.eabi_attribute 34, 1
  12              		.eabi_attribute 18, 4
  13              		.thumb
  14              		.file	"PeakingComb.c"
  15              		.text
  16              	.Ltext0:
  17              		.cfi_sections	.debug_frame
  18              		.section	.text.InitPeakingComb,"ax",%progbits
  19              		.align	2
  20              		.global	InitPeakingComb
  21              		.thumb
  22              		.thumb_func
  24              	InitPeakingComb:
  25              	.LFB128:
  26              		.file 1 "../Sources/DSP/PeakingComb.c"
   1:../Sources/DSP/PeakingComb.c **** 
   2:../Sources/DSP/PeakingComb.c **** #include "derivative.h" /* include peripheral declarations */
   3:../Sources/DSP/PeakingComb.c **** #include "arm_math.h"
   4:../Sources/DSP/PeakingComb.c **** #include "PeakingComb.h"
   5:../Sources/DSP/PeakingComb.c **** 
   6:../Sources/DSP/PeakingComb.c **** void InitPeakingComb(PeakingComb * PC,q31_t * History,int16_t HistoryLength)
   7:../Sources/DSP/PeakingComb.c **** {
  27              		.loc 1 7 0
  28              		.cfi_startproc
  29              		@ args = 0, pretend = 0, frame = 0
  30              		@ frame_needed = 0, uses_anonymous_args = 0
  31              		@ link register save eliminated.
  32              	.LVL0:
  33 0000 30B4     		push	{r4, r5}
  34              	.LCFI0:
  35              		.cfi_def_cfa_offset 8
  36              		.cfi_offset 4, -8
  37              		.cfi_offset 5, -4
   8:../Sources/DSP/PeakingComb.c **** 	uint32_t i;
   9:../Sources/DSP/PeakingComb.c **** 	
  10:../Sources/DSP/PeakingComb.c **** 	
  11:../Sources/DSP/PeakingComb.c **** 	PC->OutputHistory = History;
  12:../Sources/DSP/PeakingComb.c **** 	PC->HistoryLength = HistoryLength;
  13:../Sources/DSP/PeakingComb.c **** 	
  14:../Sources/DSP/PeakingComb.c **** 	PC->PreviousInput = 0;
  38              		.loc 1 14 0
  39 0002 0025     		movs	r5, #0
  11:../Sources/DSP/PeakingComb.c **** 	PC->OutputHistory = History;
  40              		.loc 1 11 0
  41 0004 0160     		str	r1, [r0, #0]
  12:../Sources/DSP/PeakingComb.c **** 	PC->HistoryLength = HistoryLength;
  42              		.loc 1 12 0
  43 0006 8281     		strh	r2, [r0, #12]	@ movhi
  44              		.loc 1 14 0
  45 0008 8560     		str	r5, [r0, #8]
  15:../Sources/DSP/PeakingComb.c **** 	PC->CurrentIndex = 0;
  46              		.loc 1 15 0
  47 000a C581     		strh	r5, [r0, #14]	@ movhi
  48              	.LVL1:
  16:../Sources/DSP/PeakingComb.c **** 	
  17:../Sources/DSP/PeakingComb.c **** 	for(i=0;i<HistoryLength;i++)
  49              		.loc 1 17 0
  50 000c 92B1     		cbz	r2, .L4
   6:../Sources/DSP/PeakingComb.c **** void InitPeakingComb(PeakingComb * PC,q31_t * History,int16_t HistoryLength)
  51              		.loc 1 6 0
  52 000e 9200     		lsls	r2, r2, #2
  53              	.LVL2:
  54 0010 0423     		movs	r3, #4
  55 0012 141F     		subs	r4, r2, #4
  56              		.loc 1 17 0
  57 0014 9342     		cmp	r3, r2
  18:../Sources/DSP/PeakingComb.c **** 	{
  19:../Sources/DSP/PeakingComb.c **** 		PC->OutputHistory[i] = 0;
  58              		.loc 1 19 0
  59 0016 0D60     		str	r5, [r1, #0]
  60              	.LVL3:
  61 0018 C4F38004 		ubfx	r4, r4, #2, #1
  17:../Sources/DSP/PeakingComb.c **** 	for(i=0;i<HistoryLength;i++)
  62              		.loc 1 17 0
  63 001c 0AD0     		beq	.L4
  64 001e 1CB1     		cbz	r4, .L3
  65 0020 0823     		movs	r3, #8
  66 0022 9342     		cmp	r3, r2
  67              		.loc 1 19 0
  68 0024 4D60     		str	r5, [r1, #4]
  17:../Sources/DSP/PeakingComb.c **** 	for(i=0;i<HistoryLength;i++)
  69              		.loc 1 17 0
  70 0026 05D0     		beq	.L4
  71              	.L3:
  72 0028 1C1D     		adds	r4, r3, #4
  73              		.loc 1 19 0
  74 002a CD50     		str	r5, [r1, r3]
  75 002c 0833     		adds	r3, r3, #8
  17:../Sources/DSP/PeakingComb.c **** 	for(i=0;i<HistoryLength;i++)
  76              		.loc 1 17 0
  77 002e 9342     		cmp	r3, r2
  78              		.loc 1 19 0
  79 0030 0D51     		str	r5, [r1, r4]
  17:../Sources/DSP/PeakingComb.c **** 	for(i=0;i<HistoryLength;i++)
  80              		.loc 1 17 0
  81 0032 F9D1     		bne	.L3
  82              	.L4:
  20:../Sources/DSP/PeakingComb.c **** 	}
  21:../Sources/DSP/PeakingComb.c **** 	
  22:../Sources/DSP/PeakingComb.c **** 	PC->FeedbackTap = -1;
  83              		.loc 1 22 0
  84 0034 4FF6FF71 		movw	r1, #65535
  85              	.LVL4:
  23:../Sources/DSP/PeakingComb.c **** 	
  24:../Sources/DSP/PeakingComb.c **** 	PC->FeedbackAmplitude = 0;
  86              		.loc 1 24 0
  87 0038 0022     		movs	r2, #0
  22:../Sources/DSP/PeakingComb.c **** 	PC->FeedbackTap = -1;
  88              		.loc 1 22 0
  89 003a 0182     		strh	r1, [r0, #16]	@ movhi
  90              		.loc 1 24 0
  91 003c 4260     		str	r2, [r0, #4]
  25:../Sources/DSP/PeakingComb.c **** }
  92              		.loc 1 25 0
  93 003e 30BC     		pop	{r4, r5}
  94 0040 7047     		bx	lr
  95              		.cfi_endproc
  96              	.LFE128:
  98 0042 00BF     		.section	.text.CombTheDesert,"ax",%progbits
  99              		.align	2
 100              		.global	CombTheDesert
 101              		.thumb
 102              		.thumb_func
 104              	CombTheDesert:
 105              	.LFB129:
  26:../Sources/DSP/PeakingComb.c **** 
  27:../Sources/DSP/PeakingComb.c **** void CombTheDesert(q31_t In, q31_t *Out,PeakingComb * PC)
  28:../Sources/DSP/PeakingComb.c **** {
 106              		.loc 1 28 0
 107              		.cfi_startproc
 108              		@ args = 0, pretend = 0, frame = 0
 109              		@ frame_needed = 0, uses_anonymous_args = 0
 110              		@ link register save eliminated.
 111              	.LVL5:
 112 0000 2DE9F001 		push	{r4, r5, r6, r7, r8}
 113              	.LCFI1:
 114              		.cfi_def_cfa_offset 20
 115              		.cfi_offset 4, -20
 116              		.cfi_offset 5, -16
 117              		.cfi_offset 6, -12
 118              		.cfi_offset 7, -8
 119              		.cfi_offset 8, -4
  29:../Sources/DSP/PeakingComb.c **** 	int16_t Idx =0;
  30:../Sources/DSP/PeakingComb.c **** 	
  31:../Sources/DSP/PeakingComb.c **** 	q63_t Acc = 0;
  32:../Sources/DSP/PeakingComb.c **** 	
  33:../Sources/DSP/PeakingComb.c **** 	//get the feedback Value;
  34:../Sources/DSP/PeakingComb.c **** 	
  35:../Sources/DSP/PeakingComb.c **** 	
  36:../Sources/DSP/PeakingComb.c **** 	Idx = PC->CurrentIndex + PC->FeedbackTap;
 120              		.loc 1 36 0
 121 0004 D389     		ldrh	r3, [r2, #14]
 122 0006 158A     		ldrh	r5, [r2, #16]
  37:../Sources/DSP/PeakingComb.c **** 	
  38:../Sources/DSP/PeakingComb.c **** 	if(Idx<0)
  39:../Sources/DSP/PeakingComb.c **** 	{
  40:../Sources/DSP/PeakingComb.c **** 		Idx += PC->HistoryLength;
 123              		.loc 1 40 0
 124 0008 B2F80C80 		ldrh	r8, [r2, #12]
  41:../Sources/DSP/PeakingComb.c **** 	}
  42:../Sources/DSP/PeakingComb.c **** 	
  43:../Sources/DSP/PeakingComb.c **** 	// Compute the Feedforward part.  Simple 2 element LPF
  44:../Sources/DSP/PeakingComb.c **** 	Acc += In;// + PC->PreviousInput; 
  45:../Sources/DSP/PeakingComb.c **** //	Acc >>= 1; 
  46:../Sources/DSP/PeakingComb.c **** 	
  47:../Sources/DSP/PeakingComb.c **** 	//Compute the Feedback  part
  48:../Sources/DSP/PeakingComb.c **** 	
  49:../Sources/DSP/PeakingComb.c **** 	Acc += ((q63_t)PC->OutputHistory[Idx]  * PC->FeedbackAmplitude)>>31;
 125              		.loc 1 49 0
 126 000c D2F800C0 		ldr	ip, [r2, #0]
  36:../Sources/DSP/PeakingComb.c **** 	Idx = PC->CurrentIndex + PC->FeedbackTap;
 127              		.loc 1 36 0
 128 0010 EC18     		adds	r4, r5, r3
 129 0012 A6B2     		uxth	r6, r4
 130              	.LVL6:
  38:../Sources/DSP/PeakingComb.c **** 	if(Idx<0)
 131              		.loc 1 38 0
 132 0014 37B2     		sxth	r7, r6
 133 0016 002F     		cmp	r7, #0
  40:../Sources/DSP/PeakingComb.c **** 		Idx += PC->HistoryLength;
 134              		.loc 1 40 0
 135 0018 BCBF     		itt	lt
 136 001a 06EB0807 		addlt	r7, r6, r8
 137 001e 3FB2     		sxthlt	r7, r7
 138              		.loc 1 49 0
 139 0020 5568     		ldr	r5, [r2, #4]
 140 0022 5CF82740 		ldr	r4, [ip, r7, lsl #2]
 141              	.LVL7:
 142 0026 84FB0567 		smull	r6, r7, r4, r5
 143 002a F60F     		lsrs	r6, r6, #31
 144 002c 46EA4704 		orr	r4, r6, r7, lsl #1
 145              	.LVL8:
  50:../Sources/DSP/PeakingComb.c **** 
  51:../Sources/DSP/PeakingComb.c **** 	PC->OutputHistory[PC->CurrentIndex] = (q31_t)Acc;
 146              		.loc 1 51 0
 147 0030 1EB2     		sxth	r6, r3
  52:../Sources/DSP/PeakingComb.c **** 	
  53:../Sources/DSP/PeakingComb.c **** 	*Out = (q31_t)Acc;
  54:../Sources/DSP/PeakingComb.c **** 	
  55:../Sources/DSP/PeakingComb.c **** 		
  56:../Sources/DSP/PeakingComb.c **** 	PC->CurrentIndex++;
 148              		.loc 1 56 0
 149 0032 0133     		adds	r3, r3, #1
 150 0034 9BB2     		uxth	r3, r3
  49:../Sources/DSP/PeakingComb.c **** 	Acc += ((q63_t)PC->OutputHistory[Idx]  * PC->FeedbackAmplitude)>>31;
 151              		.loc 1 49 0
 152 0036 FD17     		asrs	r5, r7, #31
 153              	.LVL9:
 154 0038 2418     		adds	r4, r4, r0
 155 003a 45EBE075 		adc	r5, r5, r0, asr #31
  57:../Sources/DSP/PeakingComb.c **** 	if(PC->CurrentIndex == PC->HistoryLength)
 156              		.loc 1 57 0
 157 003e 9845     		cmp	r8, r3
  58:../Sources/DSP/PeakingComb.c **** 				PC->CurrentIndex = 0;
 158              		.loc 1 58 0
 159 0040 08BF     		it	eq
 160 0042 0023     		moveq	r3, #0
  51:../Sources/DSP/PeakingComb.c **** 	PC->OutputHistory[PC->CurrentIndex] = (q31_t)Acc;
 161              		.loc 1 51 0
 162 0044 4CF82640 		str	r4, [ip, r6, lsl #2]
  53:../Sources/DSP/PeakingComb.c **** 	*Out = (q31_t)Acc;
 163              		.loc 1 53 0
 164 0048 0C60     		str	r4, [r1, #0]
 165              		.loc 1 58 0
 166 004a D381     		strh	r3, [r2, #14]	@ movhi
  59:../Sources/DSP/PeakingComb.c **** 
  60:../Sources/DSP/PeakingComb.c **** 	PC->PreviousInput = In;
 167              		.loc 1 60 0
 168 004c 9060     		str	r0, [r2, #8]
  61:../Sources/DSP/PeakingComb.c **** 	
  62:../Sources/DSP/PeakingComb.c **** }
 169              		.loc 1 62 0
 170 004e BDE8F001 		pop	{r4, r5, r6, r7, r8}
 171 0052 7047     		bx	lr
 172              		.cfi_endproc
 173              	.LFE129:
 175              		.text
 176              	.Letext0:
 177              		.file 2 "C:/Freescale/CW MCU v10.5/MCU/ARM_GCC_Support/ewl/EWL_C/include/cstdint"
 178              		.file 3 "C:/Users/ehughes/Dropbox/FRDM/FRDM-JAM/SRC/CMSIS_DSP_3.2/Sources/Include/arm_math.h"
 179              		.file 4 "../Sources/DSP/PeakingComb.h"